(dp0
I0
(dp1
S'clustering coefficient'
p2
(dp3
S'Backend Query'
p4
(dp5
F0.125
F0.03
sF0.147
F0.04
sF0.169
F0.03
sF0.191
F0.01
sF0.213
F0.01
sF0.066
F0.03
sF0.099
F0.03
sF0.11
F0.01
sF0.121
F0.03
sF0.139
F0.01
sF0.09
F0.03
sF0.071
F0.01
sF0.073
F0.02
sF0.041999999999999996
F0.01
sF0.095
F0.02
sF0.063
F0.01
sF0.175
F0.01
sF0.069
F0.01
sF0.04
F0.01
sF0.091
F0.01
sF0.051
F0.04
sF0.124
F0.02
sF0.138
F0.01
sF0.065
F0.04
sF0.152
F0.01
sF0.098
F0.02
sF0.109
F0.01
sF0.12
F0.01
sF0.137
F0.02
sF0.159
F0.01
sF0.08
F0.02
sF0.083
F0.02
sF0.047
F0.02
sF0.057999999999999996
F0.01
sF0.068
F0.01
sF0.158
F0.01
sF0.18
F0.01
sF0.064
F0.04
sF0.128
F0.01
sF0.15
F0.01
sF0.116
F0.01
sF0.142
F0.01
sF0.078
F0.02
sF0.093
F0.02
sF0.104
F0.03
sF0.094
F0.01
sF0.134
F0.01
sF0.039
F0.01
sF0.089
F0.01
sF0.1
F0.01
sF0.122
F0.02
sF0.126
F0.02
sF0.118
F0.01
sF0.102
F0.03
sF0.057
F0.01
sF0.076
F0.01
sF0.06999999999999999
F0.02
sF0.103
F0.01
sF0.114
F0.01
ssS'Frontend Query'
p6
(dp7
F0.0
F1.0
sssS'path length'
p8
(dp9
g4
(dp10
I1
F0.04040404040404041
sI2
F0.2917171717171717
sI3
F0.6628282828282829
sI4
F0.005050505050505051
ssg6
(dp11
I1
F0.02101010101010101
sI2
F0.026262626262626262
sI3
F0.030707070707070707
sI4
F0.03515151515151515
sI5
F0.04202020202020202
sI6
F0.04363636363636364
sI7
F0.04707070707070707
sI8
F0.04828282828282828
sI9
F0.04767676767676768
sI10
F0.048484848484848485
sI11
F0.04707070707070707
sI12
F0.045858585858585856
sI13
F0.04363636363636364
sI14
F0.04262626262626262
sI15
F0.036565656565656565
sI16
F0.03333333333333333
sI17
F0.03373737373737374
sI18
F0.032929292929292926
sI19
F0.03151515151515152
sI20
F0.030707070707070707
sI21
F0.028888888888888888
sI22
F0.02727272727272727
sI23
F0.02666666666666667
sI24
F0.024242424242424242
sI25
F0.021616161616161617
sI26
F0.019393939393939394
sI27
F0.016565656565656565
sI28
F0.014545454545454545
sI29
F0.012525252525252526
sI30
F0.01090909090909091
sI31
F0.008686868686868687
sI32
F0.006060606060606061
sI33
F0.0044444444444444444
sI34
F0.0032323232323232323
sI35
F0.0024242424242424242
sI36
F0.0018181818181818182
sI37
F0.0012121212121212121
sI38
F0.0008080808080808081
sI39
F0.00040404040404040404
sssS'degree'
p12
(dp13
g4
(dp14
I14
F0.01
sI15
F0.03
sI16
F0.06
sI17
F0.07
sI18
F0.11
sI19
F0.13
sI20
F0.11
sI21
F0.1
sI22
F0.13
sI23
F0.11
sI24
F0.07
sI25
F0.05
sI26
F0.02
ssg6
(dp15
I1
F0.09
sI2
F0.79
sI3
F0.07
sI4
F0.05
ssssI1
(dp16
g2
(dp17
g4
(dp18
F0.125
F0.01
sF0.147
F0.01
sF0.169
F0.01
sF0.191
F0.01
sF0.132
F0.01
sF0.154
F0.01
sF0.088
F0.01
sF0.11
F0.05
sF0.121
F0.03
sF0.071
F0.01
sF0.073
F0.01
sF0.084
F0.01
sF0.19
F0.01
sF0.106
F0.01
sF0.11699999999999999
F0.01
sF0.131
F0.02
sF0.082
F0.02
sF0.069
F0.02
sF0.08
F0.02
sF0.091
F0.03
sF0.051
F0.01
sF0.124
F0.01
sF0.138
F0.01
sF0.13
F0.01
sF0.152
F0.01
sF0.087
F0.01
sF0.098
F0.01
sF0.137
F0.01
sF0.036
F0.01
sF0.166
F0.01
sF0.094
F0.02
sF0.105
F0.01
sF0.116
F0.03
sF0.129
F0.01
sF0.077
F0.01
sF0.055
F0.01
sF0.102
F0.01
sF0.045
F0.01
sF0.056
F0.03
sF0.123
F0.02
sF0.143
F0.01
sF0.078
F0.02
sF0.062
F0.01
sF0.108
F0.02
sF0.119
F0.01
sF0.067
F0.01
sF0.057999999999999996
F0.02
sF0.142
F0.02
sF0.039
F0.01
sF0.093
F0.01
sF0.104
F0.02
sF0.17099999999999999
F0.01
sF0.134
F0.03
sF0.156
F0.01
sF0.089
F0.02
sF0.1
F0.01
sF0.111
F0.02
sF0.061
F0.01
sF0.173
F0.01
sF0.146
F0.01
sF0.063
F0.01
sF0.059
F0.01
sF0.133
F0.02
sF0.155
F0.01
sF0.076
F0.02
sF0.095
F0.01
sF0.081
F0.02
sF0.057
F0.03
ssg6
(dp19
F0.0
F0.97
sF0.333
F0.01
sF0.166
F0.01
sF0.9999999999999999
F0.01
sssg8
(dp20
g4
(dp21
I1
F0.037171717171717175
sI2
F0.2684848484848485
sI3
F0.6886868686868687
sI4
F0.0056565656565656566
ssg6
(dp22
I1
F0.020404040404040404
sI2
F0.021616161616161617
sI3
F0.022424242424242423
sI4
F0.02303030303030303
sI5
F0.023434343434343436
sI6
F0.021616161616161617
sI7
F0.021212121212121213
sI8
F0.02101010101010101
sI9
F0.02101010101010101
sI10
F0.020808080808080807
sI11
F0.020404040404040404
sI12
F0.02
sI13
F0.019797979797979797
sI14
F0.02
sI15
F0.02
sI16
F0.019797979797979797
sI17
F0.019595959595959597
sI18
F0.01898989898989899
sI19
F0.018383838383838384
sI20
F0.018383838383838384
sI21
F0.018383838383838384
sI22
F0.01818181818181818
sI23
F0.017777777777777778
sI24
F0.01717171717171717
sI25
F0.01616161616161616
sI26
F0.015353535353535354
sI27
F0.014747474747474747
sI28
F0.014545454545454545
sI29
F0.014343434343434344
sI30
F0.014141414141414142
sI31
F0.013939393939393939
sI32
F0.013737373737373737
sI33
F0.013535353535353536
sI34
F0.013333333333333334
sI35
F0.013131313131313131
sI36
F0.01292929292929293
sI37
F0.012727272727272728
sI38
F0.012525252525252526
sI39
F0.012323232323232323
sI40
F0.012121212121212121
sI41
F0.012323232323232323
sI42
F0.01191919191919192
sI43
F0.01191919191919192
sI44
F0.011717171717171718
sI45
F0.011515151515151515
sI46
F0.01090909090909091
sI47
F0.010707070707070707
sI48
F0.010505050505050505
sI49
F0.010303030303030303
sI50
F0.010101010101010102
sI51
F0.009898989898989899
sI52
F0.009696969696969697
sI53
F0.009494949494949495
sI54
F0.009494949494949495
sI55
F0.009292929292929294
sI56
F0.008888888888888889
sI57
F0.008686868686868687
sI58
F0.008484848484848486
sI59
F0.008282828282828282
sI60
F0.00808080808080808
sI61
F0.00808080808080808
sI62
F0.007676767676767677
sI63
F0.007474747474747475
sI64
F0.007070707070707071
sI65
F0.006464646464646465
sI66
F0.006060606060606061
sI67
F0.005454545454545455
sI68
F0.0048484848484848485
sI69
F0.004242424242424243
sI70
F0.00404040404040404
sI71
F0.0038383838383838384
sI72
F0.0036363636363636364
sI73
F0.0034343434343434343
sI74
F0.0032323232323232323
sI75
F0.0030303030303030303
sI76
F0.0028282828282828283
sI77
F0.0026262626262626263
sI78
F0.0022222222222222222
sI79
F0.0018181818181818182
sI80
F0.0016161616161616162
sI81
F0.0014141414141414141
sI82
F0.0012121212121212121
sI83
F0.00101010101010101
sI84
F0.0008080808080808081
sI85
F0.00040404040404040404
sI86
F0.00020202020202020202
sssg12
(dp23
g4
(dp24
I14
F0.01
sI15
F0.02
sI16
F0.04
sI17
F0.1
sI18
F0.14
sI19
F0.07
sI20
F0.17
sI21
F0.13
sI22
F0.16
sI23
F0.07
sI24
F0.03
sI25
F0.05
sI27
F0.01
ssg6
(dp25
I1
F0.05
sI2
F0.89
sI3
F0.05
sI4
F0.01
ssssI2
(dp26
g2
(dp27
g4
(dp28
F0.125
F0.03
sF0.147
F0.01
sF0.169
F0.01
sF0.191
F0.01
sF0.132
F0.01
sF0.154
F0.01
sF0.099
F0.01
sF0.11
F0.03
sF0.136
F0.01
sF0.09
F0.02
sF0.071
F0.02
sF0.146
F0.01
sF0.084
F0.02
sF0.212
F0.01
sF0.11699999999999999
F0.01
sF0.082
F0.02
sF0.175
F0.01
sF0.068
F0.02
sF0.138
F0.01
sF0.08
F0.02
sF0.091
F0.03
sF0.051
F0.01
sF0.062
F0.01
sF0.052
F0.01
sF0.033
F0.01
sF0.065
F0.02
sF0.076
F0.02
sF0.087
F0.01
sF0.109
F0.01
sF0.069
F0.01
sF0.181
F0.02
sF0.118
F0.01
sF0.036
F0.01
sF0.116
F0.02
sF0.129
F0.01
sF0.016999999999999998
F0.01
sF0.158
F0.01
sF0.18
F0.01
sF0.056
F0.01
sF0.143
F0.03
sF0.128
F0.02
sF0.075
F0.01
sF0.086
F0.02
sF0.097
F0.01
sF0.157
F0.01
sF0.057999999999999996
F0.01
sF0.142
F0.02
sF0.078
F0.02
sF0.104
F0.02
sF0.115
F0.01
sF0.034999999999999996
F0.01
sF0.134
F0.03
sF0.156
F0.01
sF0.089
F0.02
sF0.1
F0.02
sF0.122
F0.01
sF0.163
F0.01
sF0.126
F0.03
sF0.081
F0.01
sF0.13
F0.02
sF0.041999999999999996
F0.01
sF0.133
F0.03
sF0.06999999999999999
F0.01
sF0.066
F0.02
sF0.184
F0.02
sF0.057
F0.01
ssg6
(dp29
F0.0
F1.0
sssg8
(dp30
g4
(dp31
I1
F0.03939393939393939
sI2
F0.2884848484848485
sI3
F0.6672727272727272
sI4
F0.0048484848484848485
ssg6
(dp32
I1
F0.02101010101010101
sI2
F0.026060606060606062
sI3
F0.03313131313131313
sI4
F0.04040404040404041
sI5
F0.048484848484848485
sI6
F0.05292929292929293
sI7
F0.057373737373737375
sI8
F0.0602020202020202
sI9
F0.05494949494949495
sI10
F0.05333333333333334
sI11
F0.05131313131313131
sI12
F0.0496969696969697
sI13
F0.04767676767676768
sI14
F0.046464646464646465
sI15
F0.044444444444444446
sI16
F0.04323232323232323
sI17
F0.041212121212121214
sI18
F0.039595959595959594
sI19
F0.03737373737373737
sI20
F0.03696969696969697
sI21
F0.027676767676767678
sI22
F0.01919191919191919
sI23
F0.014545454545454545
sI24
F0.011717171717171718
sI25
F0.009292929292929294
sI26
F0.007272727272727273
sI27
F0.0056565656565656566
sI28
F0.004242424242424243
sI29
F0.0036363636363636364
sI30
F0.0030303030303030303
sI31
F0.0024242424242424242
sI32
F0.00202020202020202
sI33
F0.0016161616161616162
sI34
F0.00101010101010101
sI35
F0.0006060606060606061
sI36
F0.00020202020202020202
sssg12
(dp33
g4
(dp34
I14
F0.01
sI15
F0.01
sI16
F0.05
sI17
F0.07
sI18
F0.11
sI19
F0.13
sI20
F0.17
sI21
F0.08
sI22
F0.13
sI23
F0.12
sI24
F0.05
sI25
F0.03
sI26
F0.01
sI27
F0.01
sI28
F0.01
sI31
F0.01
ssg6
(dp35
I1
F0.09
sI2
F0.78
sI3
F0.09
sI4
F0.04
ssss.