(dp0
I0
(dp1
S'clustering coefficient'
p2
(dp3
S'Backend Query'
p4
(dp5
F0.147
F0.009900990099009901
sF0.169
F0.009900990099009901
sF0.088
F0.009900990099009901
sF0.198
F0.009900990099009901
sF0.11
F0.009900990099009901
sF0.161
F0.009900990099009901
sF0.146
F0.009900990099009901
sF0.041999999999999996
F0.009900990099009901
sF0.095
F0.009900990099009901
sF0.11699999999999999
F0.009900990099009901
sF0.082
F0.009900990099009901
sF0.068
F0.009900990099009901
sF0.069
F0.009900990099009901
sF0.04
F0.009900990099009901
sF0.051
F0.009900990099009901
sF0.138
F0.019801980198019802
sF0.192
F0.009900990099009901
sF0.13
F0.019801980198019802
sF0.152
F0.04950495049504951
sF0.087
F0.009900990099009901
sF0.098
F0.009900990099009901
sF0.109
F0.009900990099009901
sF0.06
F0.009900990099009901
sF0.137
F0.019801980198019802
sF0.159
F0.009900990099009901
sF0.083
F0.009900990099009901
sF0.047
F0.019801980198019802
sF0.105
F0.019801980198019802
sF0.116
F0.019801980198019802
sF0.099
F0.009900990099009901
sF0.079
F0.019801980198019802
sF0.09
F0.019801980198019802
sF0.10099999999999999
F0.019801980198019802
sF0.112
F0.009900990099009901
sF0.123
F0.009900990099009901
sF0.078
F0.019801980198019802
sF0.128
F0.04950495049504951
sF0.075
F0.019801980198019802
sF0.086
F0.009900990099009901
sF0.216
F0.009900990099009901
sF0.119
F0.009900990099009901
sF0.057999999999999996
F0.009900990099009901
sF0.142
F0.0297029702970297
sF0.039
F0.009900990099009901
sF0.093
F0.009900990099009901
sF0.104
F0.019801980198019802
sF0.115
F0.0297029702970297
sF0.094
F0.009900990099009901
sF0.134
F0.009900990099009901
sF0.156
F0.009900990099009901
sF0.089
F0.019801980198019802
sF0.1
F0.009900990099009901
sF0.111
F0.019801980198019802
sF0.061
F0.009900990099009901
sF0.163
F0.009900990099009901
sF0.222
F0.009900990099009901
sF0.073
F0.0297029702970297
sF0.126
F0.0297029702970297
sF0.148
F0.009900990099009901
sF0.065
F0.019801980198019802
sF0.059
F0.009900990099009901
sF0.133
F0.009900990099009901
sF0.076
F0.0297029702970297
sF0.19
F0.009900990099009901
sF0.081
F0.019801980198019802
sF0.057
F0.019801980198019802
ssS'Frontend Query'
p6
(dp7
F0.0
F0.7524752475247525
sF0.5
F0.019801980198019802
sF0.1
F0.06930693069306931
sF0.2
F0.009900990099009901
sF0.333
F0.0594059405940594
sF0.133
F0.009900990099009901
sF0.266
F0.009900990099009901
sF0.166
F0.0594059405940594
sF0.19
F0.009900990099009901
sssS'path length'
p8
(dp9
g4
(dp10
I1
F0.028316831683168318
sI2
F0.2718811881188119
sI3
F0.6964356435643564
sI4
F0.0033663366336633663
ssg6
(dp11
I1
F0.032005371530886305
sI2
F0.06781557743957027
sI3
F0.12779767233661593
sI4
F0.20053715308863027
sI5
F0.229632945389436
sI6
F0.18710832587287377
sI7
F0.10496866606982991
sI8
F0.038272157564906
sI9
F0.009847806624888093
sI10
F0.0020143240823634737
sssS'degree'
p12
(dp13
g4
(dp14
I15
F0.0297029702970297
sI16
F0.0297029702970297
sI17
F0.019801980198019802
sI18
F0.09900990099009901
sI19
F0.16831683168316833
sI20
F0.15841584158415842
sI21
F0.15841584158415842
sI22
F0.1188118811881188
sI23
F0.07920792079207921
sI24
F0.09900990099009901
sI25
F0.009900990099009901
sI28
F0.019801980198019802
sI30
F0.009900990099009901
ssg6
(dp15
I1
F0.19801980198019803
sI2
F0.26732673267326734
sI3
F0.2079207920792079
sI4
F0.19801980198019803
sI5
F0.09900990099009901
sI6
F0.019801980198019802
sI7
F0.009900990099009901
ssssI1
(dp16
g2
(dp17
g4
(dp18
F0.169
F0.02
sF0.191
F0.01
sF0.132
F0.01
sF0.176
F0.01
sF0.099
F0.01
sF0.11
F0.03
sF0.121
F0.01
sF0.161
F0.01
sF0.183
F0.01
sF0.09
F0.01
sF0.071
F0.01
sF0.073
F0.01
sF0.041999999999999996
F0.01
sF0.095
F0.02
sF0.106
F0.02
sF0.131
F0.02
sF0.069
F0.03
sF0.041
F0.01
sF0.138
F0.01
sF0.08
F0.01
sF0.051
F0.01
sF0.052
F0.01
sF0.066
F0.02
sF0.06
F0.01
sF0.13
F0.01
sF0.152
F0.01
sF0.087
F0.02
sF0.12
F0.01
sF0.137
F0.01
sF0.088
F0.01
sF0.236
F0.01
sF0.036
F0.01
sF0.083
F0.04
sF0.047
F0.01
sF0.105
F0.01
sF0.116
F0.03
sF0.216
F0.01
sF0.055
F0.01
sF0.068
F0.02
sF0.079
F0.01
sF0.054
F0.01
sF0.128
F0.01
sF0.112
F0.01
sF0.039
F0.01
sF0.032
F0.01
sF0.064
F0.03
sF0.15
F0.02
sF0.108
F0.02
sF0.157
F0.01
sF0.057999999999999996
F0.02
sF0.142
F0.02
sF0.078
F0.05
sF0.093
F0.01
sF0.104
F0.01
sF0.115
F0.01
sF0.17099999999999999
F0.01
sF0.134
F0.01
sF0.156
F0.01
sF0.1
F0.01
sF0.111
F0.01
sF0.122
F0.01
sF0.163
F0.03
sF0.146
F0.01
sF0.126
F0.01
sF0.084
F0.01
sF0.133
F0.01
sF0.06999999999999999
F0.03
sF0.103
F0.01
sF0.057
F0.02
ssg6
(dp19
F0.0
F0.78
sF0.25
F0.01
sF0.5
F0.01
sF0.4
F0.01
sF0.2
F0.05
sF0.3
F0.02
sF0.666
F0.01
sF0.333
F0.03
sF0.428
F0.02
sF0.166
F0.02
sF0.833
F0.01
sF0.321
F0.01
sF0.9999999999999999
F0.02
sssg8
(dp20
g4
(dp21
I1
F0.03111111111111111
sI2
F0.25676767676767676
sI3
F0.7072727272727273
sI4
F0.0048484848484848485
ssg6
(dp22
I1
F0.032393773664282706
sI2
F0.0681531342027766
sI3
F0.13462347496844762
sI4
F0.20445940260832982
sI5
F0.23895666806899454
sI6
F0.18510727808161548
sI7
F0.09718132099284812
sI8
F0.030921329406815315
sI9
F0.006520824568784182
sI10
F0.0016827934371055953
sssg12
(dp23
g4
(dp24
I13
F0.01
sI14
F0.01
sI15
F0.02
sI16
F0.06
sI17
F0.05
sI18
F0.17
sI19
F0.14
sI20
F0.12
sI21
F0.11
sI22
F0.1
sI23
F0.09
sI24
F0.03
sI25
F0.03
sI26
F0.03
sI27
F0.01
sI28
F0.02
ssg6
(dp25
I1
F0.09
sI2
F0.34
sI3
F0.25
sI4
F0.17
sI5
F0.08
sI6
F0.03
sI7
F0.02
sI8
F0.02
ssssI2
(dp26
g2
(dp27
g4
(dp28
F0.125
F0.03
sF0.068
F0.02
sF0.169
F0.03
sF0.132
F0.01
sF0.088
F0.01
sF0.099
F0.01
sF0.11
F0.01
sF0.084
F0.01
sF0.095
F0.01
sF0.126
F0.03
sF0.11699999999999999
F0.02
sF0.082
F0.01
sF0.112
F0.01
sF0.138
F0.01
sF0.08
F0.01
sF0.091
F0.04
sF0.034999999999999996
F0.01
sF0.13
F0.02
sF0.076
F0.01
sF0.087
F0.01
sF0.098
F0.03
sF0.109
F0.01
sF0.137
F0.01
sF0.159
F0.01
sF0.181
F0.01
sF0.036
F0.01
sF0.094
F0.02
sF0.105
F0.02
sF0.057999999999999996
F0.01
sF0.072
F0.01
sF0.198
F0.01
sF0.079
F0.02
sF0.09
F0.04
sF0.279
F0.01
sF0.056
F0.01
sF0.123
F0.01
sF0.143
F0.01
sF0.128
F0.01
sF0.064
F0.01
sF0.086
F0.01
sF0.097
F0.01
sF0.108
F0.02
sF0.116
F0.01
sF0.142
F0.02
sF0.078
F0.02
sF0.026
F0.01
sF0.115
F0.01
sF0.06999999999999999
F0.03
sF0.17099999999999999
F0.01
sF0.047
F0.04
sF0.067
F0.01
sF0.039
F0.02
sF0.089
F0.01
sF0.1
F0.01
sF0.111
F0.02
sF0.122
F0.01
sF0.141
F0.01
sF0.163
F0.01
sF0.063
F0.02
sF0.061
F0.01
sF0.020999999999999998
F0.01
sF0.011
F0.01
sF0.019
F0.01
sF0.13999999999999999
F0.01
sF0.023
F0.01
sF0.103
F0.03
sF0.057
F0.01
ssg6
(dp29
F0.0
F0.81
sF0.5
F0.02
sF0.066
F0.01
sF0.4
F0.02
sF0.3
F0.01
sF0.1
F0.02
sF0.333
F0.08
sF0.166
F0.03
sssg8
(dp30
g4
(dp31
I1
F0.0301010101010101
sI2
F0.27555555555555555
sI3
F0.6911111111111111
sI4
F0.0032323232323232323
ssg6
(dp32
I1
F0.03134202776609171
sI2
F0.0689945309213294
sI3
F0.1348338241480858
sI4
F0.22128733697938577
sI5
F0.2576777450567943
sI6
F0.18068994530921328
sI7
F0.07572570466975179
sI8
F0.023769457299116534
sI9
F0.005048380311316786
sI10
F0.0006310475389145982
sssg12
(dp33
g4
(dp34
I15
F0.02
sI16
F0.06
sI17
F0.05
sI18
F0.1
sI19
F0.17
sI20
F0.16
sI21
F0.1
sI22
F0.06
sI23
F0.06
sI24
F0.12
sI25
F0.05
sI26
F0.02
sI27
F0.01
sI28
F0.01
sI30
F0.01
ssg6
(dp35
I1
F0.13
sI2
F0.24
sI3
F0.32
sI4
F0.18
sI5
F0.09
sI6
F0.04
ssss.