(dp0
I0
(dp1
S'clustering coefficient'
p2
(dp3
S'Backend Query'
p4
(dp5
F0.0
F0.01
sF0.136
F0.01
sF0.066
F0.04
sF0.022
F0.04
sF0.09
F0.02
sF0.076
F0.01
sF0.020999999999999998
F0.01
sF0.095
F0.01
sF0.03
F0.02
sF0.153
F0.01
sF0.051
F0.01
sF0.062
F0.02
sF0.026
F0.02
sF0.06999999999999999
F0.01
sF0.06
F0.03
sF0.13
F0.01
sF0.019
F0.01
sF0.109
F0.02
sF0.015
F0.01
sF0.088
F0.01
sF0.072
F0.01
sF0.083
F0.02
sF0.047
F0.03
sF0.057999999999999996
F0.01
sF0.036
F0.05
sF0.068
F0.02
sF0.079
F0.01
sF0.045
F0.01
sF0.032
F0.01
sF0.028
F0.01
sF0.016
F0.02
sF0.064
F0.03
sF0.043
F0.03
sF0.054
F0.05
sF0.028999999999999998
F0.01
sF0.052
F0.03
sF0.127
F0.01
sF0.067
F0.01
sF0.039
F0.04
sF0.089
F0.01
sF0.024999999999999998
F0.02
sF0.018
F0.03
sF0.061
F0.01
sF0.023
F0.01
sF0.111
F0.01
sF0.08499999999999999
F0.01
sF0.065
F0.02
sF0.059
F0.01
sF0.133
F0.01
sF0.114
F0.01
sF0.044
F0.01
sF0.038
F0.04
sF0.2
F0.02
sF0.024
F0.01
sF0.092
F0.01
sF0.057
F0.01
sF0.053
F0.01
ssS'Frontend Query'
p6
(dp7
F0.0
F1.0
sssS'path length'
p8
(dp9
g4
(dp10
I1
F0.04303030303030303
sI2
F0.46585858585858586
sI3
F0.4909090909090909
sI4
F0.00020202020202020202
ssg6
(dp11
I1
F0.021212121212121213
sI2
F0.02666666666666667
sI3
F0.03090909090909091
sI4
F0.03474747474747475
sI5
F0.03575757575757576
sI6
F0.03595959595959596
sI7
F0.03515151515151515
sI8
F0.030505050505050504
sI9
F0.027474747474747475
sI10
F0.02585858585858586
sI11
F0.023434343434343436
sI12
F0.023232323232323233
sI13
F0.023434343434343436
sI14
F0.023636363636363636
sI15
F0.02404040404040404
sI16
F0.02585858585858586
sI17
F0.026464646464646465
sI18
F0.025252525252525252
sI19
F0.024444444444444446
sI20
F0.02383838383838384
sI21
F0.023232323232323233
sI22
F0.022626262626262626
sI23
F0.021212121212121213
sI24
F0.019797979797979797
sI25
F0.017575757575757574
sI26
F0.01616161616161616
sI27
F0.01717171717171717
sI28
F0.01797979797979798
sI29
F0.018383838383838384
sI30
F0.01898989898989899
sI31
F0.020404040404040404
sI32
F0.02101010101010101
sI33
F0.020606060606060607
sI34
F0.02
sI35
F0.018585858585858588
sI36
F0.01717171717171717
sI37
F0.015151515151515152
sI38
F0.013737373737373737
sI39
F0.012727272727272728
sI40
F0.012323232323232323
sI41
F0.012525252525252526
sI42
F0.013535353535353536
sI43
F0.01292929292929293
sI44
F0.01191919191919192
sI45
F0.010707070707070707
sI46
F0.010101010101010102
sI47
F0.00787878787878788
sI48
F0.0048484848484848485
sI49
F0.0024242424242424242
sI50
F0.00040404040404040404
sssS'degree'
p12
(dp13
g4
(dp14
I10
F0.1
sI11
F0.12
sI12
F0.05
sI13
F0.08
sI14
F0.07
sI15
F0.05
sI16
F0.05
sI17
F0.02
sI18
F0.05
sI19
F0.02
sI20
F0.03
sI21
F0.03
sI22
F0.02
sI24
F0.03
sI25
F0.02
sI26
F0.02
sI27
F0.02
sI29
F0.01
sI30
F0.02
sI31
F0.02
sI32
F0.01
sI33
F0.01
sI34
F0.01
sI35
F0.01
sI46
F0.02
sI47
F0.01
sI50
F0.01
sI58
F0.01
sI59
F0.02
sI78
F0.01
sI81
F0.01
sI86
F0.01
sI95
F0.01
sI96
F0.01
sI111
F0.01
ssg6
(dp15
I1
F0.07
sI2
F0.81
sI3
F0.07
sI4
F0.05
ssssI1
(dp16
g2
(dp17
g4
(dp18
F0.0
F0.02
sF0.033
F0.01
sF0.088
F0.02
sF0.099
F0.01
sF0.09
F0.02
sF0.041999999999999996
F0.01
sF0.106
F0.01
sF0.082
F0.01
sF0.013999999999999999
F0.02
sF0.08
F0.01
sF0.091
F0.01
sF0.051
F0.04
sF0.062
F0.01
sF0.026
F0.01
sF0.020999999999999998
F0.01
sF0.066
F0.04
sF0.048
F0.01
sF0.065
F0.01
sF0.038
F0.01
sF0.109
F0.01
sF0.06
F0.03
sF0.022
F0.02
sF0.072
F0.01
sF0.083
F0.01
sF0.047
F0.01
sF0.057999999999999996
F0.01
sF0.024999999999999998
F0.01
sF0.036
F0.04
sF0.068
F0.02
sF0.045
F0.02
sF0.016
F0.01
sF0.028
F0.02
sF0.064
F0.02
sF0.032
F0.01
sF0.075
F0.02
sF0.031
F0.01
sF0.054
F0.03
sF0.028999999999999998
F0.04
sF0.071
F0.02
sF0.041
F0.02
sF0.052
F0.01
sF0.127
F0.01
sF0.126
F0.01
sF0.078
F0.01
sF0.089
F0.01
sF0.049999999999999996
F0.03
sF0.018
F0.01
sF0.061
F0.02
sF0.111
F0.01
sF0.009000000000000001
F0.02
sF0.063
F0.02
sF0.08499999999999999
F0.01
sF0.024
F0.01
sF0.059
F0.02
sF0.155
F0.02
sF0.044
F0.02
sF0.076
F0.03
sF0.046
F0.02
sF0.057
F0.02
sF0.053
F0.01
ssg6
(dp19
F0.0
F1.0
sssg8
(dp20
g4
(dp21
I1
F0.04606060606060606
sI2
F0.457979797979798
sI3
F0.4955555555555556
sI4
F0.00040404040404040404
ssg6
(dp22
I1
F0.020404040404040404
sI2
F0.02303030303030303
sI3
F0.024646464646464646
sI4
F0.027474747474747475
sI5
F0.0301010101010101
sI6
F0.032525252525252527
sI7
F0.035555555555555556
sI8
F0.037171717171717175
sI9
F0.039595959595959594
sI10
F0.041616161616161614
sI11
F0.04303030303030303
sI12
F0.044848484848484846
sI13
F0.04404040404040404
sI14
F0.041212121212121214
sI15
F0.04040404040404041
sI16
F0.04
sI17
F0.040202020202020204
sI18
F0.03575757575757576
sI19
F0.03111111111111111
sI20
F0.029292929292929294
sI21
F0.027676767676767678
sI22
F0.025656565656565655
sI23
F0.023434343434343436
sI24
F0.022222222222222223
sI25
F0.020808080808080807
sI26
F0.019393939393939394
sI27
F0.017777777777777778
sI28
F0.01616161616161616
sI29
F0.014747474747474747
sI30
F0.013939393939393939
sI31
F0.013333333333333334
sI32
F0.012525252525252526
sI33
F0.011111111111111112
sI34
F0.009898989898989899
sI35
F0.008888888888888889
sI36
F0.00787878787878788
sI37
F0.006868686868686869
sI38
F0.005858585858585859
sI39
F0.005050505050505051
sI40
F0.00404040404040404
sI41
F0.0032323232323232323
sI42
F0.0024242424242424242
sI43
F0.0018181818181818182
sI44
F0.0014141414141414141
sI45
F0.00101010101010101
sI46
F0.0006060606060606061
sI47
F0.00020202020202020202
sssg12
(dp23
g4
(dp24
I132
F0.01
sI10
F0.09
sI11
F0.11
sI12
F0.06
sI13
F0.07
sI14
F0.04
sI15
F0.07
sI16
F0.05
sI17
F0.07
sI18
F0.04
sI19
F0.01
sI20
F0.03
sI21
F0.04
sI22
F0.02
sI23
F0.02
sI24
F0.02
sI26
F0.01
sI27
F0.01
sI28
F0.02
sI30
F0.03
sI31
F0.02
sI35
F0.01
sI38
F0.03
sI39
F0.02
sI40
F0.01
sI41
F0.02
sI47
F0.01
sI56
F0.01
sI61
F0.01
sI72
F0.01
sI78
F0.01
sI82
F0.01
sI111
F0.01
ssg6
(dp25
I1
F0.08
sI2
F0.84
sI3
F0.06
sI4
F0.02
ssssI2
(dp26
g2
(dp27
g4
(dp28
F0.0
F0.01
sF0.066
F0.03
sF0.044
F0.02
sF0.045
F0.02
sF0.038
F0.04
sF0.041999999999999996
F0.01
sF0.095
F0.01
sF0.06
F0.01
sF0.153
F0.01
sF0.009999999999999998
F0.02
sF0.102
F0.01
sF0.062
F0.02
sF0.026
F0.02
sF0.033
F0.03
sF0.015
F0.01
sF0.065
F0.01
sF0.019
F0.02
sF0.087
F0.01
sF0.049
F0.02
sF0.109
F0.02
sF0.03
F0.02
sF0.088
F0.01
sF0.059
F0.02
sF0.009000000000000001
F0.01
sF0.047
F0.01
sF0.028999999999999998
F0.02
sF0.036
F0.03
sF0.068
F0.01
sF0.079
F0.01
sF0.09
F0.01
sF0.032
F0.02
sF0.056
F0.01
sF0.06999999999999999
F0.01
sF0.027
F0.01
sF0.064
F0.02
sF0.016
F0.01
sF0.075
F0.02
sF0.054
F0.03
sF0.051
F0.01
sF0.057999999999999996
F0.02
sF0.071
F0.01
sF0.052
F0.02
sF0.115
F0.01
sF0.127
F0.01
sF0.039
F0.04
sF0.024999999999999998
F0.04
sF0.049999999999999996
F0.02
sF0.018
F0.01
sF0.061
F0.01
sF0.037
F0.01
sF0.048
F0.01
sF0.020999999999999998
F0.01
sF0.022
F0.03
sF0.076
F0.04
sF0.034999999999999996
F0.02
sF0.012
F0.01
sF0.046
F0.01
sF0.057
F0.03
ssg6
(dp29
F0.0
F1.0
sssg8
(dp30
g4
(dp31
I1
F0.04181818181818182
sI2
F0.45535353535353534
sI3
F0.5026262626262626
sI4
F0.00020202020202020202
ssg6
(dp32
I1
F0.020606060606060607
sI2
F0.023232323232323233
sI3
F0.025656565656565655
sI4
F0.027676767676767678
sI5
F0.030505050505050504
sI6
F0.03373737373737374
sI7
F0.036565656565656565
sI8
F0.039595959595959594
sI9
F0.04303030303030303
sI10
F0.04686868686868687
sI11
F0.051111111111111114
sI12
F0.050101010101010104
sI13
F0.044848484848484846
sI14
F0.04323232323232323
sI15
F0.04424242424242424
sI16
F0.044444444444444446
sI17
F0.04464646464646465
sI18
F0.045454545454545456
sI19
F0.04565656565656566
sI20
F0.044848484848484846
sI21
F0.044444444444444446
sI22
F0.0301010101010101
sI23
F0.022424242424242423
sI24
F0.020202020202020204
sI25
F0.017575757575757574
sI26
F0.01494949494949495
sI27
F0.01292929292929293
sI28
F0.011111111111111112
sI29
F0.00909090909090909
sI30
F0.007676767676767677
sI31
F0.006666666666666667
sI32
F0.005050505050505051
sI33
F0.00404040404040404
sI34
F0.0032323232323232323
sI35
F0.00202020202020202
sI36
F0.0012121212121212121
sI37
F0.0008080808080808081
sI38
F0.00040404040404040404
sssg12
(dp33
g4
(dp34
I10
F0.07
sI11
F0.07
sI12
F0.06
sI13
F0.11
sI14
F0.08
sI15
F0.09
sI16
F0.03
sI17
F0.02
sI18
F0.04
sI19
F0.01
sI20
F0.05
sI21
F0.02
sI23
F0.04
sI24
F0.01
sI25
F0.02
sI26
F0.05
sI27
F0.01
sI28
F0.02
sI30
F0.01
sI33
F0.02
sI35
F0.02
sI38
F0.01
sI40
F0.01
sI41
F0.03
sI44
F0.01
sI46
F0.01
sI47
F0.01
sI51
F0.01
sI61
F0.01
sI63
F0.01
sI76
F0.01
sI95
F0.01
sI96
F0.01
sI111
F0.01
ssg6
(dp35
I1
F0.05
sI2
F0.88
sI3
F0.05
sI4
F0.02
ssss.