(dp0
I0
(dp1
S'clustering coefficient'
p2
(dp3
S'Backend Query'
p4
(dp5
F0.0
F0.019801980198019802
sF0.016999999999999998
F0.019801980198019802
sF0.013999999999999999
F0.0594059405940594
sF0.033
F0.009900990099009901
sF0.011
F0.019801980198019802
sF0.020999999999999998
F0.06930693069306931
sF0.03
F0.019801980198019802
sF0.007
F0.0297029702970297
sF0.009999999999999998
F0.06930693069306931
sF0.031
F0.04950495049504951
sF0.026
F0.039603960396039604
sF0.012
F0.019801980198019802
sF0.019
F0.09900990099009901
sF0.087
F0.009900990099009901
sF0.015
F0.0297029702970297
sF0.022
F0.009900990099009901
sF0.036
F0.009900990099009901
sF0.028999999999999998
F0.009900990099009901
sF0.009000000000000001
F0.019801980198019802
sF0.034
F0.019801980198019802
sF0.004
F0.019801980198019802
sF0.028
F0.0594059405940594
sF0.032
F0.009900990099009901
sF0.008
F0.0297029702970297
sF0.016
F0.009900990099009901
sF0.013000000000000001
F0.039603960396039604
sF0.005
F0.039603960396039604
sF0.039
F0.009900990099009901
sF0.024999999999999998
F0.019801980198019802
sF0.003
F0.009900990099009901
sF0.038
F0.019801980198019802
sF0.006
F0.019801980198019802
sF0.034999999999999996
F0.019801980198019802
sF0.024
F0.009900990099009901
sF0.023
F0.04950495049504951
ssS'Frontend Query'
p6
(dp7
F0.0
F1.0
sssS'path length'
p8
(dp9
g4
(dp10
I1
F0.0297029702970297
sI2
F0.3613861386138614
sI3
F0.6081188118811881
sI4
F0.0007920792079207921
ssg6
(dp11
I1
F0.8571428571428571
sI2
F0.12698412698412698
sI3
F0.015873015873015872
sssS'degree'
p12
(dp13
g4
(dp14
I11
F0.009900990099009901
sI12
F0.009900990099009901
sI13
F0.009900990099009901
sI14
F0.019801980198019802
sI15
F0.04950495049504951
sI16
F0.039603960396039604
sI17
F0.04950495049504951
sI18
F0.06930693069306931
sI19
F0.06930693069306931
sI20
F0.0891089108910891
sI21
F0.10891089108910891
sI22
F0.06930693069306931
sI23
F0.09900990099009901
sI24
F0.07920792079207921
sI25
F0.0594059405940594
sI26
F0.019801980198019802
sI27
F0.039603960396039604
sI28
F0.04950495049504951
sI29
F0.0297029702970297
sI31
F0.009900990099009901
sI34
F0.009900990099009901
sI35
F0.009900990099009901
ssg6
(dp15
I1
F0.9405940594059405
sI2
F0.04950495049504951
sI3
F0.009900990099009901
ssssI1
(dp16
g2
(dp17
g4
(dp18
F0.0
F0.01
sF0.034
F0.01
sF0.011
F0.04
sF0.020999999999999998
F0.05
sF0.028
F0.04
sF0.03
F0.02
sF0.013999999999999999
F0.05
sF0.005
F0.06
sF0.051
F0.01
sF0.031
F0.01
sF0.012
F0.03
sF0.019
F0.07
sF0.015
F0.03
sF0.022
F0.02
sF0.009000000000000001
F0.04
sF0.028999999999999998
F0.01
sF0.016999999999999998
F0.05
sF0.045
F0.01
sF0.008
F0.03
sF0.007
F0.06
sF0.004
F0.02
sF0.032
F0.02
sF0.027
F0.02
sF0.009999999999999998
F0.04
sF0.041
F0.01
sF0.026
F0.03
sF0.04
F0.01
sF0.039
F0.02
sF0.024999999999999998
F0.03
sF0.006
F0.04
sF0.044
F0.01
sF0.038
F0.01
sF0.034999999999999996
F0.03
sF0.024
F0.02
sF0.023
F0.04
ssg6
(dp19
F0.0
F1.0
sssg8
(dp20
g4
(dp21
I1
F0.02707070707070707
sI2
F0.3484848484848485
sI3
F0.6236363636363637
sI4
F0.0008080808080808081
ssg6
(dp22
I1
F0.8688524590163934
sI2
F0.09836065573770492
sI3
F0.03278688524590164
sssg12
(dp23
g4
(dp24
I34
F0.01
sI12
F0.02
sI13
F0.01
sI14
F0.01
sI15
F0.04
sI16
F0.04
sI17
F0.07
sI18
F0.08
sI19
F0.11
sI20
F0.08
sI21
F0.1
sI22
F0.07
sI23
F0.14
sI24
F0.04
sI25
F0.03
sI26
F0.07
sI27
F0.03
sI28
F0.03
sI29
F0.01
sI30
F0.01
ssg6
(dp25
I1
F0.94
sI2
F0.06
ssssI2
(dp26
g2
(dp27
g4
(dp28
F0.0
F0.02
sF0.016999999999999998
F0.05
sF0.013999999999999999
F0.06
sF0.033
F0.02
sF0.011
F0.02
sF0.020999999999999998
F0.06
sF0.03
F0.01
sF0.028
F0.03
sF0.009999999999999998
F0.04
sF0.031
F0.01
sF0.026
F0.04
sF0.003
F0.01
sF0.065
F0.01
sF0.019
F0.04
sF0.015
F0.1
sF0.022
F0.02
sF0.04
F0.01
sF0.047
F0.01
sF0.028999999999999998
F0.03
sF0.009000000000000001
F0.01
sF0.034
F0.02
sF0.008
F0.06
sF0.007
F0.04
sF0.032
F0.01
sF0.004
F0.01
sF0.016
F0.02
sF0.013000000000000001
F0.03
sF0.018
F0.03
sF0.005
F0.02
sF0.039
F0.01
sF0.024999999999999998
F0.01
sF0.012
F0.06
sF0.041999999999999996
F0.01
sF0.038
F0.02
sF0.023
F0.05
ssg6
(dp29
F0.0
F1.0
sssg8
(dp30
g4
(dp31
I1
F0.03191919191919192
sI2
F0.3622222222222222
sI3
F0.6046464646464647
sI4
F0.0012121212121212121
ssg6
(dp32
I1
F0.84375
sI2
F0.125
sI3
F0.03125
sssg12
(dp33
g4
(dp34
I32
F0.01
sI35
F0.01
sI12
F0.01
sI13
F0.03
sI14
F0.01
sI15
F0.02
sI16
F0.04
sI17
F0.06
sI18
F0.06
sI19
F0.06
sI20
F0.09
sI21
F0.09
sI22
F0.11
sI23
F0.08
sI24
F0.08
sI25
F0.05
sI26
F0.05
sI27
F0.06
sI28
F0.03
sI29
F0.02
sI31
F0.03
ssg6
(dp35
I1
F0.92
sI2
F0.08
ssss.