(dp0
I0
(dp1
S'clustering coefficient'
p2
(dp3
S'Backend Query'
p4
(dp5
F0.0
F0.03
sF0.033
F0.01
sF0.011
F0.05
sF0.020999999999999998
F0.03
sF0.015
F0.09
sF0.013999999999999999
F0.03
sF0.009999999999999998
F0.05
sF0.031
F0.02
sF0.026
F0.02
sF0.012
F0.02
sF0.038
F0.01
sF0.03
F0.02
sF0.022
F0.05
sF0.04
F0.01
sF0.047
F0.01
sF0.028999999999999998
F0.03
sF0.036
F0.01
sF0.034
F0.04
sF0.016
F0.04
sF0.028
F0.02
sF0.032
F0.01
sF0.008
F0.07
sF0.043
F0.01
sF0.027
F0.02
sF0.013000000000000001
F0.04
sF0.018
F0.02
sF0.005
F0.02
sF0.039
F0.01
sF0.024999999999999998
F0.05
sF0.009000000000000001
F0.03
sF0.006
F0.02
sF0.041999999999999996
F0.01
sF0.044
F0.01
sF0.019
F0.05
sF0.034999999999999996
F0.02
sF0.003
F0.01
sF0.023
F0.01
ssS'Frontend Query'
p6
(dp7
F0.0
F1.0
sssS'path length'
p8
(dp9
g4
(dp10
I1
F0.021414141414141413
sI2
F0.3327272727272727
sI3
F0.6450505050505051
sI4
F0.0008080808080808081
ssg6
(dp11
I0
I1
sssS'degree'
p12
(dp13
g4
(dp14
I11
F0.01
sI13
F0.03
sI14
F0.04
sI15
F0.04
sI16
F0.1
sI17
F0.03
sI18
F0.07
sI19
F0.07
sI20
F0.14
sI21
F0.1
sI22
F0.09
sI23
F0.1
sI24
F0.05
sI25
F0.02
sI26
F0.03
sI28
F0.05
sI29
F0.03
ssg6
(dp15
I0
F1.0
ssssI1
(dp16
g2
(dp17
g4
(dp18
F0.0
F0.03
sF0.016999999999999998
F0.01
sF0.066
F0.01
sF0.011
F0.04
sF0.041999999999999996
F0.02
sF0.007
F0.01
sF0.028
F0.05
sF0.04
F0.01
sF0.031
F0.02
sF0.026
F0.02
sF0.033
F0.01
sF0.012
F0.02
sF0.019
F0.14
sF0.015
F0.06
sF0.024
F0.01
sF0.022
F0.01
sF0.005
F0.01
sF0.047
F0.01
sF0.028999999999999998
F0.03
sF0.036
F0.03
sF0.034
F0.02
sF0.045
F0.01
sF0.032
F0.01
sF0.013999999999999999
F0.06
sF0.016
F0.03
sF0.004
F0.01
sF0.027
F0.03
sF0.009999999999999998
F0.05
sF0.013000000000000001
F0.02
sF0.018
F0.03
sF0.02
F0.01
sF0.024999999999999998
F0.03
sF0.009000000000000001
F0.03
sF0.003
F0.01
sF0.020999999999999998
F0.03
sF0.038
F0.01
sF0.034999999999999996
F0.01
sF0.006
F0.01
sF0.023
F0.04
ssg6
(dp19
F0.0
F1.0
sssg8
(dp20
g4
(dp21
I1
F0.01898989898989899
sI2
F0.3327272727272727
sI3
F0.6478787878787878
sI4
F0.00040404040404040404
ssg6
(dp22
I0
I1
sssg12
(dp23
g4
(dp24
I34
F0.01
sI10
F0.01
sI12
F0.01
sI13
F0.02
sI14
F0.03
sI15
F0.08
sI16
F0.04
sI17
F0.05
sI18
F0.11
sI19
F0.08
sI20
F0.1
sI21
F0.11
sI22
F0.06
sI23
F0.05
sI24
F0.08
sI25
F0.07
sI26
F0.03
sI27
F0.03
sI28
F0.01
sI29
F0.01
sI30
F0.01
ssg6
(dp25
I0
F1.0
ssssI2
(dp26
g2
(dp27
g4
(dp28
F0.0
F0.03
sF0.034
F0.01
sF0.033
F0.01
sF0.011
F0.04
sF0.020999999999999998
F0.08
sF0.007
F0.02
sF0.013999999999999999
F0.02
sF0.009999999999999998
F0.02
sF0.012
F0.01
sF0.019
F0.07
sF0.015
F0.06
sF0.022
F0.01
sF0.005
F0.01
sF0.047
F0.01
sF0.028999999999999998
F0.01
sF0.036
F0.03
sF0.016999999999999998
F0.07
sF0.045
F0.01
sF0.032
F0.01
sF0.028
F0.07
sF0.016
F0.03
sF0.008
F0.03
sF0.027
F0.05
sF0.026
F0.05
sF0.018
F0.02
sF0.04
F0.01
sF0.039
F0.01
sF0.024999999999999998
F0.05
sF0.02
F0.01
sF0.009000000000000001
F0.03
sF0.006
F0.03
sF0.041999999999999996
F0.01
sF0.038
F0.01
sF0.034999999999999996
F0.02
sF0.023
F0.04
ssg6
(dp29
F0.0
F1.0
sssg8
(dp30
g4
(dp31
I1
F0.021212121212121213
sI2
F0.32565656565656564
sI3
F0.6527272727272727
sI4
F0.00040404040404040404
ssg6
(dp32
I0
I1
sssg12
(dp33
g4
(dp34
I35
F0.01
sI12
F0.02
sI14
F0.02
sI15
F0.07
sI16
F0.08
sI17
F0.04
sI18
F0.09
sI19
F0.09
sI20
F0.12
sI21
F0.08
sI22
F0.08
sI23
F0.12
sI24
F0.07
sI25
F0.02
sI26
F0.02
sI27
F0.04
sI29
F0.01
sI30
F0.02
ssg6
(dp35
I0
F1.0
ssss.