(dp0
I0
(dp1
S'clustering coefficient'
p2
(dp3
S'Backend Query'
p4
(dp5
F0.0
F0.0297029702970297
sF0.034
F0.009900990099009901
sF0.033
F0.009900990099009901
sF0.011
F0.0594059405940594
sF0.020999999999999998
F0.06930693069306931
sF0.028
F0.039603960396039604
sF0.03
F0.009900990099009901
sF0.013999999999999999
F0.0297029702970297
sF0.005
F0.039603960396039604
sF0.031
F0.019801980198019802
sF0.026
F0.039603960396039604
sF0.006
F0.0297029702970297
sF0.019
F0.07920792079207921
sF0.015
F0.04950495049504951
sF0.022
F0.019801980198019802
sF0.018
F0.039603960396039604
sF0.028999999999999998
F0.009900990099009901
sF0.009000000000000001
F0.0297029702970297
sF0.016999999999999998
F0.0297029702970297
sF0.016
F0.009900990099009901
sF0.007
F0.019801980198019802
sF0.032
F0.0297029702970297
sF0.004
F0.009900990099009901
sF0.027
F0.0297029702970297
sF0.009999999999999998
F0.07920792079207921
sF0.041
F0.009900990099009901
sF0.013000000000000001
F0.009900990099009901
sF0.064
F0.009900990099009901
sF0.02
F0.009900990099009901
sF0.039
F0.019801980198019802
sF0.049999999999999996
F0.009900990099009901
sF0.024999999999999998
F0.019801980198019802
sF0.012
F0.0297029702970297
sF0.003
F0.009900990099009901
sF0.023
F0.039603960396039604
sF0.008
F0.009900990099009901
ssS'Frontend Query'
p6
(dp7
F0.0
F1.0
sssS'path length'
p8
(dp9
g4
(dp10
I1
F0.03643564356435643
sI2
F0.35504950495049503
sI3
F0.6073267326732673
sI4
F0.001188118811881188
ssg6
(dp11
I1
F0.02144659377628259
sI2
F0.027544154751892348
sI3
F0.033010933557611435
sI4
F0.03784693019343986
sI5
F0.04142136248948696
sI6
F0.04373423044575273
sI7
F0.04646761984861228
sI8
F0.0496215306980656
sI9
F0.05298570227081581
sI10
F0.05382674516400336
sI11
F0.051934398654331373
sI12
F0.05067283431455004
sI13
F0.04373423044575273
sI14
F0.04015979814970563
sI15
F0.03763666947014298
sI16
F0.0355340622371741
sI17
F0.033010933557611435
sI18
F0.031118587047939444
sI19
F0.029857022708158116
sI20
F0.028805719091673676
sI21
F0.029226240538267452
sI22
F0.029857022708158116
sI23
F0.02943650126156434
sI24
F0.026703111858704793
sI25
F0.023549201009251473
sI26
F0.019764507989907486
sI27
F0.016190075693860388
sI28
F0.0124053826745164
sI29
F0.00904121110176619
sI30
F0.006307821698906644
sI31
F0.003994953742640875
sI32
F0.0021026072329688814
sI33
F0.0008410428931875525
sI34
F0.00021026072329688813
sssS'degree'
p12
(dp13
g4
(dp14
I10
F0.019801980198019802
sI12
F0.009900990099009901
sI13
F0.019801980198019802
sI15
F0.04950495049504951
sI16
F0.04950495049504951
sI17
F0.0297029702970297
sI18
F0.10891089108910891
sI19
F0.0594059405940594
sI20
F0.10891089108910891
sI21
F0.0297029702970297
sI22
F0.09900990099009901
sI23
F0.1188118811881188
sI24
F0.07920792079207921
sI25
F0.0594059405940594
sI26
F0.04950495049504951
sI27
F0.04950495049504951
sI28
F0.04950495049504951
sI30
F0.009900990099009901
ssg6
(dp15
I1
F0.15841584158415842
sI2
F0.7227722772277227
sI3
F0.0891089108910891
sI4
F0.009900990099009901
sI5
F0.009900990099009901
sI6
F0.009900990099009901
ssssI1
(dp16
g2
(dp17
g4
(dp18
F0.0
F0.00980392156862745
sF0.034
F0.0196078431372549
sF0.033
F0.00980392156862745
sF0.011
F0.029411764705882353
sF0.020999999999999998
F0.0392156862745098
sF0.028
F0.00980392156862745
sF0.03
F0.029411764705882353
sF0.013999999999999999
F0.049019607843137254
sF0.009999999999999998
F0.049019607843137254
sF0.031
F0.00980392156862745
sF0.026
F0.00980392156862745
sF0.012
F0.0196078431372549
sF0.019
F0.13725490196078433
sF0.015
F0.0392156862745098
sF0.022
F0.0392156862745098
sF0.009000000000000001
F0.0196078431372549
sF0.028999999999999998
F0.0196078431372549
sF0.018
F0.00980392156862745
sF0.016999999999999998
F0.049019607843137254
sF0.045
F0.00980392156862745
sF0.016
F0.058823529411764705
sF0.007
F0.0196078431372549
sF0.004
F0.00980392156862745
sF0.032
F0.00980392156862745
sF0.027
F0.0196078431372549
sF0.013000000000000001
F0.049019607843137254
sF0.036
F0.00980392156862745
sF0.005
F0.0196078431372549
sF0.039
F0.00980392156862745
sF0.024999999999999998
F0.0392156862745098
sF0.003
F0.00980392156862745
sF0.044
F0.00980392156862745
sF0.038
F0.0196078431372549
sF0.006
F0.0196078431372549
sF0.034999999999999996
F0.0196078431372549
sF0.024
F0.029411764705882353
sF0.023
F0.0196078431372549
sF0.008
F0.0196078431372549
ssg6
(dp19
F0.0
F1.0
sssg8
(dp20
g4
(dp21
I1
F0.038245000970685304
sI2
F0.3356629780625121
sI3
F0.6249271986022131
sI4
F0.0011648223645894002
ssg6
(dp22
I1
F0.0217433508056688
sI2
F0.033197437390797904
sI3
F0.047369442826635605
sI4
F0.0681421083284799
sI5
F0.093185789167152
sI6
F0.11124053581828772
sI7
F0.1267715006794797
sI8
F0.12774218598330422
sI9
F0.11259949524364202
sI10
F0.0924092409240924
sI11
F0.0654241894777713
sI12
F0.041351193942923706
sI13
F0.026790914385556204
sI14
F0.016113376043486703
sI15
F0.0091244418559503
sI16
F0.0044651523975927
sI17
F0.0017472335468841002
sI18
F0.0005824111822947001
sssg12
(dp23
g4
(dp24
I34
F0.00980392156862745
sI35
F0.00980392156862745
sI10
F0.00980392156862745
sI11
F0.00980392156862745
sI13
F0.029411764705882353
sI14
F0.0392156862745098
sI15
F0.0392156862745098
sI16
F0.0784313725490196
sI17
F0.049019607843137254
sI18
F0.09803921568627451
sI19
F0.09803921568627451
sI20
F0.058823529411764705
sI21
F0.06862745098039216
sI22
F0.08823529411764706
sI23
F0.0784313725490196
sI24
F0.049019607843137254
sI25
F0.029411764705882353
sI26
F0.058823529411764705
sI27
F0.029411764705882353
sI28
F0.0392156862745098
sI29
F0.029411764705882353
ssg6
(dp25
I1
F0.14705882352941177
sI2
F0.6274509803921569
sI3
F0.12745098039215685
sI4
F0.0784313725490196
sI5
F0.0196078431372549
ssssI2
(dp26
g2
(dp27
g4
(dp28
F0.0
F0.0297029702970297
sF0.034
F0.009900990099009901
sF0.066
F0.009900990099009901
sF0.011
F0.0297029702970297
sF0.020999999999999998
F0.07920792079207921
sF0.007
F0.009900990099009901
sF0.013999999999999999
F0.019801980198019802
sF0.005
F0.0297029702970297
sF0.031
F0.0297029702970297
sF0.026
F0.019801980198019802
sF0.033
F0.009900990099009901
sF0.012
F0.019801980198019802
sF0.019
F0.04950495049504951
sF0.023
F0.04950495049504951
sF0.015
F0.009900990099009901
sF0.022
F0.019801980198019802
sF0.018
F0.039603960396039604
sF0.047
F0.009900990099009901
sF0.028999999999999998
F0.06930693069306931
sF0.036
F0.0297029702970297
sF0.016999999999999998
F0.04950495049504951
sF0.032
F0.009900990099009901
sF0.028
F0.04950495049504951
sF0.008
F0.019801980198019802
sF0.016
F0.009900990099009901
sF0.027
F0.039603960396039604
sF0.009999999999999998
F0.0594059405940594
sF0.013000000000000001
F0.0297029702970297
sF0.004
F0.009900990099009901
sF0.04
F0.0297029702970297
sF0.039
F0.009900990099009901
sF0.024999999999999998
F0.009900990099009901
sF0.02
F0.009900990099009901
sF0.009000000000000001
F0.019801980198019802
sF0.024
F0.019801980198019802
sF0.041999999999999996
F0.009900990099009901
sF0.044
F0.009900990099009901
sF0.006
F0.009900990099009901
sF0.046
F0.019801980198019802
ssg6
(dp29
F0.0
F1.0
sssg8
(dp30
g4
(dp31
I1
F0.03881188118811881
sI2
F0.36277227722772276
sI3
F0.5976237623762376
sI4
F0.0007920792079207921
ssg6
(dp32
I1
F0.021386138613861388
sI2
F0.030297029702970296
sI3
F0.04099009900990099
sI4
F0.05465346534653465
sI5
F0.0702970297029703
sI6
F0.08534653465346535
sI7
F0.10178217821782178
sI8
F0.11148514851485149
sI9
F0.10613861386138614
sI10
F0.09960396039603961
sI11
F0.08198019801980198
sI12
F0.06396039603960396
sI13
F0.048712871287128715
sI14
F0.03504950495049505
sI15
F0.02198019801980198
sI16
F0.013465346534653465
sI17
F0.007326732673267326
sI18
F0.0033663366336633663
sI19
F0.001386138613861386
sI20
F0.000594059405940594
sI21
F0.00019801980198019803
sssg12
(dp33
g4
(dp34
I32
F0.009900990099009901
sI12
F0.019801980198019802
sI13
F0.0297029702970297
sI14
F0.019801980198019802
sI15
F0.0297029702970297
sI16
F0.0297029702970297
sI17
F0.04950495049504951
sI18
F0.04950495049504951
sI19
F0.12871287128712872
sI20
F0.0594059405940594
sI21
F0.06930693069306931
sI22
F0.07920792079207921
sI23
F0.0891089108910891
sI24
F0.12871287128712872
sI25
F0.0594059405940594
sI26
F0.0297029702970297
sI27
F0.04950495049504951
sI28
F0.039603960396039604
sI29
F0.019801980198019802
sI31
F0.009900990099009901
ssg6
(dp35
I1
F0.13861386138613863
sI2
F0.6633663366336634
sI3
F0.13861386138613863
sI4
F0.039603960396039604
sI5
F0.019801980198019802
ssss.