(dp0
I0
(dp1
S'clustering coefficient'
p2
(dp3
S'Backend Query'
p4
(dp5
F0.0
F0.01
sF0.034
F0.01
sF0.066
F0.01
sF0.077
F0.01
sF0.088
F0.01
sF0.055
F0.01
sF0.12
F0.01
sF0.073
F0.02
sF0.084
F0.01
sF0.03
F0.01
sF0.153
F0.01
sF0.054
F0.02
sF0.069
F0.01
sF0.04
F0.01
sF0.051
F0.02
sF0.062
F0.01
sF0.145
F0.01
sF0.048
F0.02
sF0.065
F0.01
sF0.038
F0.01
sF0.087
F0.01
sF0.049
F0.02
sF0.109
F0.03
sF0.015
F0.01
sF0.044
F0.01
sF0.059
F0.03
sF0.072
F0.01
sF0.083
F0.01
sF0.047
F0.03
sF0.057999999999999996
F0.02
sF0.043
F0.03
sF0.036
F0.04
sF0.016999999999999998
F0.02
sF0.079
F0.01
sF0.09
F0.05
sF0.10099999999999999
F0.01
sF0.028
F0.02
sF0.166
F0.01
sF0.031
F0.01
sF0.064
F0.01
sF0.075
F0.03
sF0.086
F0.01
sF0.027
F0.01
sF0.028999999999999998
F0.01
sF0.039
F0.01
sF0.052
F0.04
sF0.127
F0.01
sF0.089
F0.01
sF0.078
F0.01
sF0.024999999999999998
F0.02
sF0.049999999999999996
F0.02
sF0.111
F0.01
sF0.061
F0.02
sF0.063
F0.01
sF0.06
F0.03
sF0.08499999999999999
F0.01
sF0.012
F0.01
sF0.041999999999999996
F0.01
sF0.133
F0.01
sF0.057
F0.01
sF0.022
F0.03
sF0.076
F0.02
sF0.034999999999999996
F0.01
sF0.114
F0.01
ssS'Frontend Query'
p6
(dp7
F0.0
F1.0
sssS'path length'
p8
(dp9
g4
(dp10
I1
F0.06080808080808081
sI2
F0.541010101010101
sI3
F0.397979797979798
sI4
F0.00020202020202020202
ssg6
(dp11
I1
F0.021616161616161617
sI2
F0.029696969696969697
sI3
F0.03898989898989899
sI4
F0.04626262626262626
sI5
F0.056767676767676765
sI6
F0.06606060606060606
sI7
F0.07393939393939394
sI8
F0.0802020202020202
sI9
F0.08484848484848485
sI10
F0.08525252525252525
sI11
F0.07717171717171717
sI12
F0.07090909090909091
sI13
F0.06505050505050505
sI14
F0.05757575757575758
sI15
F0.04606060606060606
sI16
F0.03414141414141414
sI17
F0.024242424242424242
sI18
F0.015353535353535354
sI19
F0.011515151515151515
sI20
F0.00787878787878788
sI21
F0.0048484848484848485
sI22
F0.0016161616161616162
sssS'degree'
p12
(dp13
g4
(dp14
I132
F0.01
sI10
F0.07
sI11
F0.11
sI12
F0.09
sI13
F0.08
sI14
F0.07
sI15
F0.04
sI16
F0.02
sI17
F0.01
sI18
F0.02
sI19
F0.03
sI21
F0.02
sI22
F0.04
sI23
F0.04
sI24
F0.03
sI25
F0.01
sI26
F0.03
sI28
F0.01
sI33
F0.02
sI163
F0.01
sI37
F0.02
sI38
F0.01
sI39
F0.01
sI41
F0.01
sI170
F0.01
sI44
F0.02
sI46
F0.04
sI47
F0.01
sI51
F0.01
sI59
F0.01
sI64
F0.01
sI65
F0.01
sI67
F0.01
sI79
F0.01
sI82
F0.01
sI35
F0.01
sI111
F0.01
sI124
F0.01
sI125
F0.01
ssg6
(dp15
I1
F0.06
sI2
F0.83
sI3
F0.05
sI4
F0.04
sI5
F0.01
sI6
F0.01
ssssI1
(dp16
g2
(dp17
g4
(dp18
F0.0
F0.03
sF0.136
F0.01
sF0.066
F0.06
sF0.077
F0.01
sF0.044
F0.03
sF0.055
F0.01
sF0.121
F0.01
sF0.073
F0.01
sF0.041999999999999996
F0.01
sF0.03
F0.01
sF0.153
F0.01
sF0.219
F0.01
sF0.051
F0.04
sF0.113
F0.01
sF0.062
F0.01
sF0.033
F0.01
sF0.065
F0.01
sF0.038
F0.04
sF0.023
F0.01
sF0.06
F0.02
sF0.022
F0.02
sF0.036
F0.01
sF0.166
F0.01
sF0.047
F0.02
sF0.057999999999999996
F0.02
sF0.068
F0.01
sF0.102
F0.01
sF0.045
F0.03
sF0.032
F0.01
sF0.028
F0.01
sF0.078
F0.02
sF0.064
F0.02
sF0.075
F0.02
sF0.043
F0.05
sF0.054
F0.01
sF0.071
F0.01
sF0.041
F0.01
sF0.052
F0.03
sF0.127
F0.01
sF0.067
F0.02
sF0.039
F0.03
sF0.2
F0.02
sF0.049999999999999996
F0.02
sF0.061
F0.01
sF0.092
F0.01
sF0.063
F0.02
sF0.037
F0.01
sF0.08499999999999999
F0.01
sF0.024
F0.01
sF0.059
F0.02
sF0.133
F0.01
sF0.155
F0.01
sF0.076
F0.04
sF0.034999999999999996
F0.01
sF0.046
F0.01
sF0.057
F0.05
ssg6
(dp19
F0.0
F0.97
sF0.9999999999999999
F0.02
sF0.047
F0.01
sssg8
(dp20
g4
(dp21
I1
F0.07717171717171717
sI2
F0.5844444444444444
sI3
F0.337979797979798
sI4
F0.00040404040404040404
ssg6
(dp22
I1
F0.021414141414141413
sI2
F0.02909090909090909
sI3
F0.035555555555555556
sI4
F0.0397979797979798
sI5
F0.042828282828282827
sI6
F0.04767676767676768
sI7
F0.05454545454545454
sI8
F0.06161616161616162
sI9
F0.06121212121212121
sI10
F0.057373737373737375
sI11
F0.0602020202020202
sI12
F0.06121212121212121
sI13
F0.059393939393939395
sI14
F0.05353535353535353
sI15
F0.045454545454545456
sI16
F0.04202020202020202
sI17
F0.0397979797979798
sI18
F0.035555555555555556
sI19
F0.03212121212121212
sI20
F0.02727272727272727
sI21
F0.021414141414141413
sI22
F0.01696969696969697
sI23
F0.013131313131313131
sI24
F0.010101010101010102
sI25
F0.00787878787878788
sI26
F0.006464646464646465
sI27
F0.0048484848484848485
sI28
F0.0036363636363636364
sI29
F0.0030303030303030303
sI30
F0.0022222222222222222
sI31
F0.0014141414141414141
sI32
F0.0008080808080808081
sI33
F0.00040404040404040404
sssg12
(dp23
g4
(dp24
I132
F0.01
sI10
F0.1
sI11
F0.01
sI12
F0.07
sI13
F0.06
sI142
F0.01
sI15
F0.09
sI16
F0.02
sI17
F0.05
sI18
F0.02
sI20
F0.02
sI21
F0.01
sI22
F0.01
sI23
F0.02
sI25
F0.04
sI26
F0.01
sI27
F0.02
sI29
F0.02
sI159
F0.01
sI32
F0.02
sI33
F0.01
sI163
F0.01
sI36
F0.03
sI37
F0.02
sI41
F0.03
sI51
F0.01
sI52
F0.01
sI57
F0.01
sI58
F0.01
sI61
F0.01
sI64
F0.01
sI65
F0.02
sI81
F0.02
sI82
F0.01
sI35
F0.02
sI14
F0.08
sI86
F0.02
sI93
F0.01
sI95
F0.01
sI111
F0.01
sI124
F0.01
sI125
F0.01
ssg6
(dp25
I1
F0.09
sI2
F0.79
sI3
F0.07
sI4
F0.03
sI5
F0.01
sI7
F0.01
ssssI2
(dp26
g2
(dp27
g4
(dp28
F0.034
F0.01
sF0.066
F0.02
sF0.077
F0.01
sF0.088
F0.01
sF0.04
F0.01
sF0.055
F0.01
sF0.121
F0.01
sF0.09
F0.03
sF0.073
F0.01
sF0.041999999999999996
F0.02
sF0.095
F0.01
sF0.106
F0.01
sF0.028
F0.01
sF0.054
F0.04
sF0.136
F0.01
sF0.009999999999999998
F0.01
sF0.091
F0.02
sF0.051
F0.02
sF0.062
F0.02
sF0.145
F0.01
sF0.06
F0.02
sF0.065
F0.01
sF0.076
F0.02
sF0.049
F0.03
sF0.109
F0.02
sF0.015
F0.01
sF0.022
F0.01
sF0.072
F0.01
sF0.083
F0.02
sF0.047
F0.02
sF0.057999999999999996
F0.03
sF0.036
F0.02
sF0.068
F0.01
sF0.079
F0.01
sF0.045
F0.03
sF0.10099999999999999
F0.01
sF0.056
F0.01
sF0.031
F0.01
sF0.018
F0.01
sF0.064
F0.01
sF0.032
F0.01
sF0.043
F0.03
sF0.027
F0.01
sF0.028999999999999998
F0.01
sF0.041
F0.01
sF0.052
F0.02
sF0.06999999999999999
F0.03
sF0.089
F0.02
sF0.02
F0.01
sF0.067
F0.01
sF0.039
F0.01
sF0.2
F0.01
sF0.049999999999999996
F0.02
sF0.111
F0.02
sF0.061
F0.02
sF0.222
F0.01
sF0.08499999999999999
F0.01
sF0.048
F0.01
sF0.020999999999999998
F0.01
sF0.133
F0.01
sF0.044
F0.04
sF0.038
F0.02
sF0.034999999999999996
F0.01
sF0.046
F0.01
sF0.057
F0.01
ssg6
(dp29
F0.0
F1.0
sssg8
(dp30
g4
(dp31
I1
F0.06282828282828283
sI2
F0.5668686868686869
sI3
F0.3701010101010101
sI4
F0.00020202020202020202
ssg6
(dp32
I1
F0.020808080808080807
sI2
F0.025454545454545455
sI3
F0.027878787878787878
sI4
F0.030505050505050504
sI5
F0.03313131313131313
sI6
F0.03636363636363636
sI7
F0.039595959595959594
sI8
F0.044444444444444446
sI9
F0.047474747474747475
sI10
F0.05171717171717172
sI11
F0.058383838383838385
sI12
F0.06080808080808081
sI13
F0.05757575757575758
sI14
F0.05919191919191919
sI15
F0.06
sI16
F0.05555555555555555
sI17
F0.05616161616161616
sI18
F0.04808080808080808
sI19
F0.0397979797979798
sI20
F0.030707070707070707
sI21
F0.026464646464646465
sI22
F0.020404040404040404
sI23
F0.016565656565656565
sI24
F0.014141414141414142
sI25
F0.011515151515151515
sI26
F0.009292929292929294
sI27
F0.007474747474747475
sI28
F0.005454545454545455
sI29
F0.0028282828282828283
sI30
F0.0014141414141414141
sI31
F0.0006060606060606061
sI32
F0.00020202020202020202
sssg12
(dp33
g4
(dp34
I132
F0.01
sI136
F0.01
sI10
F0.09
sI11
F0.08
sI12
F0.09
sI13
F0.04
sI14
F0.06
sI15
F0.06
sI16
F0.05
sI18
F0.01
sI19
F0.02
sI20
F0.03
sI21
F0.02
sI22
F0.01
sI24
F0.03
sI26
F0.03
sI27
F0.01
sI28
F0.04
sI30
F0.03
sI31
F0.03
sI32
F0.01
sI33
F0.03
sI35
F0.03
sI37
F0.02
sI39
F0.01
sI41
F0.01
sI170
F0.01
sI44
F0.01
sI46
F0.01
sI47
F0.02
sI51
F0.02
sI53
F0.01
sI64
F0.01
sI68
F0.01
sI87
F0.01
sI96
F0.01
sI124
F0.01
sI125
F0.01
ssg6
(dp35
I1
F0.07
sI2
F0.86
sI3
F0.02
sI4
F0.04
sI5
F0.01
ssss.