(dp0
I0
(dp1
S'clustering coefficient'
p2
(dp3
S'Backend Query'
p4
(dp5
F0.0
F0.039603960396039604
sF0.147
F0.009900990099009901
sF0.066
F0.039603960396039604
sF0.022
F0.019801980198019802
sF0.09
F0.009900990099009901
sF0.026
F0.009900990099009901
sF0.038
F0.019801980198019802
sF0.073
F0.009900990099009901
sF0.041999999999999996
F0.009900990099009901
sF0.095
F0.009900990099009901
sF0.03
F0.019801980198019802
sF0.082
F0.009900990099009901
sF0.028
F0.009900990099009901
sF0.08
F0.019801980198019802
sF0.051
F0.0297029702970297
sF0.062
F0.0297029702970297
sF0.145
F0.009900990099009901
sF0.034999999999999996
F0.009900990099009901
sF0.065
F0.019801980198019802
sF0.019
F0.019801980198019802
sF0.049
F0.0297029702970297
sF0.109
F0.009900990099009901
sF0.12
F0.009900990099009901
sF0.088
F0.0297029702970297
sF0.072
F0.009900990099009901
sF0.166
F0.009900990099009901
sF0.047
F0.0297029702970297
sF0.057999999999999996
F0.0297029702970297
sF0.024999999999999998
F0.009900990099009901
sF0.036
F0.0297029702970297
sF0.068
F0.0297029702970297
sF0.079
F0.019801980198019802
sF0.045
F0.009900990099009901
sF0.10099999999999999
F0.009900990099009901
sF0.056
F0.009900990099009901
sF0.083
F0.009900990099009901
sF0.031
F0.009900990099009901
sF0.032
F0.019801980198019802
sF0.016
F0.009900990099009901
sF0.075
F0.009900990099009901
sF0.043
F0.009900990099009901
sF0.054
F0.019801980198019802
sF0.028999999999999998
F0.019801980198019802
sF0.041
F0.009900990099009901
sF0.052
F0.009900990099009901
sF0.018
F0.039603960396039604
sF0.064
F0.019801980198019802
sF0.04
F0.019801980198019802
sF0.067
F0.009900990099009901
sF0.089
F0.019801980198019802
sF0.049999999999999996
F0.0297029702970297
sF0.111
F0.009900990099009901
sF0.061
F0.009900990099009901
sF0.063
F0.019801980198019802
sF0.024
F0.009900990099009901
sF0.084
F0.009900990099009901
sF0.076
F0.019801980198019802
sF0.027
F0.019801980198019802
ssS'Frontend Query'
p6
(dp7
F0.0
F1.0
sssS'path length'
p8
(dp9
g4
(dp10
I1
F0.04554455445544554
sI2
F0.5336633663366337
sI3
F0.4207920792079208
ssg6
(dp11
I1
F0.9807692307692307
sI2
F0.019230769230769232
sssS'degree'
p12
(dp13
g4
(dp14
I136
F0.009900990099009901
sI10
F0.0891089108910891
sI11
F0.07920792079207921
sI12
F0.04950495049504951
sI13
F0.0594059405940594
sI142
F0.009900990099009901
sI15
F0.039603960396039604
sI16
F0.04950495049504951
sI17
F0.06930693069306931
sI18
F0.04950495049504951
sI19
F0.009900990099009901
sI20
F0.009900990099009901
sI22
F0.019801980198019802
sI23
F0.039603960396039604
sI24
F0.0297029702970297
sI26
F0.0297029702970297
sI27
F0.009900990099009901
sI28
F0.009900990099009901
sI31
F0.019801980198019802
sI33
F0.009900990099009901
sI34
F0.009900990099009901
sI35
F0.0297029702970297
sI37
F0.009900990099009901
sI39
F0.009900990099009901
sI41
F0.0297029702970297
sI170
F0.009900990099009901
sI44
F0.009900990099009901
sI46
F0.039603960396039604
sI48
F0.009900990099009901
sI51
F0.009900990099009901
sI58
F0.009900990099009901
sI59
F0.009900990099009901
sI60
F0.009900990099009901
sI61
F0.019801980198019802
sI64
F0.009900990099009901
sI78
F0.009900990099009901
sI14
F0.04950495049504951
sI87
F0.009900990099009901
sI93
F0.009900990099009901
ssg6
(dp15
I1
F0.9900990099009901
sI2
F0.009900990099009901
ssssI1
(dp16
g2
(dp17
g4
(dp18
F0.0
F0.01
sF0.033
F0.01
sF0.077
F0.01
sF0.044
F0.01
sF0.098
F0.01
sF0.055
F0.01
sF0.09
F0.01
sF0.073
F0.03
sF0.020999999999999998
F0.02
sF0.095
F0.01
sF0.12
F0.01
sF0.219
F0.01
sF0.08
F0.02
sF0.051
F0.03
sF0.062
F0.03
sF0.066
F0.03
sF0.03
F0.02
sF0.2
F0.01
sF0.038
F0.03
sF0.049
F0.01
sF0.015
F0.01
sF0.088
F0.02
sF0.04
F0.01
sF0.083
F0.02
sF0.047
F0.05
sF0.057999999999999996
F0.02
sF0.151
F0.02
sF0.036
F0.02
sF0.068
F0.03
sF0.045
F0.03
sF0.10099999999999999
F0.01
sF0.056
F0.03
sF0.123
F0.01
sF0.032
F0.01
sF0.064
F0.01
sF0.075
F0.01
sF0.043
F0.01
sF0.054
F0.02
sF0.071
F0.01
sF0.041
F0.01
sF0.052
F0.06
sF0.115
F0.01
sF0.094
F0.01
sF0.067
F0.01
sF0.039
F0.01
sF0.024999999999999998
F0.01
sF0.049999999999999996
F0.04
sF0.111
F0.01
sF0.061
F0.01
sF0.063
F0.02
sF0.08499999999999999
F0.01
sF0.06
F0.03
sF0.059
F0.03
sF0.155
F0.01
sF0.06999999999999999
F0.02
sF0.057
F0.01
sF0.053
F0.01
ssg6
(dp19
F0.0
F1.0
sssg8
(dp20
g4
(dp21
I1
F0.08242424242424243
sI2
F0.6517171717171717
sI3
F0.26585858585858585
ssg6
(dp22
I1
F0.7746478873239436
sI2
F0.22535211267605634
sssg12
(dp23
g4
(dp24
I136
F0.01
sI10
F0.06
sI11
F0.03
sI12
F0.07
sI13
F0.03
sI142
F0.01
sI15
F0.07
sI16
F0.01
sI17
F0.06
sI18
F0.02
sI19
F0.02
sI20
F0.02
sI21
F0.02
sI22
F0.02
sI23
F0.04
sI24
F0.01
sI25
F0.01
sI27
F0.03
sI30
F0.02
sI159
F0.01
sI32
F0.02
sI33
F0.02
sI163
F0.01
sI37
F0.01
sI40
F0.01
sI41
F0.01
sI170
F0.01
sI46
F0.01
sI47
F0.02
sI51
F0.01
sI52
F0.01
sI56
F0.01
sI58
F0.01
sI31
F0.04
sI61
F0.01
sI63
F0.01
sI65
F0.02
sI67
F0.01
sI68
F0.01
sI76
F0.01
sI78
F0.01
sI79
F0.01
sI35
F0.03
sI14
F0.04
sI86
F0.01
sI93
F0.01
sI59
F0.01
sI107
F0.01
sI111
F0.01
sI125
F0.01
sI85
F0.01
ssg6
(dp25
I1
F0.95
sI2
F0.01
sI3
F0.03
sI4
F0.01
ssssI2
(dp26
g2
(dp27
g4
(dp28
F0.136
F0.01
sF0.033
F0.02
sF0.077
F0.01
sF0.044
F0.03
sF0.161
F0.01
sF0.026
F0.02
sF0.09
F0.02
sF0.073
F0.02
sF0.12
F0.02
sF0.131
F0.01
sF0.04
F0.01
sF0.051
F0.03
sF0.031
F0.01
sF0.145
F0.01
sF0.066
F0.04
sF0.06
F0.02
sF0.065
F0.01
sF0.019
F0.01
sF0.049
F0.01
sF0.109
F0.01
sF0.03
F0.03
sF0.181
F0.01
sF0.072
F0.01
sF0.083
F0.01
sF0.047
F0.04
sF0.057999999999999996
F0.03
sF0.036
F0.04
sF0.068
F0.02
sF0.045
F0.05
sF0.064
F0.01
sF0.027
F0.01
sF0.078
F0.01
sF0.016
F0.03
sF0.043
F0.01
sF0.054
F0.05
sF0.082
F0.01
sF0.088
F0.02
sF0.052
F0.05
sF0.127
F0.01
sF0.039
F0.02
sF0.024999999999999998
F0.01
sF0.049999999999999996
F0.02
sF0.018
F0.02
sF0.061
F0.03
sF0.111
F0.03
sF0.126
F0.01
sF0.048
F0.02
sF0.059
F0.01
sF0.022
F0.01
sF0.038
F0.01
sF0.034999999999999996
F0.01
sF0.092
F0.01
sF0.057
F0.01
ssg6
(dp29
F0.0
F1.0
sssg8
(dp30
g4
(dp31
I1
F0.060404040404040404
sI2
F0.5543434343434344
sI3
F0.38484848484848483
sI4
F0.00040404040404040404
ssg6
(dp32
I1
F0.8983050847457628
sI2
F0.1016949152542373
sssg12
(dp33
g4
(dp34
I132
F0.01
sI10
F0.08
sI11
F0.15
sI12
F0.04
sI13
F0.02
sI14
F0.04
sI15
F0.02
sI16
F0.07
sI17
F0.04
sI18
F0.03
sI20
F0.04
sI21
F0.01
sI22
F0.03
sI23
F0.02
sI24
F0.02
sI25
F0.02
sI26
F0.01
sI27
F0.02
sI30
F0.02
sI159
F0.01
sI32
F0.01
sI33
F0.02
sI34
F0.01
sI163
F0.01
sI36
F0.01
sI40
F0.01
sI41
F0.01
sI170
F0.01
sI47
F0.01
sI50
F0.01
sI51
F0.01
sI53
F0.01
sI55
F0.01
sI58
F0.01
sI31
F0.01
sI60
F0.01
sI65
F0.03
sI76
F0.01
sI78
F0.01
sI35
F0.03
sI86
F0.02
sI87
F0.01
sI59
F0.01
sI111
F0.01
ssg6
(dp35
I1
F0.94
sI2
F0.06
ssss.