(dp0
I0
(dp1
S'clustering coefficient'
p2
(dp3
S'Backend Query'
p4
(dp5
F0.0
F0.03
sF0.016999999999999998
F0.01
sF0.033
F0.01
sF0.011
F0.08
sF0.020999999999999998
F0.07
sF0.028
F0.02
sF0.03
F0.01
sF0.013999999999999999
F0.06
sF0.009999999999999998
F0.02
sF0.031
F0.01
sF0.026
F0.01
sF0.003
F0.01
sF0.038
F0.02
sF0.049
F0.01
sF0.015
F0.03
sF0.024
F0.01
sF0.044
F0.01
sF0.009000000000000001
F0.04
sF0.028999999999999998
F0.01
sF0.036
F0.02
sF0.034
F0.01
sF0.045
F0.01
sF0.008
F0.01
sF0.007
F0.02
sF0.032
F0.04
sF0.016
F0.02
sF0.027
F0.01
sF0.013000000000000001
F0.04
sF0.018
F0.02
sF0.004
F0.01
sF0.02
F0.01
sF0.039
F0.01
sF0.024999999999999998
F0.08
sF0.005
F0.01
sF0.006
F0.01
sF0.041999999999999996
F0.01
sF0.022
F0.01
sF0.019
F0.09
sF0.034999999999999996
F0.02
sF0.012
F0.04
sF0.023
F0.03
ssS'Frontend Query'
p6
(dp7
F0.0
F1.0
sssS'path length'
p8
(dp9
g4
(dp10
I1
F0.035555555555555556
sI2
F0.3335353535353535
sI3
F0.6296969696969696
sI4
F0.0012121212121212121
ssg6
(dp11
I1
F0.020808080808080807
sI2
F0.024444444444444446
sI3
F0.028282828282828285
sI4
F0.031313131313131314
sI5
F0.032929292929292926
sI6
F0.03535353535353535
sI7
F0.039191919191919194
sI8
F0.043434343434343436
sI9
F0.046464646464646465
sI10
F0.048484848484848485
sI11
F0.04707070707070707
sI12
F0.0498989898989899
sI13
F0.04666666666666667
sI14
F0.047474747474747475
sI15
F0.04828282828282828
sI16
F0.04787878787878788
sI17
F0.04727272727272727
sI18
F0.0397979797979798
sI19
F0.03696969696969697
sI20
F0.03373737373737374
sI21
F0.0301010101010101
sI22
F0.027474747474747475
sI23
F0.02484848484848485
sI24
F0.022424242424242423
sI25
F0.019595959595959597
sI26
F0.01696969696969697
sI27
F0.014141414141414142
sI28
F0.012121212121212121
sI29
F0.010303030303030303
sI30
F0.00808080808080808
sI31
F0.006464646464646465
sI32
F0.0048484848484848485
sI33
F0.0032323232323232323
sI34
F0.00202020202020202
sI35
F0.0012121212121212121
sI36
F0.00040404040404040404
sssS'degree'
p12
(dp13
g4
(dp14
I11
F0.01
sI12
F0.01
sI13
F0.02
sI14
F0.02
sI15
F0.06
sI16
F0.06
sI17
F0.05
sI18
F0.11
sI19
F0.08
sI20
F0.1
sI21
F0.11
sI22
F0.07
sI23
F0.08
sI24
F0.1
sI25
F0.03
sI26
F0.03
sI27
F0.02
sI28
F0.01
sI29
F0.01
sI30
F0.02
ssg6
(dp15
I1
F0.05
sI2
F0.88
sI3
F0.03
sI4
F0.04
ssssI1
(dp16
g2
(dp17
g4
(dp18
F0.0
F0.04
sF0.016999999999999998
F0.03
sF0.033
F0.01
sF0.022
F0.03
sF0.020999999999999998
F0.1
sF0.028
F0.02
sF0.03
F0.01
sF0.013999999999999999
F0.03
sF0.04
F0.02
sF0.031
F0.01
sF0.026
F0.01
sF0.012
F0.03
sF0.019
F0.04
sF0.015
F0.06
sF0.011
F0.02
sF0.009999999999999998
F0.03
sF0.047
F0.01
sF0.028999999999999998
F0.02
sF0.009000000000000001
F0.03
sF0.034
F0.02
sF0.045
F0.01
sF0.016
F0.04
sF0.007
F0.04
sF0.032
F0.01
sF0.008
F0.05
sF0.043
F0.01
sF0.027
F0.02
sF0.041
F0.01
sF0.013000000000000001
F0.01
sF0.018
F0.01
sF0.004
F0.03
sF0.005
F0.01
sF0.024999999999999998
F0.02
sF0.023
F0.05
sF0.003
F0.03
sF0.041999999999999996
F0.01
sF0.034999999999999996
F0.02
sF0.006
F0.04
sF0.046
F0.01
ssg6
(dp19
F0.0
F1.0
sssg8
(dp20
g4
(dp21
I1
F0.040202020202020204
sI2
F0.3416161616161616
sI3
F0.616969696969697
sI4
F0.0012121212121212121
ssg6
(dp22
I1
F0.020808080808080807
sI2
F0.025252525252525252
sI3
F0.028888888888888888
sI4
F0.032525252525252527
sI5
F0.03595959595959596
sI6
F0.03878787878787879
sI7
F0.041212121212121214
sI8
F0.040606060606060604
sI9
F0.04262626262626262
sI10
F0.04707070707070707
sI11
F0.05171717171717172
sI12
F0.05454545454545454
sI13
F0.05757575757575758
sI14
F0.05898989898989899
sI15
F0.05818181818181818
sI16
F0.05797979797979798
sI17
F0.05656565656565657
sI18
F0.04787878787878788
sI19
F0.04101010101010101
sI20
F0.03595959595959596
sI21
F0.027474747474747475
sI22
F0.022424242424242423
sI23
F0.018383838383838384
sI24
F0.015151515151515152
sI25
F0.012525252525252526
sI26
F0.010101010101010102
sI27
F0.007474747474747475
sI28
F0.005454545454545455
sI29
F0.0034343434343434343
sI30
F0.00202020202020202
sI31
F0.00101010101010101
sI32
F0.00040404040404040404
sssg12
(dp23
g4
(dp24
I10
F0.01
sI12
F0.03
sI13
F0.03
sI14
F0.04
sI15
F0.06
sI16
F0.08
sI17
F0.04
sI18
F0.07
sI19
F0.11
sI20
F0.06
sI21
F0.07
sI22
F0.09
sI23
F0.1
sI24
F0.05
sI25
F0.01
sI26
F0.03
sI27
F0.05
sI28
F0.01
sI29
F0.03
sI30
F0.02
sI31
F0.01
ssg6
(dp25
I1
F0.1
sI2
F0.77
sI3
F0.1
sI4
F0.03
ssssI2
(dp26
g2
(dp27
g4
(dp28
F0.0
F0.03
sF0.034
F0.01
sF0.011
F0.03
sF0.020999999999999998
F0.07
sF0.007
F0.02
sF0.013999999999999999
F0.05
sF0.009999999999999998
F0.02
sF0.031
F0.01
sF0.013000000000000001
F0.01
sF0.012
F0.02
sF0.019
F0.09
sF0.03
F0.01
sF0.024
F0.03
sF0.044
F0.02
sF0.036
F0.02
sF0.047
F0.02
sF0.028999999999999998
F0.05
sF0.018
F0.03
sF0.016999999999999998
F0.06
sF0.004
F0.01
sF0.028
F0.04
sF0.032
F0.01
sF0.008
F0.01
sF0.016
F0.02
sF0.027
F0.05
sF0.026
F0.02
sF0.064
F0.01
sF0.005
F0.01
sF0.024999999999999998
F0.07
sF0.003
F0.01
sF0.041999999999999996
F0.01
sF0.038
F0.03
sF0.034999999999999996
F0.03
sF0.006
F0.03
sF0.023
F0.04
ssg6
(dp29
F0.0
F1.0
sssg8
(dp30
g4
(dp31
I1
F0.04040404040404041
sI2
F0.3595959595959596
sI3
F0.5993939393939394
sI4
F0.0006060606060606061
ssg6
(dp32
I1
F0.020404040404040404
sI2
F0.022424242424242423
sI3
F0.02404040404040404
sI4
F0.025454545454545455
sI5
F0.026262626262626262
sI6
F0.02666666666666667
sI7
F0.02707070707070707
sI8
F0.027676767676767678
sI9
F0.02808080808080808
sI10
F0.028282828282828285
sI11
F0.02909090909090909
sI12
F0.0301010101010101
sI13
F0.03090909090909091
sI14
F0.03212121212121212
sI15
F0.032929292929292926
sI16
F0.029696969696969697
sI17
F0.025252525252525252
sI18
F0.022424242424242423
sI19
F0.020404040404040404
sI20
F0.018585858585858588
sI21
F0.017373737373737375
sI22
F0.016363636363636365
sI23
F0.01595959595959596
sI24
F0.01616161616161616
sI25
F0.01595959595959596
sI26
F0.01575757575757576
sI27
F0.01575757575757576
sI28
F0.015151515151515152
sI29
F0.014545454545454545
sI30
F0.014141414141414142
sI31
F0.013939393939393939
sI32
F0.013737373737373737
sI33
F0.013535353535353536
sI34
F0.013333333333333334
sI35
F0.013131313131313131
sI36
F0.01292929292929293
sI37
F0.012727272727272728
sI38
F0.012525252525252526
sI39
F0.012121212121212121
sI40
F0.01191919191919192
sI41
F0.011717171717171718
sI42
F0.011515151515151515
sI43
F0.011313131313131313
sI44
F0.011111111111111112
sI45
F0.01090909090909091
sI46
F0.010707070707070707
sI47
F0.010505050505050505
sI48
F0.010303030303030303
sI49
F0.010101010101010102
sI50
F0.009898989898989899
sI51
F0.009494949494949495
sI52
F0.008888888888888889
sI53
F0.008282828282828282
sI54
F0.007676767676767677
sI55
F0.007070707070707071
sI56
F0.006464646464646465
sI57
F0.006060606060606061
sI58
F0.0052525252525252525
sI59
F0.004646464646464647
sI60
F0.004242424242424243
sI61
F0.0034343434343434343
sI62
F0.0026262626262626263
sI63
F0.0018181818181818182
sI64
F0.0008080808080808081
sI65
F0.00020202020202020202
sssg12
(dp33
g4
(dp34
I11
F0.01
sI13
F0.05
sI14
F0.02
sI15
F0.02
sI16
F0.03
sI17
F0.08
sI18
F0.08
sI19
F0.09
sI20
F0.06
sI21
F0.11
sI22
F0.11
sI23
F0.1
sI24
F0.09
sI25
F0.02
sI26
F0.06
sI27
F0.03
sI28
F0.01
sI29
F0.01
sI30
F0.01
sI31
F0.01
ssg6
(dp35
I1
F0.06
sI2
F0.87
sI3
F0.06
sI4
F0.01
ssss.