(dp0
I0
(dp1
S'clustering coefficient'
p2
(dp3
S'Backend Query'
p4
(dp5
F0.0
F0.73
sF0.028
F0.01
sF0.2
F0.04
sF0.066
F0.02
sF0.666
F0.02
sF0.333
F0.06
sF0.095
F0.01
sF0.106
F0.01
sF0.047
F0.02
sF0.142
F0.01
sF0.9999999999999999
F0.07
ssS'Frontend Query'
p6
(dp7
F0.0
F0.85
sF0.045
F0.01
sF0.333
F0.04
sF0.2
F0.03
sF0.9999999999999999
F0.07
sssS'path length'
p8
(dp9
g4
(dp10
I1
F0.02282828282828283
sI2
F0.05090909090909091
sI3
F0.06666666666666667
sI4
F0.10020202020202021
sI5
F0.11575757575757575
sI6
F0.13454545454545455
sI7
F0.12444444444444444
sI8
F0.09151515151515152
sI9
F0.06626262626262626
sI10
F0.059393939393939395
sI11
F0.06181818181818182
sI12
F0.05191919191919192
sI13
F0.03595959595959596
sI14
F0.015353535353535354
sI15
F0.0024242424242424242
ssg6
(dp11
I1
F0.02181818181818182
sI2
F0.046464646464646465
sI3
F0.051515151515151514
sI4
F0.06202020202020202
sI5
F0.05515151515151515
sI6
F0.05333333333333334
sI7
F0.06848484848484848
sI8
F0.07111111111111111
sI9
F0.08242424242424243
sI10
F0.07171717171717172
sI11
F0.045858585858585856
sI12
F0.03474747474747475
sI13
F0.03373737373737374
sI14
F0.03373737373737374
sI15
F0.04505050505050505
sI16
F0.039191919191919194
sI17
F0.03494949494949495
sI18
F0.027474747474747475
sI19
F0.02181818181818182
sI20
F0.027676767676767678
sI21
F0.023434343434343436
sI22
F0.022424242424242423
sI23
F0.015151515151515152
sI24
F0.007676767676767677
sI25
F0.0026262626262626263
sI26
F0.00040404040404040404
sssS'degree'
p12
(dp13
g4
(dp14
I1
F0.34
sI2
F0.22
sI3
F0.13
sI4
F0.05
sI5
F0.06
sI6
F0.06
sI7
F0.07
sI8
F0.02
sI10
F0.01
sI11
F0.02
sI12
F0.01
sI15
F0.01
ssg6
(dp15
I1
F0.41
sI2
F0.36
sI3
F0.09
sI4
F0.06
sI5
F0.02
sI6
F0.05
sI12
F0.01
ssssI1
(dp16
g2
(dp17
g4
(dp18
F0.0
F0.68
sF0.016999999999999998
F0.01
sF0.666
F0.01
sF0.007
F0.01
sF0.1
F0.01
sF0.066
F0.01
sF0.038
F0.01
sF0.333
F0.06
sF0.06
F0.01
sF0.027
F0.02
sF0.181
F0.01
sF0.107
F0.01
sF0.19
F0.01
sF0.166
F0.02
sF0.051
F0.02
sF0.285
F0.01
sF0.9999999999999999
F0.09
ssg6
(dp19
F0.0
F0.85
sF0.066
F0.01
sF0.4
F0.01
sF0.666
F0.02
sF0.333
F0.04
sF0.166
F0.01
sF0.9999999999999999
F0.06
sssg8
(dp20
g4
(dp21
I1
F0.02404040404040404
sI2
F0.05131313131313131
sI3
F0.09353535353535354
sI4
F0.16464646464646465
sI5
F0.22
sI6
F0.1923232323232323
sI7
F0.12404040404040403
sI8
F0.0703030303030303
sI9
F0.04101010101010101
sI10
F0.015151515151515152
sI11
F0.0030303030303030303
sI12
F0.0006060606060606061
ssg6
(dp22
I1
F0.022626262626262626
sI2
F0.041616161616161614
sI3
F0.05292929292929293
sI4
F0.061414141414141414
sI5
F0.06484848484848485
sI6
F0.06707070707070707
sI7
F0.06626262626262626
sI8
F0.06343434343434344
sI9
F0.06181818181818182
sI10
F0.06303030303030303
sI11
F0.06525252525252526
sI12
F0.054747474747474746
sI13
F0.05171717171717172
sI14
F0.043838383838383836
sI15
F0.033535353535353536
sI16
F0.026262626262626262
sI17
F0.02585858585858586
sI18
F0.02484848484848485
sI19
F0.025050505050505052
sI20
F0.019393939393939394
sI21
F0.01818181818181818
sI22
F0.014545454545454545
sI23
F0.00808080808080808
sI24
F0.005454545454545455
sI25
F0.004646464646464647
sI26
F0.0036363636363636364
sI27
F0.00404040404040404
sI28
F0.004242424242424243
sI29
F0.00101010101010101
sI30
F0.0006060606060606061
sssg12
(dp23
g4
(dp24
I1
F0.27
sI2
F0.16
sI3
F0.13
sI4
F0.11
sI5
F0.05
sI6
F0.1
sI7
F0.03
sI8
F0.01
sI9
F0.03
sI11
F0.02
sI12
F0.01
sI13
F0.02
sI15
F0.01
sI19
F0.01
sI25
F0.01
sI27
F0.01
sI29
F0.02
ssg6
(dp25
I1
F0.32
sI2
F0.4
sI3
F0.14
sI4
F0.08
sI5
F0.03
sI6
F0.02
sI11
F0.01
ssssI2
(dp26
g2
(dp27
g4
(dp28
F0.0
F0.8
sF0.5
F0.01
sF0.045
F0.01
sF0.29
F0.01
sF0.028
F0.01
sF0.2
F0.01
sF0.333
F0.05
sF0.054
F0.01
sF0.071
F0.01
sF0.009000000000000001
F0.01
sF0.047
F0.01
sF0.142
F0.01
sF0.217
F0.01
sF0.9999999999999999
F0.04
ssg6
(dp29
F0.0
F0.97
sF0.333
F0.01
sF0.9999999999999999
F0.02
sssg8
(dp30
g4
(dp31
I1
F0.02303030303030303
sI2
F0.04868686868686869
sI3
F0.06686868686868687
sI4
F0.1006060606060606
sI5
F0.1393939393939394
sI6
F0.17515151515151514
sI7
F0.17898989898989898
sI8
F0.1501010101010101
sI9
F0.08222222222222222
sI10
F0.027878787878787878
sI11
F0.006666666666666667
sI12
F0.00040404040404040404
ssg6
(dp32
I1
F0.02101010101010101
sI2
F0.03777777777777778
sI3
F0.044848484848484846
sI4
F0.06181818181818182
sI5
F0.062424242424242424
sI6
F0.06464646464646465
sI7
F0.06808080808080808
sI8
F0.07636363636363637
sI9
F0.07757575757575758
sI10
F0.07252525252525252
sI11
F0.06707070707070707
sI12
F0.05353535353535353
sI13
F0.04888888888888889
sI14
F0.04787878787878788
sI15
F0.04242424242424243
sI16
F0.03616161616161616
sI17
F0.02585858585858586
sI18
F0.02404040404040404
sI19
F0.016565656565656565
sI20
F0.015555555555555555
sI21
F0.013535353535353536
sI22
F0.00787878787878788
sI23
F0.0056565656565656566
sI24
F0.0036363636363636364
sI25
F0.0030303030303030303
sI26
F0.0012121212121212121
sssg12
(dp33
g4
(dp34
I1
F0.26
sI2
F0.27
sI3
F0.14
sI4
F0.08
sI5
F0.06
sI6
F0.07
sI7
F0.05
sI8
F0.01
sI11
F0.02
sI13
F0.01
sI15
F0.01
sI18
F0.01
sI21
F0.01
ssg6
(dp35
I1
F0.41
sI2
F0.31
sI3
F0.15
sI4
F0.09
sI5
F0.03
sI9
F0.01
ssss.