(dp0
S'clustering coefficient'
p1
(dp2
F0.125
F0.016
sF0.213
F0.001
sF0.044
F0.002
sF0.139
F0.003
sF0.227
F0.001
sF0.071
F0.01
sF0.095
F0.02
sF0.12
F0.003
sF0.153
F0.002
sF0.189
F0.003
sF0.051
F0.01
sF0.132
F0.006
sF0.03
F0.002
sF0.13
F0.009
sF0.184
F0.002
sF0.109
F0.005
sF0.181
F0.004
sF0.036
F0.005
sF0.116
F0.017
sF0.166
F0.004
sF0.055
F0.002
sF0.158
F0.002
sF0.123
F0.011
sF0.039
F0.003
sF0.032
F0.003
sF0.086
F0.008
sF0.026
F0.001
sF0.21
F0.001
sF0.156
F0.004
sF0.093
F0.006
sF0.062
F0.001
sF0.064
F0.01
sF0.1
F0.018
sF0.049999999999999996
F0.002
sF0.163
F0.006
sF0.146
F0.007
sF0.063
F0.008
sF0.061
F0.005
sF0.19
F0.004
sF0.06999999999999999
F0.008
sF0.057
F0.019
sF0.136
F0.003
sF0.191
F0.004
sF0.154
F0.002
sF0.121
F0.01
sF0.016999999999999998
F0.001
sF0.18
F0.002
sF0.084
F0.01
sF0.126
F0.012
sF0.131
F0.006
sF0.112
F0.005
sF0.041
F0.002
sF0.219
F0.001
sF0.068
F0.011
sF0.091
F0.014
sF0.098
F0.013
sF0.114
F0.007
sF0.159
F0.001
sF0.08
F0.018
sF0.105
F0.017
sF0.173
F0.002
sF0.024999999999999998
F0.002
sF0.152
F0.008
sF0.034
F0.001
sF0.204
F0.001
sF0.056
F0.005
sF0.075
F0.004
sF0.15
F0.007
sF0.124
F0.005
sF0.011
F0.001
sF0.119
F0.003
sF0.164
F0.001
sF0.13999999999999999
F0.004
sF0.089
F0.011
sF0.023
F0.001
sF0.236
F0.001
sF0.096
F0.001
sF0.228
F0.002
sF0.103
F0.004
sF0.169
F0.011
sF0.066
F0.023
sF0.11
F0.023
sF0.183
F0.003
sF0.045
F0.002
sF0.019
F0.001
sF0.073
F0.024
sF0.11699999999999999
F0.01
sF0.082
F0.011
sF0.197
F0.001
sF0.04
F0.003
sF0.031
F0.001
sF0.104
F0.014
sF0.087
F0.015
sF0.137
F0.007
sF0.047
F0.014
sF0.072
F0.001
sF0.198
F0.004
sF0.108
F0.018
sF0.10099999999999999
F0.006
sF0.016
F0.002
sF0.027
F0.001
sF0.134
F0.01
sF0.028999999999999998
F0.005
sF0.142
F0.014
sF0.216
F0.002
sF0.115
F0.006
sF0.094
F0.012
sF0.078
F0.022
sF0.122
F0.009
sF0.111
F0.009
sF0.08499999999999999
F0.003
sF0.041999999999999996
F0.006
sF0.133
F0.007
sF0.141
F0.003
sF0.046
F0.005
sF0.212
F0.001
sF0.147
F0.009
sF0.033
F0.003
sF0.235
F0.001
sF0.079
F0.005
sF0.099
F0.013
sF0.161
F0.006
sF0.279
F0.001
sF0.106
F0.004
sF0.176
F0.003
sF0.175
F0.004
sF0.138
F0.007
sF0.113
F0.003
sF0.020999999999999998
F0.002
sF0.034999999999999996
F0.003
sF0.192
F0.002
sF0.076
F0.022
sF0.272
F0.001
sF0.06
F0.004
sF0.069
F0.006
sF0.118
F0.004
sF0.168
F0.002
sF0.083
F0.006
sF0.129
F0.002
sF0.155
F0.003
sF0.09
F0.015
sF0.128
F0.012
sF0.143
F0.009
sF0.097
F0.001
sF0.065
F0.012
sF0.157
F0.005
sF0.077
F0.002
sF0.057999999999999996
F0.017
sF0.102
F0.005
sF0.052
F0.006
sF0.17099999999999999
F0.004
sF0.067
F0.004
sF0.222
F0.003
sF0.054
F0.004
sF0.148
F0.001
sF0.059
F0.002
sF0.088
F0.005
sF0.038
F0.002
sF0.081
F0.009
ssS'path length'
p3
(dp4
I1
F0.02002002002002002
sI2
F0.27032032032032033
sI3
F0.7043483483483484
sI4
F0.005311311311311311
ssS'degree'
p5
(dp6
I13
F0.002
sI14
F0.011
sI15
F0.02
sI16
F0.064
sI17
F0.083
sI18
F0.119
sI19
F0.153
sI20
F0.143
sI21
F0.117
sI22
F0.118
sI23
F0.063
sI24
F0.049
sI25
F0.033
sI26
F0.013
sI27
F0.006
sI28
F0.004
sI30
F0.001
sI31
F0.001
ss.