(dp0
I0
(dp1
S'clustering coefficient'
p2
(dp3
S'Backend Query'
p4
(dp5
F0.0
F0.0297029702970297
sF0.033
F0.0297029702970297
sF0.022
F0.019801980198019802
sF0.049
F0.009900990099009901
sF0.055
F0.009900990099009901
sF0.045
F0.0297029702970297
sF0.073
F0.019801980198019802
sF0.03
F0.009900990099009901
sF0.131
F0.009900990099009901
sF0.041
F0.009900990099009901
sF0.08
F0.019801980198019802
sF0.091
F0.009900990099009901
sF0.051
F0.0297029702970297
sF0.062
F0.019801980198019802
sF0.026
F0.009900990099009901
sF0.066
F0.04950495049504951
sF0.06
F0.0297029702970297
sF0.076
F0.019801980198019802
sF0.098
F0.009900990099009901
sF0.109
F0.019801980198019802
sF0.015
F0.009900990099009901
sF0.044
F0.0297029702970297
sF0.072
F0.009900990099009901
sF0.047
F0.0297029702970297
sF0.057999999999999996
F0.04950495049504951
sF0.043
F0.0297029702970297
sF0.036
F0.0297029702970297
sF0.068
F0.0297029702970297
sF0.102
F0.009900990099009901
sF0.09
F0.039603960396039604
sF0.032
F0.009900990099009901
sF0.056
F0.009900990099009901
sF0.064
F0.019801980198019802
sF0.075
F0.009900990099009901
sF0.124
F0.009900990099009901
sF0.054
F0.04950495049504951
sF0.071
F0.019801980198019802
sF0.082
F0.009900990099009901
sF0.052
F0.04950495049504951
sF0.127
F0.009900990099009901
sF0.04
F0.009900990099009901
sF0.067
F0.009900990099009901
sF0.039
F0.019801980198019802
sF0.049999999999999996
F0.019801980198019802
sF0.018
F0.009900990099009901
sF0.111
F0.009900990099009901
sF0.236
F0.009900990099009901
sF0.088
F0.009900990099009901
sF0.06999999999999999
F0.009900990099009901
sF0.023
F0.009900990099009901
sF0.057
F0.009900990099009901
sF0.053
F0.009900990099009901
ssS'Frontend Query'
p6
(dp7
F0.0
F1.0
sssS'path length'
p8
(dp9
g4
(dp10
I1
F0.06891089108910892
sI2
F0.5384158415841584
sI3
F0.3914851485148515
sI4
F0.001188118811881188
ssg6
(dp11
I1
F0.02923299565846599
sI2
F0.04428364688856729
sI3
F0.05991316931982634
sI4
F0.07641099855282199
sI5
F0.09319826338639653
sI6
F0.1044862518089725
sI7
F0.11056439942112879
sI8
F0.10738060781476122
sI9
F0.09667149059334298
sI10
F0.08393632416787265
sI11
F0.06859623733719247
sI12
F0.052387843704775686
sI13
F0.03473227206946455
sI14
F0.02141823444283647
sI15
F0.011287988422575976
sI16
F0.004630969609261939
sI17
F0.0008683068017366136
sssS'degree'
p12
(dp13
g4
(dp14
I136
F0.009900990099009901
sI10
F0.12871287128712872
sI11
F0.12871287128712872
sI12
F0.0594059405940594
sI13
F0.04950495049504951
sI14
F0.04950495049504951
sI15
F0.019801980198019802
sI16
F0.0594059405940594
sI17
F0.019801980198019802
sI18
F0.039603960396039604
sI19
F0.009900990099009901
sI21
F0.009900990099009901
sI22
F0.019801980198019802
sI23
F0.009900990099009901
sI24
F0.019801980198019802
sI25
F0.009900990099009901
sI26
F0.019801980198019802
sI28
F0.009900990099009901
sI30
F0.009900990099009901
sI159
F0.009900990099009901
sI33
F0.019801980198019802
sI163
F0.009900990099009901
sI36
F0.009900990099009901
sI37
F0.009900990099009901
sI39
F0.009900990099009901
sI40
F0.009900990099009901
sI170
F0.009900990099009901
sI43
F0.009900990099009901
sI46
F0.009900990099009901
sI47
F0.019801980198019802
sI48
F0.009900990099009901
sI56
F0.009900990099009901
sI31
F0.009900990099009901
sI61
F0.019801980198019802
sI64
F0.009900990099009901
sI68
F0.009900990099009901
sI72
F0.009900990099009901
sI76
F0.009900990099009901
sI78
F0.019801980198019802
sI81
F0.009900990099009901
sI35
F0.009900990099009901
sI86
F0.009900990099009901
sI95
F0.009900990099009901
sI59
F0.009900990099009901
sI111
F0.009900990099009901
sI124
F0.009900990099009901
sI125
F0.009900990099009901
ssg6
(dp15
I1
F0.3069306930693069
sI2
F0.5445544554455446
sI3
F0.04950495049504951
sI4
F0.04950495049504951
sI5
F0.039603960396039604
sI6
F0.009900990099009901
ssssI1
(dp16
g2
(dp17
g4
(dp18
F0.125
F0.009900990099009901
sF0.0
F0.019801980198019802
sF0.066
F0.019801980198019802
sF0.077
F0.009900990099009901
sF0.044
F0.019801980198019802
sF0.049
F0.019801980198019802
sF0.055
F0.009900990099009901
sF0.038
F0.009900990099009901
sF0.041999999999999996
F0.009900990099009901
sF0.12
F0.009900990099009901
sF0.013999999999999999
F0.009900990099009901
sF0.136
F0.009900990099009901
sF0.091
F0.009900990099009901
sF0.051
F0.019801980198019802
sF0.062
F0.0297029702970297
sF0.026
F0.009900990099009901
sF0.034999999999999996
F0.019801980198019802
sF0.06
F0.019801980198019802
sF0.2
F0.009900990099009901
sF0.076
F0.039603960396039604
sF0.098
F0.009900990099009901
sF0.015
F0.009900990099009901
sF0.088
F0.0297029702970297
sF0.236
F0.009900990099009901
sF0.036
F0.0297029702970297
sF0.047
F0.0297029702970297
sF0.057999999999999996
F0.039603960396039604
sF0.024999999999999998
F0.019801980198019802
sF0.072
F0.009900990099009901
sF0.068
F0.019801980198019802
sF0.09
F0.019801980198019802
sF0.10099999999999999
F0.009900990099009901
sF0.056
F0.0297029702970297
sF0.064
F0.019801980198019802
sF0.032
F0.009900990099009901
sF0.075
F0.019801980198019802
sF0.043
F0.019801980198019802
sF0.054
F0.04950495049504951
sF0.142
F0.009900990099009901
sF0.082
F0.009900990099009901
sF0.052
F0.019801980198019802
sF0.127
F0.019801980198019802
sF0.067
F0.009900990099009901
sF0.039
F0.009900990099009901
sF0.089
F0.009900990099009901
sF0.049999999999999996
F0.0297029702970297
sF0.018
F0.009900990099009901
sF0.061
F0.009900990099009901
sF0.111
F0.009900990099009901
sF0.009000000000000001
F0.009900990099009901
sF0.063
F0.019801980198019802
sF0.024
F0.009900990099009901
sF0.059
F0.009900990099009901
sF0.133
F0.009900990099009901
sF0.155
F0.009900990099009901
sF0.022
F0.0297029702970297
sF0.019
F0.009900990099009901
sF0.06999999999999999
F0.009900990099009901
sF0.048
F0.009900990099009901
sF0.057
F0.019801980198019802
ssg6
(dp19
F0.0
F1.0
sssg8
(dp20
g4
(dp21
I1
F0.07801980198019802
sI2
F0.5902970297029703
sI3
F0.3312871287128713
sI4
F0.00039603960396039607
ssg6
(dp22
I1
F0.054770318021201414
sI2
F0.06949352179034157
sI3
F0.07538280329799764
sI4
F0.07891637220259129
sI5
F0.08068315665488811
sI6
F0.08539458186101295
sI7
F0.08598351001177856
sI8
F0.07538280329799764
sI9
F0.0712603062426384
sI10
F0.06654888103651355
sI11
F0.05771495877502945
sI12
F0.04711425206124853
sI13
F0.032391048292108364
sI14
F0.025323910482921083
sI15
F0.026501766784452298
sI16
F0.01707891637220259
sI17
F0.014723203769140165
sI18
F0.013545347467608953
sI19
F0.010011778563015312
sI20
F0.0076560659599528855
sI21
F0.0035335689045936395
sI22
F0.0005889281507656066
sssg12
(dp23
g4
(dp24
I136
F0.009900990099009901
sI10
F0.1188118811881188
sI11
F0.07920792079207921
sI12
F0.039603960396039604
sI13
F0.0594059405940594
sI142
F0.009900990099009901
sI15
F0.04950495049504951
sI16
F0.019801980198019802
sI17
F0.0297029702970297
sI18
F0.039603960396039604
sI20
F0.019801980198019802
sI21
F0.009900990099009901
sI22
F0.0297029702970297
sI23
F0.019801980198019802
sI24
F0.009900990099009901
sI26
F0.019801980198019802
sI27
F0.019801980198019802
sI28
F0.009900990099009901
sI30
F0.0297029702970297
sI159
F0.009900990099009901
sI33
F0.019801980198019802
sI163
F0.009900990099009901
sI37
F0.009900990099009901
sI41
F0.019801980198019802
sI44
F0.009900990099009901
sI46
F0.019801980198019802
sI48
F0.009900990099009901
sI51
F0.009900990099009901
sI56
F0.009900990099009901
sI31
F0.009900990099009901
sI61
F0.019801980198019802
sI63
F0.009900990099009901
sI64
F0.009900990099009901
sI65
F0.019801980198019802
sI67
F0.009900990099009901
sI68
F0.009900990099009901
sI78
F0.009900990099009901
sI79
F0.009900990099009901
sI82
F0.009900990099009901
sI35
F0.009900990099009901
sI14
F0.039603960396039604
sI86
F0.019801980198019802
sI93
F0.009900990099009901
sI96
F0.009900990099009901
sI59
F0.009900990099009901
sI107
F0.009900990099009901
sI111
F0.009900990099009901
sI125
F0.009900990099009901
ssg6
(dp25
I1
F0.36633663366336633
sI2
F0.504950495049505
sI3
F0.07920792079207921
sI4
F0.0297029702970297
sI5
F0.009900990099009901
sI6
F0.009900990099009901
ssssI2
(dp26
g2
(dp27
g4
(dp28
F0.0
F0.019801980198019802
sF0.147
F0.009900990099009901
sF0.066
F0.039603960396039604
sF0.077
F0.009900990099009901
sF0.044
F0.0297029702970297
sF0.055
F0.009900990099009901
sF0.016999999999999998
F0.009900990099009901
sF0.09
F0.0297029702970297
sF0.073
F0.019801980198019802
sF0.020999999999999998
F0.009900990099009901
sF0.028
F0.009900990099009901
sF0.068
F0.019801980198019802
sF0.069
F0.009900990099009901
sF0.051
F0.0297029702970297
sF0.062
F0.019801980198019802
sF0.048
F0.009900990099009901
sF0.038
F0.0297029702970297
sF0.049
F0.009900990099009901
sF0.109
F0.019801980198019802
sF0.015
F0.009900990099009901
sF0.088
F0.019801980198019802
sF0.009000000000000001
F0.009900990099009901
sF0.083
F0.019801980198019802
sF0.057999999999999996
F0.039603960396039604
sF0.036
F0.019801980198019802
sF0.136
F0.009900990099009901
sF0.102
F0.009900990099009901
sF0.045
F0.0297029702970297
sF0.032
F0.009900990099009901
sF0.056
F0.019801980198019802
sF0.166
F0.009900990099009901
sF0.016
F0.009900990099009901
sF0.008
F0.009900990099009901
sF0.075
F0.0297029702970297
sF0.043
F0.009900990099009901
sF0.054
F0.039603960396039604
sF0.028999999999999998
F0.009900990099009901
sF0.071
F0.019801980198019802
sF0.041
F0.009900990099009901
sF0.052
F0.039603960396039604
sF0.018
F0.0297029702970297
sF0.078
F0.009900990099009901
sF0.024999999999999998
F0.019801980198019802
sF0.049999999999999996
F0.0297029702970297
sF0.111
F0.019801980198019802
sF0.061
F0.009900990099009901
sF0.063
F0.019801980198019802
sF0.024
F0.009900990099009901
sF0.059
F0.019801980198019802
sF0.133
F0.009900990099009901
sF0.022
F0.019801980198019802
sF0.076
F0.0297029702970297
sF0.034999999999999996
F0.009900990099009901
sF0.023
F0.019801980198019802
sF0.057
F0.009900990099009901
ssg6
(dp29
F0.0
F1.0
sssg8
(dp30
g4
(dp31
I1
F0.07425742574257425
sI2
F0.5704950495049504
sI3
F0.35524752475247523
ssg6
(dp32
I1
F0.030330603579011222
sI2
F0.047619047619047616
sI3
F0.06369426751592357
sI4
F0.08158932362754019
sI5
F0.09645131938125569
sI6
F0.09887776766757658
sI7
F0.08977858659387322
sI8
F0.0818926296633303
sI9
F0.08007279344858963
sI10
F0.07370336669699727
sI11
F0.06126781922960267
sI12
F0.05004549590536852
sI13
F0.04579921140430695
sI14
F0.03427358204428268
sI15
F0.028207461328480437
sI16
F0.018198362147406732
sI17
F0.00940248710949348
sI18
F0.00545950864422202
sI19
F0.0021231422505307855
sI20
F0.0009099181073703367
sI21
F0.00030330603579011223
sssg12
(dp33
g4
(dp34
I132
F0.009900990099009901
sI136
F0.009900990099009901
sI10
F0.0891089108910891
sI11
F0.09900990099009901
sI12
F0.039603960396039604
sI13
F0.06930693069306931
sI142
F0.009900990099009901
sI15
F0.0297029702970297
sI16
F0.07920792079207921
sI17
F0.0594059405940594
sI18
F0.0297029702970297
sI19
F0.009900990099009901
sI20
F0.009900990099009901
sI22
F0.019801980198019802
sI23
F0.0297029702970297
sI25
F0.009900990099009901
sI26
F0.009900990099009901
sI27
F0.019801980198019802
sI29
F0.009900990099009901
sI30
F0.0297029702970297
sI159
F0.009900990099009901
sI33
F0.019801980198019802
sI34
F0.009900990099009901
sI163
F0.009900990099009901
sI37
F0.019801980198019802
sI41
F0.009900990099009901
sI43
F0.009900990099009901
sI46
F0.009900990099009901
sI52
F0.009900990099009901
sI57
F0.009900990099009901
sI31
F0.009900990099009901
sI61
F0.009900990099009901
sI64
F0.009900990099009901
sI65
F0.019801980198019802
sI67
F0.009900990099009901
sI76
F0.009900990099009901
sI78
F0.019801980198019802
sI81
F0.009900990099009901
sI82
F0.009900990099009901
sI35
F0.009900990099009901
sI14
F0.0297029702970297
sI86
F0.009900990099009901
sI87
F0.009900990099009901
sI93
F0.009900990099009901
sI107
F0.009900990099009901
sI125
F0.009900990099009901
sI85
F0.009900990099009901
ssg6
(dp35
I1
F0.3564356435643564
sI2
F0.4752475247524752
sI3
F0.0594059405940594
sI4
F0.06930693069306931
sI5
F0.0297029702970297
sI7
F0.009900990099009901
ssss.