(dp0
I0
(dp1
S'clustering coefficient'
p2
(dp3
S'Backend Query'
p4
(dp5
F0.0
F0.6831683168316832
sF0.066
F0.009900990099009901
sF0.055
F0.009900990099009901
sF0.666
F0.019801980198019802
sF0.051
F0.009900990099009901
sF0.03
F0.009900990099009901
sF0.018
F0.009900990099009901
sF0.166
F0.009900990099009901
sF0.047
F0.009900990099009901
sF0.217
F0.009900990099009901
sF0.009000000000000001
F0.009900990099009901
sF0.045
F0.009900990099009901
sF0.008
F0.009900990099009901
sF0.028
F0.009900990099009901
sF0.004
F0.009900990099009901
sF0.194
F0.009900990099009901
sF0.238
F0.009900990099009901
sF0.619
F0.009900990099009901
sF0.1
F0.0297029702970297
sF0.2
F0.0297029702970297
sF0.333
F0.039603960396039604
sF0.133
F0.009900990099009901
sF0.034999999999999996
F0.009900990099009901
sF0.9999999999999999
F0.019801980198019802
ssS'Frontend Query'
p6
(dp7
F0.0
F1.0
sssS'path length'
p8
(dp9
g4
(dp10
I1
F0.016237623762376238
sI2
F0.02792079207920792
sI3
F0.07841584158415842
sI4
F0.16237623762376238
sI5
F0.22277227722772278
sI6
F0.18495049504950495
sI7
F0.10891089108910891
sI8
F0.0700990099009901
sI9
F0.05465346534653465
sI10
F0.03861386138613861
sI11
F0.021386138613861388
sI12
F0.008514851485148515
sI13
F0.0033663366336633663
sI14
F0.001386138613861386
sI15
F0.00039603960396039607
ssg6
(dp11
I1
F0.84375
sI2
F0.140625
sI3
F0.015625
sssS'degree'
p12
(dp13
g4
(dp14
I1
F0.15841584158415842
sI2
F0.12871287128712872
sI3
F0.1188118811881188
sI4
F0.10891089108910891
sI5
F0.13861386138613863
sI6
F0.06930693069306931
sI7
F0.039603960396039604
sI8
F0.0297029702970297
sI9
F0.0594059405940594
sI10
F0.009900990099009901
sI11
F0.019801980198019802
sI12
F0.009900990099009901
sI13
F0.009900990099009901
sI15
F0.019801980198019802
sI18
F0.009900990099009901
sI21
F0.009900990099009901
sI25
F0.009900990099009901
sI27
F0.009900990099009901
sI29
F0.009900990099009901
sI30
F0.009900990099009901
sI38
F0.009900990099009901
sI56
F0.009900990099009901
ssg6
(dp15
I1
F0.9207920792079208
sI2
F0.06930693069306931
sI3
F0.009900990099009901
ssssI1
(dp16
g2
(dp17
g4
(dp18
F0.0
F0.6534653465346535
sF0.666
F0.009900990099009901
sF0.066
F0.009900990099009901
sF0.055
F0.009900990099009901
sF0.285
F0.009900990099009901
sF0.19
F0.009900990099009901
sF0.038
F0.009900990099009901
sF0.009000000000000001
F0.009900990099009901
sF0.166
F0.0297029702970297
sF0.047
F0.009900990099009901
sF0.045
F0.009900990099009901
sF0.008
F0.009900990099009901
sF0.007
F0.009900990099009901
sF0.004
F0.009900990099009901
sF0.3
F0.009900990099009901
sF0.142
F0.009900990099009901
sF0.2
F0.0297029702970297
sF0.1
F0.0297029702970297
sF0.333
F0.039603960396039604
sF0.133
F0.009900990099009901
sF0.095
F0.019801980198019802
sF0.9999999999999999
F0.04950495049504951
ssg6
(dp19
F0.0
F1.0
sssg8
(dp20
g4
(dp21
I1
F0.014455445544554456
sI2
F0.023366336633663366
sI3
F0.06376237623762376
sI4
F0.13940594059405942
sI5
F0.22574257425742575
sI6
F0.24396039603960396
sI7
F0.178019801980198
sI8
F0.08455445544554456
sI9
F0.02297029702970297
sI10
F0.0033663366336633663
sI11
F0.00039603960396039607
ssg6
(dp22
I1
F0.9285714285714286
sI2
F0.07142857142857142
sssg12
(dp23
g4
(dp24
I1
F0.13861386138613863
sI2
F0.19801980198019803
sI3
F0.1188118811881188
sI4
F0.10891089108910891
sI5
F0.09900990099009901
sI6
F0.0594059405940594
sI7
F0.0594059405940594
sI9
F0.04950495049504951
sI10
F0.0297029702970297
sI11
F0.0297029702970297
sI13
F0.009900990099009901
sI14
F0.009900990099009901
sI20
F0.009900990099009901
sI21
F0.009900990099009901
sI23
F0.009900990099009901
sI56
F0.009900990099009901
sI25
F0.009900990099009901
sI38
F0.009900990099009901
sI29
F0.019801980198019802
sI30
F0.009900990099009901
ssg6
(dp25
I1
F0.9504950495049505
sI2
F0.04950495049504951
ssssI2
(dp26
g2
(dp27
g4
(dp28
F0.0
F0.77
sF0.5
F0.01
sF0.045
F0.01
sF0.666
F0.02
sF0.028
F0.01
sF0.1
F0.01
sF0.111
F0.01
sF0.038
F0.01
sF0.055
F0.01
sF0.047
F0.03
sF0.016999999999999998
F0.01
sF0.333
F0.02
sF0.06
F0.01
sF0.054
F0.01
sF0.181
F0.01
sF0.266
F0.01
sF0.051
F0.01
sF0.9999999999999999
F0.03
ssg6
(dp29
F0.0
F1.0
sssg8
(dp30
g4
(dp31
I1
F0.014545454545454545
sI2
F0.018787878787878787
sI3
F0.05393939393939394
sI4
F0.13818181818181818
sI5
F0.22262626262626262
sI6
F0.23232323232323232
sI7
F0.1715151515151515
sI8
F0.09171717171717171
sI9
F0.038181818181818185
sI10
F0.013939393939393939
sI11
F0.0036363636363636364
sI12
F0.0006060606060606061
ssg6
(dp32
I1
F0.8548387096774194
sI2
F0.14516129032258066
sssg12
(dp33
g4
(dp34
I1
F0.2
sI2
F0.18
sI3
F0.13
sI4
F0.05
sI5
F0.09
sI6
F0.07
sI7
F0.08
sI8
F0.02
sI9
F0.02
sI10
F0.01
sI11
F0.04
sI12
F0.02
sI13
F0.01
sI15
F0.02
sI18
F0.01
sI19
F0.01
sI21
F0.01
sI56
F0.01
sI25
F0.01
sI27
F0.01
ssg6
(dp35
I1
F0.96
sI2
F0.03
sI4
F0.01
ssss.