(dp0
I0
(dp1
S'clustering coefficient'
p2
(dp3
S'Backend Query'
p4
(dp5
F0.0
F0.02
sF0.066
F0.04
sF0.022
F0.04
sF0.055
F0.01
sF0.041999999999999996
F0.01
sF0.095
F0.01
sF0.06
F0.01
sF0.131
F0.01
sF0.028
F0.01
sF0.082
F0.03
sF0.08
F0.02
sF0.091
F0.01
sF0.051
F0.01
sF0.020999999999999998
F0.02
sF0.033
F0.02
sF0.03
F0.01
sF0.065
F0.01
sF0.038
F0.02
sF0.087
F0.01
sF0.049
F0.01
sF0.109
F0.01
sF0.015
F0.01
sF0.181
F0.01
sF0.04
F0.02
sF0.083
F0.01
sF0.047
F0.05
sF0.057999999999999996
F0.03
sF0.036
F0.04
sF0.034
F0.01
sF0.045
F0.02
sF0.032
F0.01
sF0.056
F0.02
sF0.064
F0.02
sF0.075
F0.01
sF0.043
F0.02
sF0.054
F0.04
sF0.071
F0.01
sF0.041
F0.01
sF0.052
F0.04
sF0.072
F0.02
sF0.067
F0.01
sF0.039
F0.03
sF0.089
F0.02
sF0.049999999999999996
F0.01
sF0.111
F0.01
sF0.061
F0.03
sF0.092
F0.01
sF0.063
F0.01
sF0.048
F0.01
sF0.059
F0.02
sF0.044
F0.03
sF0.076
F0.02
sF0.06999999999999999
F0.01
sF0.046
F0.02
sF0.057
F0.01
sF0.106
F0.01
ssS'Frontend Query'
p6
(dp7
F0.0
F1.0
sssS'path length'
p8
(dp9
g4
(dp10
I1
F0.07494949494949495
sI2
F0.5577777777777778
sI3
F0.3662626262626263
sI4
F0.00101010101010101
ssg6
(dp11
I1
F0.024967148488830485
sI2
F0.04621112571178274
sI3
F0.07402540516863776
sI4
F0.11147612790188349
sI5
F0.14651773981603153
sI6
F0.1548401226456417
sI7
F0.1279018834866404
sI8
F0.09789750328515112
sI9
F0.07512045554095488
sI10
F0.0519053876478318
sI11
F0.0346035917652212
sI12
F0.022339027595269383
sI13
F0.01598773543583005
sI14
F0.009636443276390714
sI15
F0.003504161191414805
sI16
F0.0017520805957074025
sI17
F0.0008760402978537013
sI18
F0.0004380201489268506
sssS'degree'
p12
(dp13
g4
(dp14
I136
F0.01
sI10
F0.12
sI11
F0.11
sI12
F0.03
sI13
F0.04
sI14
F0.06
sI15
F0.03
sI16
F0.03
sI17
F0.02
sI18
F0.04
sI19
F0.02
sI21
F0.01
sI22
F0.03
sI24
F0.04
sI25
F0.02
sI26
F0.01
sI27
F0.01
sI28
F0.01
sI30
F0.01
sI159
F0.01
sI32
F0.01
sI163
F0.01
sI36
F0.02
sI39
F0.01
sI40
F0.01
sI41
F0.01
sI170
F0.01
sI44
F0.01
sI46
F0.02
sI47
F0.02
sI52
F0.01
sI55
F0.01
sI31
F0.02
sI65
F0.01
sI68
F0.01
sI72
F0.01
sI76
F0.01
sI78
F0.01
sI81
F0.02
sI82
F0.01
sI35
F0.02
sI85
F0.01
sI86
F0.01
sI95
F0.01
sI96
F0.01
sI107
F0.01
sI124
F0.01
sI125
F0.01
ssg6
(dp15
I1
F0.17
sI2
F0.61
sI3
F0.09
sI4
F0.07
sI5
F0.03
sI6
F0.02
sI7
F0.01
ssssI1
(dp16
g2
(dp17
g4
(dp18
F0.0
F0.009900990099009901
sF0.034
F0.009900990099009901
sF0.066
F0.019801980198019802
sF0.077
F0.019801980198019802
sF0.022
F0.04950495049504951
sF0.098
F0.019801980198019802
sF0.055
F0.009900990099009901
sF0.09
F0.009900990099009901
sF0.026
F0.009900990099009901
sF0.073
F0.0297029702970297
sF0.03
F0.009900990099009901
sF0.131
F0.009900990099009901
sF0.028
F0.009900990099009901
sF0.009999999999999998
F0.009900990099009901
sF0.051
F0.039603960396039604
sF0.08
F0.009900990099009901
sF0.062
F0.019801980198019802
sF0.145
F0.009900990099009901
sF0.06999999999999999
F0.019801980198019802
sF0.038
F0.019801980198019802
sF0.087
F0.009900990099009901
sF0.049
F0.019801980198019802
sF0.06
F0.019801980198019802
sF0.044
F0.019801980198019802
sF0.036
F0.019801980198019802
sF0.083
F0.009900990099009901
sF0.047
F0.009900990099009901
sF0.057999999999999996
F0.009900990099009901
sF0.126
F0.009900990099009901
sF0.018
F0.009900990099009901
sF0.068
F0.019801980198019802
sF0.079
F0.009900990099009901
sF0.045
F0.039603960396039604
sF0.10099999999999999
F0.009900990099009901
sF0.056
F0.019801980198019802
sF0.128
F0.009900990099009901
sF0.075
F0.0297029702970297
sF0.043
F0.0297029702970297
sF0.054
F0.039603960396039604
sF0.102
F0.009900990099009901
sF0.041
F0.009900990099009901
sF0.052
F0.039603960396039604
sF0.115
F0.009900990099009901
sF0.072
F0.019801980198019802
sF0.094
F0.009900990099009901
sF0.04
F0.009900990099009901
sF0.067
F0.009900990099009901
sF0.039
F0.019801980198019802
sF0.049999999999999996
F0.009900990099009901
sF0.061
F0.009900990099009901
sF0.063
F0.019801980198019802
sF0.048
F0.009900990099009901
sF0.059
F0.019801980198019802
sF0.133
F0.0297029702970297
sF0.155
F0.009900990099009901
sF0.076
F0.019801980198019802
sF0.027
F0.009900990099009901
sF0.046
F0.019801980198019802
sF0.053
F0.009900990099009901
ssg6
(dp19
F0.0
F0.900990099009901
sF0.1
F0.009900990099009901
sF0.044
F0.009900990099009901
sF0.333
F0.009900990099009901
sF0.027
F0.009900990099009901
sF0.107
F0.019801980198019802
sF0.166
F0.019801980198019802
sF0.047
F0.009900990099009901
sF0.034999999999999996
F0.009900990099009901
sssg8
(dp20
g4
(dp21
I1
F0.0897029702970297
sI2
F0.6118811881188119
sI3
F0.2978217821782178
sI4
F0.000594059405940594
ssg6
(dp22
I1
F0.029504950495049503
sI2
F0.08613861386138613
sI3
F0.20277227722772279
sI4
F0.2964356435643564
sI5
F0.2392079207920792
sI6
F0.10633663366336633
sI7
F0.031485148514851485
sI8
F0.006930693069306931
sI9
F0.0009900990099009901
sI10
F0.00019801980198019803
sssg12
(dp23
g4
(dp24
I132
F0.009900990099009901
sI136
F0.009900990099009901
sI10
F0.0891089108910891
sI11
F0.0891089108910891
sI12
F0.04950495049504951
sI13
F0.04950495049504951
sI14
F0.0891089108910891
sI15
F0.019801980198019802
sI16
F0.009900990099009901
sI17
F0.039603960396039604
sI18
F0.009900990099009901
sI19
F0.009900990099009901
sI20
F0.0297029702970297
sI22
F0.009900990099009901
sI23
F0.0297029702970297
sI25
F0.009900990099009901
sI27
F0.009900990099009901
sI30
F0.039603960396039604
sI159
F0.009900990099009901
sI32
F0.019801980198019802
sI33
F0.0297029702970297
sI34
F0.009900990099009901
sI163
F0.009900990099009901
sI37
F0.019801980198019802
sI38
F0.009900990099009901
sI170
F0.009900990099009901
sI43
F0.009900990099009901
sI44
F0.009900990099009901
sI46
F0.0297029702970297
sI51
F0.009900990099009901
sI56
F0.009900990099009901
sI31
F0.019801980198019802
sI61
F0.019801980198019802
sI65
F0.019801980198019802
sI68
F0.009900990099009901
sI72
F0.009900990099009901
sI76
F0.009900990099009901
sI78
F0.009900990099009901
sI35
F0.009900990099009901
sI142
F0.009900990099009901
sI87
F0.009900990099009901
sI93
F0.009900990099009901
sI95
F0.009900990099009901
sI96
F0.009900990099009901
sI59
F0.009900990099009901
sI107
F0.009900990099009901
sI111
F0.009900990099009901
sI125
F0.009900990099009901
sI85
F0.009900990099009901
ssg6
(dp25
I1
F0.13861386138613863
sI2
F0.43564356435643564
sI3
F0.13861386138613863
sI4
F0.1485148514851485
sI5
F0.04950495049504951
sI6
F0.019801980198019802
sI7
F0.019801980198019802
sI8
F0.0297029702970297
sI9
F0.009900990099009901
sI10
F0.009900990099009901
ssssI2
(dp26
g2
(dp27
g4
(dp28
F0.136
F0.009900990099009901
sF0.066
F0.0297029702970297
sF0.044
F0.0297029702970297
sF0.055
F0.009900990099009901
sF0.045
F0.019801980198019802
sF0.076
F0.039603960396039604
sF0.020999999999999998
F0.009900990099009901
sF0.015
F0.009900990099009901
sF0.082
F0.009900990099009901
sF0.028
F0.009900990099009901
sF0.04
F0.019801980198019802
sF0.051
F0.019801980198019802
sF0.062
F0.019801980198019802
sF0.026
F0.009900990099009901
sF0.048
F0.019801980198019802
sF0.13
F0.009900990099009901
sF0.038
F0.0594059405940594
sF0.049
F0.019801980198019802
sF0.109
F0.019801980198019802
sF0.06
F0.019801980198019802
sF0.088
F0.009900990099009901
sF0.059
F0.019801980198019802
sF0.018
F0.019801980198019802
sF0.047
F0.019801980198019802
sF0.028999999999999998
F0.009900990099009901
sF0.151
F0.009900990099009901
sF0.086
F0.009900990099009901
sF0.036
F0.039603960396039604
sF0.016999999999999998
F0.009900990099009901
sF0.09
F0.009900990099009901
sF0.032
F0.009900990099009901
sF0.056
F0.019801980198019802
sF0.031
F0.009900990099009901
sF0.064
F0.019801980198019802
sF0.075
F0.0297029702970297
sF0.043
F0.009900990099009901
sF0.054
F0.039603960396039604
sF0.041
F0.009900990099009901
sF0.052
F0.019801980198019802
sF0.06999999999999999
F0.009900990099009901
sF0.067
F0.009900990099009901
sF0.039
F0.009900990099009901
sF0.089
F0.0297029702970297
sF0.049999999999999996
F0.039603960396039604
sF0.111
F0.009900990099009901
sF0.061
F0.009900990099009901
sF0.063
F0.019801980198019802
sF0.08499999999999999
F0.009900990099009901
sF0.012
F0.009900990099009901
sF0.041999999999999996
F0.009900990099009901
sF0.022
F0.039603960396039604
sF0.019
F0.009900990099009901
sF0.027
F0.009900990099009901
sF0.023
F0.019801980198019802
sF0.057
F0.019801980198019802
sF0.106
F0.009900990099009901
ssg6
(dp29
F0.0
F1.0
sssg8
(dp30
g4
(dp31
I1
F0.07683168316831683
sI2
F0.574059405940594
sI3
F0.3491089108910891
ssg6
(dp32
I1
F0.024554455445544555
sI2
F0.05287128712871287
sI3
F0.09108910891089109
sI4
F0.13663366336633664
sI5
F0.17405940594059405
sI6
F0.2007920792079208
sI7
F0.16396039603960397
sI8
F0.08792079207920792
sI9
F0.041584158415841586
sI10
F0.018613861386138613
sI11
F0.006534653465346534
sI12
F0.001188118811881188
sI13
F0.00019801980198019803
sssg12
(dp33
g4
(dp34
I132
F0.009900990099009901
sI136
F0.009900990099009901
sI10
F0.0891089108910891
sI11
F0.06930693069306931
sI12
F0.07920792079207921
sI13
F0.0891089108910891
sI142
F0.009900990099009901
sI15
F0.039603960396039604
sI16
F0.019801980198019802
sI17
F0.019801980198019802
sI18
F0.019801980198019802
sI19
F0.0297029702970297
sI21
F0.019801980198019802
sI22
F0.019801980198019802
sI23
F0.0297029702970297
sI24
F0.039603960396039604
sI25
F0.009900990099009901
sI26
F0.009900990099009901
sI27
F0.009900990099009901
sI28
F0.009900990099009901
sI30
F0.019801980198019802
sI159
F0.009900990099009901
sI34
F0.019801980198019802
sI163
F0.009900990099009901
sI41
F0.019801980198019802
sI170
F0.009900990099009901
sI47
F0.009900990099009901
sI52
F0.009900990099009901
sI59
F0.019801980198019802
sI60
F0.009900990099009901
sI61
F0.009900990099009901
sI63
F0.009900990099009901
sI65
F0.009900990099009901
sI67
F0.009900990099009901
sI68
F0.009900990099009901
sI78
F0.009900990099009901
sI79
F0.009900990099009901
sI81
F0.009900990099009901
sI82
F0.009900990099009901
sI35
F0.039603960396039604
sI14
F0.04950495049504951
sI86
F0.009900990099009901
sI87
F0.009900990099009901
sI111
F0.009900990099009901
sI124
F0.009900990099009901
sI125
F0.009900990099009901
ssg6
(dp35
I1
F0.1188118811881188
sI2
F0.6138613861386139
sI3
F0.1188118811881188
sI4
F0.0891089108910891
sI5
F0.009900990099009901
sI6
F0.019801980198019802
sI7
F0.009900990099009901
sI8
F0.019801980198019802
ssss.