(dp0
I0
(dp1
S'clustering coefficient'
p2
(dp3
S'Backend Query'
p4
(dp5
F0.0
F0.81
sF0.051
F0.01
sF0.028
F0.01
sF0.2
F0.03
sF0.1
F0.01
sF0.055
F0.01
sF0.333
F0.01
sF0.666
F0.02
sF0.133
F0.01
sF0.018
F0.01
sF0.166
F0.01
sF0.9999999999999999
F0.06
ssS'Frontend Query'
p6
(dp7
F0.0
F1.0
sssS'path length'
p8
(dp9
g4
(dp10
I1
F0.0012121212121212121
sI2
F0.006060606060606061
sI3
F0.017575757575757574
sI4
F0.06444444444444444
sI5
F0.12262626262626262
sI6
F0.2103030303030303
sI7
F0.2101010101010101
sI8
F0.16242424242424242
sI9
F0.09757575757575758
sI10
F0.053737373737373736
sI11
F0.0301010101010101
sI12
F0.015555555555555555
sI13
F0.0052525252525252525
sI14
F0.0024242424242424242
sI15
F0.00040404040404040404
sI16
F0.00020202020202020202
ssg6
(dp11
I0
I1
sssS'degree'
p12
(dp13
g4
(dp14
I1
F0.47
sI2
F0.17
sI3
F0.15
sI4
F0.06
sI5
F0.06
sI6
F0.04
sI8
F0.01
sI9
F0.01
sI11
F0.01
sI13
F0.01
sI15
F0.01
ssg6
(dp15
I0
F1.0
ssssI1
(dp16
g2
(dp17
g4
(dp18
F0.0
F0.82
sF0.1
F0.02
sF0.038
F0.01
sF0.666
F0.02
sF0.333
F0.06
sF0.166
F0.02
sF0.9999999999999999
F0.05
ssg6
(dp19
F0.0
F1.0
sssg8
(dp20
g4
(dp21
I1
F0.0018181818181818182
sI2
F0.010101010101010102
sI3
F0.02727272727272727
sI4
F0.07939393939393939
sI5
F0.16666666666666666
sI6
F0.2406060606060606
sI7
F0.22080808080808081
sI8
F0.14181818181818182
sI9
F0.06565656565656566
sI10
F0.023636363636363636
sI11
F0.014141414141414142
sI12
F0.0052525252525252525
sI13
F0.0018181818181818182
sI14
F0.00101010101010101
ssg6
(dp22
I0
I1
sssg12
(dp23
g4
(dp24
I1
F0.43
sI2
F0.18
sI3
F0.18
sI4
F0.05
sI5
F0.07
sI6
F0.03
sI7
F0.02
sI11
F0.01
sI12
F0.01
sI13
F0.01
sI25
F0.01
ssg6
(dp25
I0
F1.0
ssssI2
(dp26
g2
(dp27
g4
(dp28
F0.0
F0.85
sF0.5
F0.01
sF0.066
F0.01
sF0.1
F0.02
sF0.004
F0.01
sF0.333
F0.03
sF0.666
F0.01
sF0.133
F0.01
sF0.009000000000000001
F0.01
sF0.177
F0.01
sF0.047
F0.01
sF0.266
F0.01
sF0.9999999999999999
F0.01
ssg6
(dp29
F0.0
F1.0
sssg8
(dp30
g4
(dp31
I1
F0.0014141414141414141
sI2
F0.011111111111111112
sI3
F0.02303030303030303
sI4
F0.06545454545454546
sI5
F0.15292929292929294
sI6
F0.2311111111111111
sI7
F0.2202020202020202
sI8
F0.15575757575757576
sI9
F0.08505050505050506
sI10
F0.03838383838383838
sI11
F0.011515151515151515
sI12
F0.0034343434343434343
sI13
F0.0006060606060606061
ssg6
(dp32
I0
I1
sssg12
(dp33
g4
(dp34
I1
F0.44
sI2
F0.25
sI3
F0.09
sI4
F0.06
sI5
F0.04
sI6
F0.03
sI7
F0.03
sI9
F0.01
sI10
F0.01
sI11
F0.01
sI15
F0.01
sI21
F0.01
sI30
F0.01
ssg6
(dp35
I0
F1.0
ssss.