(dp0
I0
(dp1
S'clustering coefficient'
p2
(dp3
S'Backend Query'
p4
(dp5
F0.191
F0.009900990099009901
sF0.066
F0.039603960396039604
sF0.088
F0.019801980198019802
sF0.099
F0.039603960396039604
sF0.11
F0.009900990099009901
sF0.121
F0.009900990099009901
sF0.139
F0.009900990099009901
sF0.071
F0.009900990099009901
sF0.146
F0.009900990099009901
sF0.041999999999999996
F0.009900990099009901
sF0.095
F0.009900990099009901
sF0.106
F0.009900990099009901
sF0.11699999999999999
F0.009900990099009901
sF0.069
F0.009900990099009901
sF0.138
F0.009900990099009901
sF0.08
F0.039603960396039604
sF0.051
F0.009900990099009901
sF0.052
F0.0297029702970297
sF0.065
F0.009900990099009901
sF0.038
F0.009900990099009901
sF0.087
F0.019801980198019802
sF0.098
F0.0297029702970297
sF0.109
F0.009900990099009901
sF0.06
F0.009900990099009901
sF0.137
F0.009900990099009901
sF0.181
F0.009900990099009901
sF0.072
F0.009900990099009901
sF0.083
F0.009900990099009901
sF0.057999999999999996
F0.019801980198019802
sF0.152
F0.009900990099009901
sF0.068
F0.019801980198019802
sF0.054
F0.009900990099009901
sF0.10099999999999999
F0.009900990099009901
sF0.112
F0.009900990099009901
sF0.123
F0.009900990099009901
sF0.064
F0.039603960396039604
sF0.032
F0.009900990099009901
sF0.086
F0.019801980198019802
sF0.097
F0.009900990099009901
sF0.108
F0.039603960396039604
sF0.119
F0.009900990099009901
sF0.157
F0.009900990099009901
sF0.116
F0.0297029702970297
sF0.142
F0.019801980198019802
sF0.082
F0.019801980198019802
sF0.216
F0.009900990099009901
sF0.104
F0.019801980198019802
sF0.115
F0.009900990099009901
sF0.134
F0.009900990099009901
sF0.078
F0.009900990099009901
sF0.089
F0.019801980198019802
sF0.1
F0.019801980198019802
sF0.222
F0.009900990099009901
sF0.061
F0.019801980198019802
sF0.141
F0.009900990099009901
sF0.122
F0.019801980198019802
sF0.059
F0.009900990099009901
sF0.133
F0.009900990099009901
sF0.076
F0.0297029702970297
sF0.027
F0.009900990099009901
sF0.081
F0.009900990099009901
sF0.046
F0.019801980198019802
sF0.103
F0.009900990099009901
sF0.057
F0.019801980198019802
ssS'Frontend Query'
p6
(dp7
F0.0
F1.0
sssS'path length'
p8
(dp9
g4
(dp10
I1
F0.036237623762376235
sI2
F0.29089108910891087
sI3
F0.668910891089109
sI4
F0.0039603960396039604
ssg6
(dp11
I1
F0.06543385490753911
sI2
F0.06756756756756757
sI3
F0.06827880512091039
sI4
F0.0689900426742532
sI5
F0.06685633001422475
sI6
F0.06472261735419631
sI7
F0.05903271692745377
sI8
F0.05476529160739687
sI9
F0.0476529160739687
sI10
F0.041251778093883355
sI11
F0.03698435277382646
sI12
F0.03485064011379801
sI13
F0.033428165007112376
sI14
F0.031294452347083924
sI15
F0.029160739687055477
sI16
F0.02844950213371266
sI17
F0.029160739687055477
sI18
F0.032005689900426744
sI19
F0.03058321479374111
sI20
F0.02702702702702703
sI21
F0.021337126600284494
sI22
F0.017069701280227598
sI23
F0.01422475106685633
sI24
F0.011379800853485065
sI25
F0.009246088193456615
sI26
F0.005689900426742532
sI27
F0.002844950213371266
sI28
F0.0007112375533428165
sssS'degree'
p12
(dp13
g4
(dp14
I14
F0.009900990099009901
sI15
F0.009900990099009901
sI16
F0.04950495049504951
sI17
F0.04950495049504951
sI18
F0.04950495049504951
sI19
F0.16831683168316833
sI20
F0.10891089108910891
sI21
F0.1485148514851485
sI22
F0.1188118811881188
sI23
F0.07920792079207921
sI24
F0.10891089108910891
sI25
F0.039603960396039604
sI26
F0.0297029702970297
sI27
F0.019801980198019802
sI30
F0.009900990099009901
ssg6
(dp15
I1
F0.26732673267326734
sI2
F0.6732673267326733
sI3
F0.0297029702970297
sI4
F0.0297029702970297
ssssI1
(dp16
g2
(dp17
g4
(dp18
F0.125
F0.02
sF0.147
F0.01
sF0.169
F0.01
sF0.033
F0.01
sF0.099
F0.02
sF0.11
F0.03
sF0.121
F0.02
sF0.071
F0.01
sF0.073
F0.04
sF0.020999999999999998
F0.01
sF0.095
F0.04
sF0.126
F0.02
sF0.175
F0.01
sF0.069
F0.01
sF0.08
F0.03
sF0.091
F0.01
sF0.113
F0.02
sF0.066
F0.05
sF0.13
F0.02
sF0.087
F0.01
sF0.098
F0.01
sF0.03
F0.01
sF0.137
F0.01
sF0.166
F0.02
sF0.094
F0.01
sF0.105
F0.01
sF0.057999999999999996
F0.01
sF0.055
F0.01
sF0.158
F0.01
sF0.18
F0.01
sF0.10099999999999999
F0.01
sF0.056
F0.01
sF0.123
F0.01
sF0.156
F0.02
sF0.128
F0.02
sF0.086
F0.02
sF0.108
F0.02
sF0.06999999999999999
F0.01
sF0.142
F0.01
sF0.041
F0.01
sF0.093
F0.01
sF0.104
F0.01
sF0.115
F0.02
sF0.13999999999999999
F0.01
sF0.17099999999999999
F0.01
sF0.039
F0.01
sF0.089
F0.01
sF0.1
F0.02
sF0.061
F0.02
sF0.184
F0.01
sF0.163
F0.01
sF0.063
F0.02
sF0.078
F0.04
sF0.228
F0.01
sF0.024999999999999998
F0.01
sF0.034999999999999996
F0.02
sF0.081
F0.03
sF0.046
F0.02
sF0.057
F0.05
sF0.106
F0.01
ssg6
(dp19
F0.0
F1.0
sssg8
(dp20
g4
(dp21
I1
F0.03616161616161616
sI2
F0.2907070707070707
sI3
F0.6698989898989899
sI4
F0.0032323232323232323
ssg6
(dp22
I1
F0.14427860696517414
sI2
F0.12935323383084577
sI3
F0.11774461028192372
sI4
F0.1044776119402985
sI5
F0.0978441127694859
sI6
F0.087893864013267
sI7
F0.07960199004975124
sI8
F0.06301824212271974
sI9
F0.04643449419568822
sI10
F0.03980099502487562
sI11
F0.03150912106135987
sI12
F0.02321724709784411
sI13
F0.014925373134328358
sI14
F0.009950248756218905
sI15
F0.006633499170812604
sI16
F0.003316749585406302
sssg12
(dp23
g4
(dp24
I15
F0.01
sI16
F0.08
sI17
F0.04
sI18
F0.08
sI19
F0.13
sI20
F0.18
sI21
F0.14
sI22
F0.12
sI23
F0.06
sI24
F0.05
sI25
F0.09
sI27
F0.02
ssg6
(dp25
I1
F0.3
sI2
F0.66
sI3
F0.04
ssssI2
(dp26
g2
(dp27
g4
(dp28
F0.125
F0.02
sF0.147
F0.01
sF0.169
F0.02
sF0.191
F0.01
sF0.132
F0.01
sF0.077
F0.01
sF0.176
F0.01
sF0.099
F0.03
sF0.11
F0.03
sF0.139
F0.02
sF0.073
F0.04
sF0.041999999999999996
F0.01
sF0.095
F0.03
sF0.082
F0.01
sF0.175
F0.01
sF0.138
F0.01
sF0.08
F0.02
sF0.091
F0.03
sF0.051
F0.02
sF0.031
F0.01
sF0.052
F0.02
sF0.066
F0.01
sF0.065
F0.02
sF0.076
F0.02
sF0.087
F0.03
sF0.098
F0.01
sF0.109
F0.01
sF0.137
F0.01
sF0.159
F0.01
sF0.181
F0.02
sF0.094
F0.02
sF0.105
F0.01
sF0.057999999999999996
F0.02
sF0.173
F0.01
sF0.079
F0.01
sF0.09
F0.02
sF0.016
F0.01
sF0.112
F0.01
sF0.123
F0.01
sF0.064
F0.01
sF0.128
F0.01
sF0.15
F0.02
sF0.097
F0.01
sF0.108
F0.01
sF0.028999999999999998
F0.01
sF0.039
F0.02
sF0.104
F0.02
sF0.047
F0.01
sF0.078
F0.04
sF0.116
F0.01
sF0.1
F0.01
sF0.111
F0.02
sF0.163
F0.01
sF0.146
F0.01
sF0.126
F0.03
sF0.08499999999999999
F0.01
sF0.118
F0.01
sF0.133
F0.02
sF0.044
F0.01
sF0.088
F0.01
sF0.034999999999999996
F0.02
sF0.081
F0.01
sF0.023
F0.01
sF0.057
F0.01
ssg6
(dp29
F0.0
F1.0
sssg8
(dp30
g4
(dp31
I1
F0.032525252525252527
sI2
F0.2692929292929293
sI3
F0.693939393939394
sI4
F0.004242424242424243
ssg6
(dp32
I1
F0.17540322580645162
sI2
F0.16733870967741934
sI3
F0.15120967741935484
sI4
F0.12903225806451613
sI5
F0.11491935483870967
sI6
F0.08064516129032258
sI7
F0.05846774193548387
sI8
F0.04435483870967742
sI9
F0.03024193548387097
sI10
F0.020161290322580645
sI11
F0.014112903225806451
sI12
F0.008064516129032258
sI13
F0.004032258064516129
sI14
F0.0020161290322580645
sssg12
(dp33
g4
(dp34
I15
F0.01
sI16
F0.09
sI17
F0.12
sI18
F0.11
sI19
F0.18
sI20
F0.13
sI21
F0.1
sI22
F0.11
sI23
F0.04
sI24
F0.07
sI25
F0.02
sI26
F0.01
sI27
F0.01
ssg6
(dp35
I1
F0.34
sI2
F0.59
sI3
F0.06
sI4
F0.01
ssss.