(dp0
S'Random Vertex Sampling'
p1
(dp2
I0
ccopy_reg
_reconstructor
p3
(cpandas.core.frame
DataFrame
p4
c__builtin__
object
p5
Ntp6
Rp7
g3
(cpandas.core.internals
BlockManager
p8
g5
Ntp9
Rp10
((lp11
cnumpy.core.multiarray
_reconstruct
p12
(cpandas.core.index
Index
p13
(I0
tp14
S'b'
p15
tp16
Rp17
((I1
(I3
tp18
cnumpy
dtype
p19
(S'O8'
p20
I0
I1
tp21
Rp22
(I3
S'|'
p23
NNNI-1
I-1
I63
tp24
bI00
(lp25
S'clustering coefficient'
p26
aS'degree'
p27
aS'path length'
p28
atp29
(Ntp30
tp31
bag12
(g13
(I0
tp32
g15
tp33
Rp34
((I1
(I2
tp35
g22
I00
(lp36
S'Backend Query'
p37
aS'Frontend Query'
p38
atp39
(Ntp40
tp41
ba(lp42
g12
(cnumpy
ndarray
p43
(I0
tp44
g15
tp45
Rp46
(I1
(I3
I2
tp47
g22
I00
(lp48
(dp49
F0.0
F0.81
sF0.5
I0
sF0.066
I0
sF0.866
I0
sF0.055
F0.01
sF0.666
F0.02
sF0.071
I0
sF0.020999999999999998
I0
sF0.095
I0
sF0.106
I0
sF0.007
I0
sF0.051
F0.01
sF0.29
I0
sF0.06999999999999999
I0
sF0.03
I0
sF0.019
I0
sF0.087
I0
sF0.109
I0
sF0.06
I0
sF0.181
I0
sF0.018
F0.01
sF0.166
F0.01
sF0.047
I0
sF0.464
I0
sF0.024999999999999998
I0
sF0.217
I0
sF0.009000000000000001
I0
sF0.016999999999999998
I0
sF0.045
I0
sF0.008
I0
sF0.028
F0.01
sF0.083
I0
sF0.027
I0
sF0.6
I0
sF0.004
I0
sF0.032
I0
sF0.3
I0
sF0.4
I0
sF0.194
I0
sF0.054
I0
sF0.238
I0
sF0.266
I0
sF0.142
I0
sF0.619
I0
sF0.285
I0
sF0.036
I0
sF0.178
I0
sF0.476
I0
sF0.1
F0.01
sF0.2
F0.03
sF0.111
I0
sF0.141
I0
sF0.333
F0.01
sF0.19
I0
sF0.107
I0
sF0.133
F0.01
sF0.177
I0
sF0.038
I0
sF0.361
I0
sF0.034999999999999996
I0
sF0.699
I0
sF0.057
I0
sF0.9999999999999999
F0.06
sa(dp50
F0.0
F1.0
sF0.5
I0
sF0.666
I0
sF0.066
I0
sF0.866
I0
sF0.055
I0
sF0.285
I0
sF0.071
I0
sF0.020999999999999998
I0
sF0.095
I0
sF0.03
I0
sF0.007
I0
sF0.051
I0
sF0.29
I0
sF0.06999999999999999
I0
sF0.019
I0
sF0.087
I0
sF0.109
I0
sF0.06
I0
sF0.181
I0
sF0.018
I0
sF0.083
I0
sF0.047
I0
sF0.464
I0
sF0.217
I0
sF0.009000000000000001
I0
sF0.016999999999999998
I0
sF0.045
I0
sF0.008
I0
sF0.028
I0
sF0.166
I0
sF0.4
I0
sF0.6
I0
sF0.004
I0
sF0.032
I0
sF0.3
I0
sF0.1
I0
sF0.194
I0
sF0.054
I0
sF0.238
I0
sF0.266
I0
sF0.142
I0
sF0.619
I0
sF0.027
I0
sF0.036
I0
sF0.178
I0
sF0.476
I0
sF0.2
I0
sF0.024999999999999998
I0
sF0.111
I0
sF0.141
I0
sF0.333
I0
sF0.19
I0
sF0.107
I0
sF0.133
I0
sF0.177
I0
sF0.038
I0
sF0.361
I0
sF0.034999999999999996
I0
sF0.9999999999999999
I0
sF0.699
I0
sF0.057
I0
sF0.106
I0
sa(dp51
I0
I0
sI1
F0.47
sI2
F0.17
sI3
F0.15
sI4
F0.06
sI5
F0.06
sI6
F0.04
sI7
I0
sI8
F0.01
sI9
F0.01
sI10
I0
sI11
F0.01
sI12
I0
sI13
F0.01
sI14
I0
sI15
F0.01
sI16
I0
sI18
I0
sI19
I0
sI20
I0
sI21
I0
sI23
I0
sI25
I0
sI27
I0
sI29
I0
sI30
I0
sI38
I0
sI56
I0
sa(dp52
I0
F1.0
sI1
I0
sI2
I0
sI3
I0
sI4
I0
sI5
I0
sI6
I0
sI7
I0
sI8
I0
sI9
I0
sI10
I0
sI11
I0
sI12
I0
sI13
I0
sI14
I0
sI15
I0
sI16
I0
sI18
I0
sI19
I0
sI20
I0
sI21
I0
sI23
I0
sI25
I0
sI27
I0
sI29
I0
sI30
I0
sI38
I0
sI56
I0
sa(dp53
I0
I0
sI1
F0.0012121212121212121
sI2
F0.006060606060606061
sI3
F0.017575757575757574
sI4
F0.06444444444444444
sI5
F0.12262626262626262
sI6
F0.2103030303030303
sI7
F0.2101010101010101
sI8
F0.16242424242424242
sI9
F0.09757575757575758
sI10
F0.053737373737373736
sI11
F0.0301010101010101
sI12
F0.015555555555555555
sI13
F0.0052525252525252525
sI14
F0.0024242424242424242
sI15
F0.00040404040404040404
sI16
F0.00020202020202020202
sI17
I0
sI18
I0
sI19
I0
sI20
I0
sI21
I0
sI22
I0
sI23
I0
sI24
I0
sI25
I0
sI26
I0
sI27
I0
sI28
I0
sI29
I0
sI30
I0
sa(dp54
I0
I1
sI1
I0
sI2
I0
sI3
I0
sI4
I0
sI5
I0
sI6
I0
sI7
I0
sI8
I0
sI9
I0
sI10
I0
sI11
I0
sI12
I0
sI13
I0
sI14
I0
sI15
I0
sI16
I0
sI17
I0
sI18
I0
sI19
I0
sI20
I0
sI21
I0
sI22
I0
sI23
I0
sI24
I0
sI25
I0
sI26
I0
sI27
I0
sI28
I0
sI29
I0
sI30
I0
satp55
ba(lp56
g12
(g13
(I0
tp57
g15
tp58
Rp59
((I1
(I3
tp60
g22
I00
(lp61
g26
ag27
ag28
atp62
(Ntp63
tp64
ba(dp65
S'0.14.1'
p66
(dp67
S'axes'
p68
g11
sS'blocks'
p69
(lp70
(dp71
S'mgr_locs'
p72
c__builtin__
slice
p73
(I0
I3
I1
tp74
Rp75
sS'values'
p76
g46
sasstp77
bbsI1
g3
(g4
g5
Ntp78
Rp79
g3
(g8
g5
Ntp80
Rp81
((lp82
g12
(g13
(I0
tp83
g15
tp84
Rp85
((I1
(I3
tp86
g22
I00
(lp87
g26
ag27
ag28
atp88
(Ntp89
tp90
bag12
(g13
(I0
tp91
g15
tp92
Rp93
((I1
(I2
tp94
g22
I00
(lp95
g37
ag38
atp96
(Ntp97
tp98
ba(lp99
g12
(g43
(I0
tp100
g15
tp101
Rp102
(I1
(I3
I2
tp103
g22
I00
(lp104
(dp105
F0.0
F0.82
sF0.5
I0
sF0.066
I0
sF0.866
I0
sF0.055
I0
sF0.333
F0.06
sF0.071
I0
sF0.020999999999999998
I0
sF0.095
I0
sF0.106
I0
sF0.007
I0
sF0.4
I0
sF0.051
I0
sF0.29
I0
sF0.06999999999999999
I0
sF0.03
I0
sF0.038
F0.01
sF0.087
I0
sF0.109
I0
sF0.06
I0
sF0.181
I0
sF0.018
I0
sF0.166
F0.02
sF0.047
I0
sF0.464
I0
sF0.217
I0
sF0.009000000000000001
I0
sF0.016999999999999998
I0
sF0.045
I0
sF0.008
I0
sF0.028
I0
sF0.083
I0
sF0.027
I0
sF0.6
I0
sF0.004
I0
sF0.032
I0
sF0.3
I0
sF0.2
I0
sF0.194
I0
sF0.054
I0
sF0.238
I0
sF0.266
I0
sF0.142
I0
sF0.619
I0
sF0.285
I0
sF0.036
I0
sF0.178
I0
sF0.476
I0
sF0.024999999999999998
I0
sF0.1
F0.02
sF0.111
I0
sF0.141
I0
sF0.666
F0.02
sF0.19
I0
sF0.107
I0
sF0.133
I0
sF0.177
I0
sF0.019
I0
sF0.361
I0
sF0.034999999999999996
I0
sF0.699
I0
sF0.057
I0
sF0.9999999999999999
F0.05
sa(dp106
F0.0
F1.0
sF0.5
I0
sF0.666
I0
sF0.066
I0
sF0.866
I0
sF0.055
I0
sF0.285
I0
sF0.071
I0
sF0.020999999999999998
I0
sF0.095
I0
sF0.03
I0
sF0.007
I0
sF0.051
I0
sF0.29
I0
sF0.06999999999999999
I0
sF0.019
I0
sF0.087
I0
sF0.109
I0
sF0.06
I0
sF0.181
I0
sF0.018
I0
sF0.083
I0
sF0.047
I0
sF0.464
I0
sF0.217
I0
sF0.009000000000000001
I0
sF0.016999999999999998
I0
sF0.045
I0
sF0.008
I0
sF0.028
I0
sF0.166
I0
sF0.4
I0
sF0.6
I0
sF0.004
I0
sF0.032
I0
sF0.3
I0
sF0.1
I0
sF0.194
I0
sF0.054
I0
sF0.238
I0
sF0.266
I0
sF0.142
I0
sF0.619
I0
sF0.027
I0
sF0.036
I0
sF0.178
I0
sF0.476
I0
sF0.2
I0
sF0.024999999999999998
I0
sF0.111
I0
sF0.141
I0
sF0.333
I0
sF0.19
I0
sF0.107
I0
sF0.133
I0
sF0.177
I0
sF0.038
I0
sF0.361
I0
sF0.034999999999999996
I0
sF0.9999999999999999
I0
sF0.699
I0
sF0.057
I0
sF0.106
I0
sa(dp107
I0
I0
sI1
F0.43
sI2
F0.18
sI3
F0.18
sI4
F0.05
sI5
F0.07
sI6
F0.03
sI7
F0.02
sI8
I0
sI9
I0
sI10
I0
sI11
F0.01
sI12
F0.01
sI13
F0.01
sI14
I0
sI15
I0
sI16
I0
sI18
I0
sI19
I0
sI20
I0
sI21
I0
sI23
I0
sI25
F0.01
sI27
I0
sI29
I0
sI30
I0
sI38
I0
sI56
I0
sa(dp108
I0
F1.0
sI1
I0
sI2
I0
sI3
I0
sI4
I0
sI5
I0
sI6
I0
sI7
I0
sI8
I0
sI9
I0
sI10
I0
sI11
I0
sI12
I0
sI13
I0
sI14
I0
sI15
I0
sI16
I0
sI18
I0
sI19
I0
sI20
I0
sI21
I0
sI23
I0
sI25
I0
sI27
I0
sI29
I0
sI30
I0
sI38
I0
sI56
I0
sa(dp109
I0
I0
sI1
F0.0018181818181818182
sI2
F0.010101010101010102
sI3
F0.02727272727272727
sI4
F0.07939393939393939
sI5
F0.16666666666666666
sI6
F0.2406060606060606
sI7
F0.22080808080808081
sI8
F0.14181818181818182
sI9
F0.06565656565656566
sI10
F0.023636363636363636
sI11
F0.014141414141414142
sI12
F0.0052525252525252525
sI13
F0.0018181818181818182
sI14
F0.00101010101010101
sI15
I0
sI16
I0
sI17
I0
sI18
I0
sI19
I0
sI20
I0
sI21
I0
sI22
I0
sI23
I0
sI24
I0
sI25
I0
sI26
I0
sI27
I0
sI28
I0
sI29
I0
sI30
I0
sa(dp110
I0
I1
sI1
I0
sI2
I0
sI3
I0
sI4
I0
sI5
I0
sI6
I0
sI7
I0
sI8
I0
sI9
I0
sI10
I0
sI11
I0
sI12
I0
sI13
I0
sI14
I0
sI15
I0
sI16
I0
sI17
I0
sI18
I0
sI19
I0
sI20
I0
sI21
I0
sI22
I0
sI23
I0
sI24
I0
sI25
I0
sI26
I0
sI27
I0
sI28
I0
sI29
I0
sI30
I0
satp111
ba(lp112
g12
(g13
(I0
tp113
g15
tp114
Rp115
((I1
(I3
tp116
g22
I00
(lp117
g26
ag27
ag28
atp118
(Ntp119
tp120
ba(dp121
g66
(dp122
g68
g82
sg69
(lp123
(dp124
g72
g73
(I0
I3
I1
tp125
Rp126
sg76
g102
sasstp127
bbsI2
g3
(g4
g5
Ntp128
Rp129
g3
(g8
g5
Ntp130
Rp131
((lp132
g12
(g13
(I0
tp133
g15
tp134
Rp135
((I1
(I3
tp136
g22
I00
(lp137
g26
ag27
ag28
atp138
(Ntp139
tp140
bag12
(g13
(I0
tp141
g15
tp142
Rp143
((I1
(I2
tp144
g22
I00
(lp145
g37
ag38
atp146
(Ntp147
tp148
ba(lp149
g12
(g43
(I0
tp150
g15
tp151
Rp152
(I1
(I3
I2
tp153
g22
I00
(lp154
(dp155
F0.0
F0.85
sF0.5
F0.01
sF0.066
F0.01
sF0.866
I0
sF0.055
I0
sF0.666
F0.01
sF0.071
I0
sF0.020999999999999998
I0
sF0.095
I0
sF0.106
I0
sF0.007
I0
sF0.4
I0
sF0.051
I0
sF0.29
I0
sF0.06999999999999999
I0
sF0.03
I0
sF0.019
I0
sF0.087
I0
sF0.109
I0
sF0.06
I0
sF0.181
I0
sF0.009000000000000001
F0.01
sF0.083
I0
sF0.047
F0.01
sF0.266
F0.01
sF0.217
I0
sF0.018
I0
sF0.016999999999999998
I0
sF0.045
I0
sF0.032
I0
sF0.028
I0
sF0.166
I0
sF0.027
I0
sF0.6
I0
sF0.008
I0
sF0.004
F0.01
sF0.3
I0
sF0.2
I0
sF0.194
I0
sF0.054
I0
sF0.238
I0
sF0.464
I0
sF0.142
I0
sF0.619
I0
sF0.285
I0
sF0.036
I0
sF0.178
I0
sF0.476
I0
sF0.024999999999999998
I0
sF0.1
F0.02
sF0.111
I0
sF0.141
I0
sF0.333
F0.03
sF0.19
I0
sF0.107
I0
sF0.133
F0.01
sF0.177
F0.01
sF0.038
I0
sF0.361
I0
sF0.034999999999999996
I0
sF0.699
I0
sF0.057
I0
sF0.9999999999999999
F0.01
sa(dp156
F0.0
F1.0
sF0.5
I0
sF0.666
I0
sF0.066
I0
sF0.866
I0
sF0.055
I0
sF0.285
I0
sF0.071
I0
sF0.020999999999999998
I0
sF0.095
I0
sF0.03
I0
sF0.007
I0
sF0.051
I0
sF0.29
I0
sF0.06999999999999999
I0
sF0.019
I0
sF0.087
I0
sF0.109
I0
sF0.06
I0
sF0.181
I0
sF0.018
I0
sF0.083
I0
sF0.047
I0
sF0.464
I0
sF0.217
I0
sF0.009000000000000001
I0
sF0.016999999999999998
I0
sF0.045
I0
sF0.008
I0
sF0.028
I0
sF0.166
I0
sF0.4
I0
sF0.6
I0
sF0.004
I0
sF0.032
I0
sF0.3
I0
sF0.1
I0
sF0.194
I0
sF0.054
I0
sF0.238
I0
sF0.266
I0
sF0.142
I0
sF0.619
I0
sF0.027
I0
sF0.036
I0
sF0.178
I0
sF0.476
I0
sF0.2
I0
sF0.024999999999999998
I0
sF0.111
I0
sF0.141
I0
sF0.333
I0
sF0.19
I0
sF0.107
I0
sF0.133
I0
sF0.177
I0
sF0.038
I0
sF0.361
I0
sF0.034999999999999996
I0
sF0.9999999999999999
I0
sF0.699
I0
sF0.057
I0
sF0.106
I0
sa(dp157
I0
I0
sI1
F0.44
sI2
F0.25
sI3
F0.09
sI4
F0.06
sI5
F0.04
sI6
F0.03
sI7
F0.03
sI8
I0
sI9
F0.01
sI10
F0.01
sI11
F0.01
sI12
I0
sI13
I0
sI14
I0
sI15
F0.01
sI16
I0
sI18
I0
sI19
I0
sI20
I0
sI21
F0.01
sI23
I0
sI25
I0
sI27
I0
sI29
I0
sI30
F0.01
sI38
I0
sI56
I0
sa(dp158
I0
F1.0
sI1
I0
sI2
I0
sI3
I0
sI4
I0
sI5
I0
sI6
I0
sI7
I0
sI8
I0
sI9
I0
sI10
I0
sI11
I0
sI12
I0
sI13
I0
sI14
I0
sI15
I0
sI16
I0
sI18
I0
sI19
I0
sI20
I0
sI21
I0
sI23
I0
sI25
I0
sI27
I0
sI29
I0
sI30
I0
sI38
I0
sI56
I0
sa(dp159
I0
I0
sI1
F0.0014141414141414141
sI2
F0.011111111111111112
sI3
F0.02303030303030303
sI4
F0.06545454545454546
sI5
F0.15292929292929294
sI6
F0.2311111111111111
sI7
F0.2202020202020202
sI8
F0.15575757575757576
sI9
F0.08505050505050506
sI10
F0.03838383838383838
sI11
F0.011515151515151515
sI12
F0.0034343434343434343
sI13
F0.0006060606060606061
sI14
I0
sI15
I0
sI16
I0
sI17
I0
sI18
I0
sI19
I0
sI20
I0
sI21
I0
sI22
I0
sI23
I0
sI24
I0
sI25
I0
sI26
I0
sI27
I0
sI28
I0
sI29
I0
sI30
I0
sa(dp160
I0
I1
sI1
I0
sI2
I0
sI3
I0
sI4
I0
sI5
I0
sI6
I0
sI7
I0
sI8
I0
sI9
I0
sI10
I0
sI11
I0
sI12
I0
sI13
I0
sI14
I0
sI15
I0
sI16
I0
sI17
I0
sI18
I0
sI19
I0
sI20
I0
sI21
I0
sI22
I0
sI23
I0
sI24
I0
sI25
I0
sI26
I0
sI27
I0
sI28
I0
sI29
I0
sI30
I0
satp161
ba(lp162
g12
(g13
(I0
tp163
g15
tp164
Rp165
((I1
(I3
tp166
g22
I00
(lp167
g26
ag27
ag28
atp168
(Ntp169
tp170
ba(dp171
g66
(dp172
g68
g132
sg69
(lp173
(dp174
g72
g73
(I0
I3
I1
tp175
Rp176
sg76
g152
sasstp177
bbssS'KK Path Sampling'
p178
(dp179
I0
g3
(g4
g5
Ntp180
Rp181
g3
(g8
g5
Ntp182
Rp183
((lp184
g12
(g13
(I0
tp185
g15
tp186
Rp187
((I1
(I3
tp188
g22
I00
(lp189
g26
ag27
ag28
atp190
(Ntp191
tp192
bag12
(g13
(I0
tp193
g15
tp194
Rp195
((I1
(I2
tp196
g22
I00
(lp197
g37
ag38
atp198
(Ntp199
tp200
ba(lp201
g12
(g43
(I0
tp202
g15
tp203
Rp204
(I1
(I3
I2
tp205
g22
I00
(lp206
(dp207
F0.0
F0.7669902912621359
sF0.5
I0
sF0.066
I0
sF0.866
I0
sF0.055
F0.009708737864077669
sF0.666
I0
sF0.071
F0.009708737864077669
sF0.020999999999999998
F0.009708737864077669
sF0.095
F0.009708737864077669
sF0.106
I0
sF0.007
F0.009708737864077669
sF0.051
I0
sF0.29
F0.009708737864077669
sF0.06999999999999999
I0
sF0.03
I0
sF0.019
I0
sF0.087
I0
sF0.285
I0
sF0.109
I0
sF0.06
I0
sF0.181
I0
sF0.009000000000000001
F0.009708737864077669
sF0.166
F0.019417475728155338
sF0.047
F0.009708737864077669
sF0.133
F0.009708737864077669
sF0.024999999999999998
I0
sF0.217
I0
sF0.018
F0.009708737864077669
sF0.016999999999999998
I0
sF0.045
F0.009708737864077669
sF0.004
F0.009708737864077669
sF0.028
F0.009708737864077669
sF0.083
I0
sF0.6
I0
sF0.032
I0
sF0.008
F0.009708737864077669
sF0.3
I0
sF0.4
I0
sF0.194
I0
sF0.027
F0.009708737864077669
sF0.238
I0
sF0.464
I0
sF0.142
F0.009708737864077669
sF0.619
I0
sF0.054
I0
sF0.036
I0
sF0.178
I0
sF0.476
I0
sF0.1
F0.009708737864077669
sF0.2
F0.019417475728155338
sF0.111
I0
sF0.141
I0
sF0.333
I0
sF0.19
I0
sF0.107
I0
sF0.266
F0.009708737864077669
sF0.177
I0
sF0.038
I0
sF0.361
I0
sF0.034999999999999996
I0
sF0.699
I0
sF0.057
I0
sF0.9999999999999999
F0.019417475728155338
sa(dp208
F0.0
F1.0
sF0.5
I0
sF0.066
I0
sF0.866
I0
sF0.055
I0
sF0.666
I0
sF0.071
I0
sF0.020999999999999998
I0
sF0.095
I0
sF0.03
I0
sF0.007
I0
sF0.051
I0
sF0.29
I0
sF0.06999999999999999
I0
sF0.019
I0
sF0.087
I0
sF0.285
I0
sF0.109
I0
sF0.06
I0
sF0.181
I0
sF0.018
I0
sF0.083
I0
sF0.047
I0
sF0.464
I0
sF0.217
I0
sF0.009000000000000001
I0
sF0.016999999999999998
I0
sF0.045
I0
sF0.008
I0
sF0.028
I0
sF0.166
I0
sF0.4
I0
sF0.6
I0
sF0.004
I0
sF0.032
I0
sF0.3
I0
sF0.1
I0
sF0.194
I0
sF0.054
I0
sF0.238
I0
sF0.266
I0
sF0.142
I0
sF0.619
I0
sF0.027
I0
sF0.036
I0
sF0.178
I0
sF0.476
I0
sF0.2
I0
sF0.024999999999999998
I0
sF0.111
I0
sF0.141
I0
sF0.333
I0
sF0.19
I0
sF0.107
I0
sF0.133
I0
sF0.177
I0
sF0.038
I0
sF0.361
I0
sF0.034999999999999996
I0
sF0.9999999999999999
I0
sF0.699
I0
sF0.057
I0
sF0.106
I0
sa(dp209
I0
I0
sI1
F0.11650485436893204
sI2
F0.18446601941747573
sI3
F0.1262135922330097
sI4
F0.07766990291262135
sI5
F0.07766990291262135
sI6
F0.07766990291262135
sI7
F0.07766990291262135
sI8
F0.02912621359223301
sI9
F0.04854368932038835
sI10
I0
sI11
F0.02912621359223301
sI12
F0.009708737864077669
sI13
I0
sI14
F0.009708737864077669
sI15
F0.02912621359223301
sI16
I0
sI18
F0.019417475728155338
sI19
I0
sI20
F0.009708737864077669
sI21
F0.019417475728155338
sI23
F0.009708737864077669
sI25
F0.009708737864077669
sI27
I0
sI29
F0.009708737864077669
sI30
F0.009708737864077669
sI38
F0.009708737864077669
sI56
F0.009708737864077669
sa(dp210
I0
I0
sI1
F0.27184466019417475
sI2
F0.6019417475728155
sI3
F0.038834951456310676
sI4
F0.04854368932038835
sI5
F0.019417475728155338
sI6
F0.009708737864077669
sI7
I0
sI8
F0.009708737864077669
sI9
I0
sI10
I0
sI11
I0
sI12
I0
sI13
I0
sI14
I0
sI15
I0
sI16
I0
sI18
I0
sI19
I0
sI20
I0
sI21
I0
sI23
I0
sI25
I0
sI27
I0
sI29
I0
sI30
I0
sI38
I0
sI56
I0
sa(dp211
I0
I0
sI1
F0.02132114981915096
sI2
F0.045307443365695796
sI3
F0.10717685132305349
sI4
F0.18789263278126786
sI5
F0.21245002855511136
sI6
F0.17190177041690463
sI7
F0.10946126023224824
sI8
F0.06263087759375595
sI9
F0.03769274700171331
sI10
F0.024176660955644393
sI11
F0.012564249000571102
sI12
F0.004949552636588616
sI13
F0.0017133066818960593
sI14
F0.0005711022272986865
sI15
F0.00019036740909956216
sI16
I0
sI17
I0
sI18
I0
sI19
I0
sI20
I0
sI21
I0
sI22
I0
sI23
I0
sI24
I0
sI25
I0
sI26
I0
sI27
I0
sI28
I0
sI29
I0
sI30
I0
sa(dp212
I0
I0
sI1
F0.019798210546354465
sI2
F0.03179135731962688
sI3
F0.052541404911479156
sI4
F0.07766990291262135
sI5
F0.10355987055016182
sI6
F0.12316771368741672
sI7
F0.1252617551875119
sI8
F0.11555301732343423
sI9
F0.09784884827717495
sI10
F0.07690843327622311
sI11
F0.058442794593565585
sI12
F0.04359413668379973
sI13
F0.02912621359223301
sI14
F0.018846373500856654
sI15
F0.011993146773272416
sI16
F0.006282124500285551
sI17
F0.003807348181991243
sI18
F0.0020940415000951836
sI19
F0.0009518370454978108
sI20
F0.0005711022272986865
sI21
F0.00019036740909956216
sI22
I0
sI23
I0
sI24
I0
sI25
I0
sI26
I0
sI27
I0
sI28
I0
sI29
I0
sI30
I0
satp213
ba(lp214
g12
(g13
(I0
tp215
g15
tp216
Rp217
((I1
(I3
tp218
g22
I00
(lp219
g26
ag27
ag28
atp220
(Ntp221
tp222
ba(dp223
g66
(dp224
g68
g184
sg69
(lp225
(dp226
g72
g73
(I0
I3
I1
tp227
Rp228
sg76
g204
sasstp229
bbsI1
g3
(g4
g5
Ntp230
Rp231
g3
(g8
g5
Ntp232
Rp233
((lp234
g12
(g13
(I0
tp235
g15
tp236
Rp237
((I1
(I3
tp238
g22
I00
(lp239
g26
ag27
ag28
atp240
(Ntp241
tp242
bag12
(g13
(I0
tp243
g15
tp244
Rp245
((I1
(I2
tp246
g22
I00
(lp247
g37
ag38
atp248
(Ntp249
tp250
ba(lp251
g12
(g43
(I0
tp252
g15
tp253
Rp254
(I1
(I3
I2
tp255
g22
I00
(lp256
(dp257
F0.0
F0.696078431372549
sF0.5
I0
sF0.066
F0.00980392156862745
sF0.866
I0
sF0.055
I0
sF0.666
I0
sF0.071
I0
sF0.020999999999999998
I0
sF0.095
F0.00980392156862745
sF0.106
F0.00980392156862745
sF0.007
F0.00980392156862745
sF0.051
F0.00980392156862745
sF0.29
I0
sF0.06999999999999999
I0
sF0.03
I0
sF0.038
F0.00980392156862745
sF0.087
I0
sF0.285
I0
sF0.109
I0
sF0.06
I0
sF0.181
I0
sF0.018
F0.00980392156862745
sF0.166
F0.0392156862745098
sF0.047
F0.00980392156862745
sF0.464
I0
sF0.024999999999999998
I0
sF0.217
I0
sF0.009000000000000001
F0.00980392156862745
sF0.016999999999999998
I0
sF0.045
F0.00980392156862745
sF0.004
F0.00980392156862745
sF0.028
F0.00980392156862745
sF0.083
I0
sF0.6
I0
sF0.008
F0.00980392156862745
sF0.032
F0.00980392156862745
sF0.3
I0
sF0.4
I0
sF0.194
F0.00980392156862745
sF0.054
I0
sF0.238
I0
sF0.266
I0
sF0.142
I0
sF0.619
I0
sF0.027
I0
sF0.036
I0
sF0.178
I0
sF0.476
I0
sF0.1
F0.00980392156862745
sF0.2
F0.0392156862745098
sF0.111
I0
sF0.141
I0
sF0.333
F0.029411764705882353
sF0.19
I0
sF0.107
I0
sF0.133
F0.00980392156862745
sF0.177
F0.00980392156862745
sF0.019
F0.00980392156862745
sF0.361
I0
sF0.034999999999999996
F0.00980392156862745
sF0.699
I0
sF0.057
I0
sF0.9999999999999999
I0
sa(dp258
F0.0
F1.0
sF0.5
I0
sF0.066
I0
sF0.866
I0
sF0.055
I0
sF0.666
I0
sF0.071
I0
sF0.020999999999999998
I0
sF0.095
I0
sF0.03
I0
sF0.007
I0
sF0.051
I0
sF0.29
I0
sF0.06999999999999999
I0
sF0.019
I0
sF0.087
I0
sF0.285
I0
sF0.109
I0
sF0.06
I0
sF0.181
I0
sF0.018
I0
sF0.083
I0
sF0.047
I0
sF0.464
I0
sF0.217
I0
sF0.009000000000000001
I0
sF0.016999999999999998
I0
sF0.045
I0
sF0.008
I0
sF0.028
I0
sF0.166
I0
sF0.4
I0
sF0.6
I0
sF0.004
I0
sF0.032
I0
sF0.3
I0
sF0.1
I0
sF0.194
I0
sF0.054
I0
sF0.238
I0
sF0.266
I0
sF0.142
I0
sF0.619
I0
sF0.027
I0
sF0.036
I0
sF0.178
I0
sF0.476
I0
sF0.2
I0
sF0.024999999999999998
I0
sF0.111
I0
sF0.141
I0
sF0.333
I0
sF0.19
I0
sF0.107
I0
sF0.133
I0
sF0.177
I0
sF0.038
I0
sF0.361
I0
sF0.034999999999999996
I0
sF0.9999999999999999
I0
sF0.699
I0
sF0.057
I0
sF0.106
I0
sa(dp259
I0
I0
sI1
F0.09803921568627451
sI2
F0.1568627450980392
sI3
F0.10784313725490197
sI4
F0.10784313725490197
sI5
F0.10784313725490197
sI6
F0.13725490196078433
sI7
F0.058823529411764705
sI8
F0.00980392156862745
sI9
F0.00980392156862745
sI10
F0.00980392156862745
sI11
F0.058823529411764705
sI12
F0.00980392156862745
sI13
F0.00980392156862745
sI14
I0
sI15
F0.00980392156862745
sI16
F0.00980392156862745
sI18
F0.0196078431372549
sI19
I0
sI20
F0.00980392156862745
sI21
F0.00980392156862745
sI23
F0.00980392156862745
sI25
F0.00980392156862745
sI27
F0.00980392156862745
sI29
F0.00980392156862745
sI30
F0.00980392156862745
sI38
F0.00980392156862745
sI56
I0
sa(dp260
I0
I0
sI1
F0.21568627450980393
sI2
F0.6176470588235294
sI3
F0.09803921568627451
sI4
F0.058823529411764705
sI5
I0
sI6
F0.00980392156862745
sI7
I0
sI8
I0
sI9
I0
sI10
I0
sI11
I0
sI12
I0
sI13
I0
sI14
I0
sI15
I0
sI16
I0
sI18
I0
sI19
I0
sI20
I0
sI21
I0
sI23
I0
sI25
I0
sI27
I0
sI29
I0
sI30
I0
sI38
I0
sI56
I0
sa(dp261
I0
I0
sI1
F0.022519899048728403
sI2
F0.043292564550572704
sI3
F0.09337992622791691
sI4
F0.1739468064453504
sI5
F0.20850320326150262
sI6
F0.17763541059988353
sI7
F0.12191807416035721
sI8
F0.0722189866045428
sI9
F0.0421277421859833
sI10
F0.022908173170258204
sI11
F0.011648223645894
sI12
F0.0062123859444768005
sI13
F0.0025237817899437004
sI14
F0.0011648223645894002
sI15
I0
sI16
I0
sI17
I0
sI18
I0
sI19
I0
sI20
I0
sI21
I0
sI22
I0
sI23
I0
sI24
I0
sI25
I0
sI26
I0
sI27
I0
sI28
I0
sI29
I0
sI30
I0
sa(dp262
I0
I0
sI1
F0.020190254319549603
sI2
F0.027955736750145604
sI3
F0.0357212191807416
sI4
F0.050475635798874006
sI5
F0.06775383420695011
sI6
F0.0844496214327315
sI7
F0.0964861192001553
sI8
F0.10172781984080762
sI9
F0.1019219569015725
sI10
F0.0945447485925063
sI11
F0.0823141137643176
sI12
F0.06988934187536401
sI13
F0.055134925257231605
sI14
F0.039992234517569406
sI15
F0.027955736750145604
sI16
F0.01941370607649
sI17
F0.0122306348281887
sI18
F0.006600660066006601
sI19
F0.0029120559114735
sI20
F0.0015530964861192001
sI21
F0.0005824111822947001
sI22
F0.00019413706076490002
sI23
I0
sI24
I0
sI25
I0
sI26
I0
sI27
I0
sI28
I0
sI29
I0
sI30
I0
satp263
ba(lp264
g12
(g13
(I0
tp265
g15
tp266
Rp267
((I1
(I3
tp268
g22
I00
(lp269
g26
ag27
ag28
atp270
(Ntp271
tp272
ba(dp273
g66
(dp274
g68
g234
sg69
(lp275
(dp276
g72
g73
(I0
I3
I1
tp277
Rp278
sg76
g254
sasstp279
bbsI2
g3
(g4
g5
Ntp280
Rp281
g3
(g8
g5
Ntp282
Rp283
((lp284
g12
(g13
(I0
tp285
g15
tp286
Rp287
((I1
(I3
tp288
g22
I00
(lp289
g26
ag27
ag28
atp290
(Ntp291
tp292
bag12
(g13
(I0
tp293
g15
tp294
Rp295
((I1
(I2
tp296
g22
I00
(lp297
g37
ag38
atp298
(Ntp299
tp300
ba(lp301
g12
(g43
(I0
tp302
g15
tp303
Rp304
(I1
(I3
I2
tp305
g22
I00
(lp306
(dp307
F0.0
F0.7184466019417476
sF0.5
F0.02912621359223301
sF0.066
F0.009708737864077669
sF0.866
I0
sF0.055
I0
sF0.666
I0
sF0.071
I0
sF0.020999999999999998
F0.009708737864077669
sF0.095
F0.009708737864077669
sF0.106
F0.009708737864077669
sF0.028
I0
sF0.051
F0.009708737864077669
sF0.29
F0.009708737864077669
sF0.06999999999999999
I0
sF0.06
I0
sF0.019
I0
sF0.087
F0.009708737864077669
sF0.285
I0
sF0.109
F0.009708737864077669
sF0.03
F0.009708737864077669
sF0.181
I0
sF0.018
F0.009708737864077669
sF0.166
F0.038834951456310676
sF0.047
I0
sF0.464
I0
sF0.024999999999999998
I0
sF0.217
I0
sF0.009000000000000001
F0.009708737864077669
sF0.016999999999999998
I0
sF0.045
I0
sF0.008
F0.009708737864077669
sF0.007
F0.009708737864077669
sF0.083
I0
sF0.6
I0
sF0.032
I0
sF0.004
F0.009708737864077669
sF0.3
I0
sF0.1
I0
sF0.194
F0.009708737864077669
sF0.054
I0
sF0.238
I0
sF0.266
I0
sF0.142
I0
sF0.619
I0
sF0.027
I0
sF0.036
I0
sF0.178
I0
sF0.476
I0
sF0.2
F0.009708737864077669
sF0.4
F0.009708737864077669
sF0.111
I0
sF0.141
I0
sF0.333
F0.02912621359223301
sF0.19
I0
sF0.107
I0
sF0.133
I0
sF0.177
F0.009708737864077669
sF0.038
I0
sF0.361
I0
sF0.034999999999999996
I0
sF0.699
I0
sF0.057
I0
sF0.9999999999999999
F0.009708737864077669
sa(dp308
F0.0
F1.0
sF0.5
I0
sF0.066
I0
sF0.866
I0
sF0.055
I0
sF0.666
I0
sF0.071
I0
sF0.020999999999999998
I0
sF0.095
I0
sF0.03
I0
sF0.007
I0
sF0.051
I0
sF0.29
I0
sF0.06999999999999999
I0
sF0.019
I0
sF0.087
I0
sF0.285
I0
sF0.109
I0
sF0.06
I0
sF0.181
I0
sF0.018
I0
sF0.083
I0
sF0.047
I0
sF0.464
I0
sF0.217
I0
sF0.009000000000000001
I0
sF0.016999999999999998
I0
sF0.045
I0
sF0.008
I0
sF0.028
I0
sF0.166
I0
sF0.4
I0
sF0.6
I0
sF0.004
I0
sF0.032
I0
sF0.3
I0
sF0.1
I0
sF0.194
I0
sF0.054
I0
sF0.238
I0
sF0.266
I0
sF0.142
I0
sF0.619
I0
sF0.027
I0
sF0.036
I0
sF0.178
I0
sF0.476
I0
sF0.2
I0
sF0.024999999999999998
I0
sF0.111
I0
sF0.141
I0
sF0.333
I0
sF0.19
I0
sF0.107
I0
sF0.133
I0
sF0.177
I0
sF0.038
I0
sF0.361
I0
sF0.034999999999999996
I0
sF0.9999999999999999
I0
sF0.699
I0
sF0.057
I0
sF0.106
I0
sa(dp309
I0
I0
sI1
F0.11650485436893204
sI2
F0.1650485436893204
sI3
F0.10679611650485436
sI4
F0.10679611650485436
sI5
F0.07766990291262135
sI6
F0.0970873786407767
sI7
F0.04854368932038835
sI8
I0
sI9
F0.02912621359223301
sI10
F0.02912621359223301
sI11
F0.05825242718446602
sI12
F0.019417475728155338
sI13
F0.009708737864077669
sI14
F0.009708737864077669
sI15
F0.019417475728155338
sI16
F0.009708737864077669
sI18
I0
sI19
I0
sI20
F0.009708737864077669
sI21
F0.009708737864077669
sI23
F0.009708737864077669
sI25
F0.009708737864077669
sI27
F0.009708737864077669
sI29
F0.019417475728155338
sI30
F0.009708737864077669
sI38
F0.009708737864077669
sI56
F0.009708737864077669
sa(dp310
I0
I0
sI1
F0.2524271844660194
sI2
F0.5436893203883495
sI3
F0.0970873786407767
sI4
F0.05825242718446602
sI5
F0.02912621359223301
sI6
I0
sI7
F0.009708737864077669
sI8
F0.009708737864077669
sI9
I0
sI10
I0
sI11
I0
sI12
I0
sI13
I0
sI14
I0
sI15
I0
sI16
I0
sI18
I0
sI19
I0
sI20
I0
sI21
I0
sI23
I0
sI25
I0
sI27
I0
sI29
I0
sI30
I0
sI38
I0
sI56
I0
sa(dp311
I0
I0
sI1
F0.02474776318294308
sI2
F0.05901389682086427
sI3
F0.12754616409670663
sI4
F0.21549590710070435
sI5
F0.23681705691985533
sI6
F0.17513801637159718
sI7
F0.08756900818579859
sI8
F0.043784504092899294
sI9
F0.019417475728155338
sI10
F0.007805063773082048
sI11
F0.0019036740909956216
sI12
F0.0005711022272986865
sI13
F0.00019036740909956216
sI14
I0
sI15
I0
sI16
I0
sI17
I0
sI18
I0
sI19
I0
sI20
I0
sI21
I0
sI22
I0
sI23
I0
sI24
I0
sI25
I0
sI26
I0
sI27
I0
sI28
I0
sI29
I0
sI30
I0
sa(dp312
I0
I0
sI1
F0.0211307824100514
sI2
F0.03826384922901199
sI3
F0.05672948791166952
sI4
F0.08890158004949553
sI5
F0.11593375214163336
sI6
F0.14049114791547687
sI7
F0.14258518941557205
sI8
F0.1323053493241957
sI9
F0.10013325718636969
sI10
F0.06719969541214545
sI11
F0.03978678850180849
sI12
F0.02303445650104702
sI13
F0.014277555682467162
sI14
F0.008947268227679422
sI15
F0.005139920045688178
sI16
F0.003236245954692557
sI17
F0.0015229392727964973
sI18
F0.0003807348181991243
sI19
I0
sI20
I0
sI21
I0
sI22
I0
sI23
I0
sI24
I0
sI25
I0
sI26
I0
sI27
I0
sI28
I0
sI29
I0
sI30
I0
satp313
ba(lp314
g12
(g13
(I0
tp315
g15
tp316
Rp317
((I1
(I3
tp318
g22
I00
(lp319
g26
ag27
ag28
atp320
(Ntp321
tp322
ba(dp323
g66
(dp324
g68
g284
sg69
(lp325
(dp326
g72
g73
(I0
I3
I1
tp327
Rp328
sg76
g304
sasstp329
bbssS'Random Edge Sampling'
p330
(dp331
I0
g3
(g4
g5
Ntp332
Rp333
g3
(g8
g5
Ntp334
Rp335
((lp336
g12
(g13
(I0
tp337
g15
tp338
Rp339
((I1
(I3
tp340
g22
I00
(lp341
g26
ag27
ag28
atp342
(Ntp343
tp344
bag12
(g13
(I0
tp345
g15
tp346
Rp347
((I1
(I2
tp348
g22
I00
(lp349
g37
ag38
atp350
(Ntp351
tp352
ba(lp353
g12
(g43
(I0
tp354
g15
tp355
Rp356
(I1
(I3
I2
tp357
g22
I00
(lp358
(dp359
F0.0
F0.6831683168316832
sF0.5
I0
sF0.066
F0.009900990099009901
sF0.866
I0
sF0.055
F0.009900990099009901
sF0.666
F0.019801980198019802
sF0.071
I0
sF0.020999999999999998
I0
sF0.095
I0
sF0.06
I0
sF0.007
I0
sF0.051
F0.009900990099009901
sF0.29
I0
sF0.06999999999999999
I0
sF0.106
I0
sF0.019
I0
sF0.087
I0
sF0.109
I0
sF0.03
F0.009900990099009901
sF0.181
I0
sF0.018
F0.009900990099009901
sF0.166
F0.009900990099009901
sF0.047
F0.009900990099009901
sF0.464
I0
sF0.024999999999999998
I0
sF0.217
F0.009900990099009901
sF0.009000000000000001
F0.009900990099009901
sF0.016999999999999998
I0
sF0.045
F0.009900990099009901
sF0.008
F0.009900990099009901
sF0.028
F0.009900990099009901
sF0.083
I0
sF0.027
I0
sF0.6
I0
sF0.032
I0
sF0.004
F0.009900990099009901
sF0.3
I0
sF0.4
I0
sF0.194
F0.009900990099009901
sF0.054
I0
sF0.238
F0.009900990099009901
sF0.266
I0
sF0.142
I0
sF0.619
F0.009900990099009901
sF0.285
I0
sF0.036
I0
sF0.178
I0
sF0.476
I0
sF0.1
F0.0297029702970297
sF0.2
F0.0297029702970297
sF0.111
I0
sF0.141
I0
sF0.333
F0.039603960396039604
sF0.19
I0
sF0.107
I0
sF0.133
F0.009900990099009901
sF0.177
I0
sF0.038
I0
sF0.361
I0
sF0.034999999999999996
F0.009900990099009901
sF0.699
I0
sF0.057
I0
sF0.9999999999999999
F0.019801980198019802
sa(dp360
F0.0
F1.0
sF0.5
I0
sF0.666
I0
sF0.066
I0
sF0.866
I0
sF0.055
I0
sF0.285
I0
sF0.071
I0
sF0.020999999999999998
I0
sF0.095
I0
sF0.03
I0
sF0.007
I0
sF0.051
I0
sF0.29
I0
sF0.06999999999999999
I0
sF0.019
I0
sF0.087
I0
sF0.109
I0
sF0.06
I0
sF0.181
I0
sF0.018
I0
sF0.083
I0
sF0.047
I0
sF0.464
I0
sF0.217
I0
sF0.009000000000000001
I0
sF0.016999999999999998
I0
sF0.045
I0
sF0.008
I0
sF0.028
I0
sF0.166
I0
sF0.4
I0
sF0.6
I0
sF0.004
I0
sF0.032
I0
sF0.3
I0
sF0.1
I0
sF0.194
I0
sF0.054
I0
sF0.238
I0
sF0.266
I0
sF0.142
I0
sF0.619
I0
sF0.027
I0
sF0.036
I0
sF0.178
I0
sF0.476
I0
sF0.2
I0
sF0.024999999999999998
I0
sF0.111
I0
sF0.141
I0
sF0.333
I0
sF0.19
I0
sF0.107
I0
sF0.133
I0
sF0.177
I0
sF0.038
I0
sF0.361
I0
sF0.034999999999999996
I0
sF0.9999999999999999
I0
sF0.699
I0
sF0.057
I0
sF0.106
I0
sa(dp361
I0
I0
sI1
F0.15841584158415842
sI2
F0.12871287128712872
sI3
F0.1188118811881188
sI4
F0.10891089108910891
sI5
F0.13861386138613863
sI6
F0.06930693069306931
sI7
F0.039603960396039604
sI8
F0.0297029702970297
sI9
F0.0594059405940594
sI10
F0.009900990099009901
sI11
F0.019801980198019802
sI12
F0.009900990099009901
sI13
F0.009900990099009901
sI14
I0
sI15
F0.019801980198019802
sI16
I0
sI18
F0.009900990099009901
sI19
I0
sI20
I0
sI21
F0.009900990099009901
sI23
I0
sI25
F0.009900990099009901
sI27
F0.009900990099009901
sI29
F0.009900990099009901
sI30
F0.009900990099009901
sI38
F0.009900990099009901
sI56
F0.009900990099009901
sa(dp362
I0
I0
sI1
F0.9207920792079208
sI2
F0.06930693069306931
sI3
F0.009900990099009901
sI4
I0
sI5
I0
sI6
I0
sI7
I0
sI8
I0
sI9
I0
sI10
I0
sI11
I0
sI12
I0
sI13
I0
sI14
I0
sI15
I0
sI16
I0
sI18
I0
sI19
I0
sI20
I0
sI21
I0
sI23
I0
sI25
I0
sI27
I0
sI29
I0
sI30
I0
sI38
I0
sI56
I0
sa(dp363
I0
I0
sI1
F0.016237623762376238
sI2
F0.02792079207920792
sI3
F0.07841584158415842
sI4
F0.16237623762376238
sI5
F0.22277227722772278
sI6
F0.18495049504950495
sI7
F0.10891089108910891
sI8
F0.0700990099009901
sI9
F0.05465346534653465
sI10
F0.03861386138613861
sI11
F0.021386138613861388
sI12
F0.008514851485148515
sI13
F0.0033663366336633663
sI14
F0.001386138613861386
sI15
F0.00039603960396039607
sI16
I0
sI17
I0
sI18
I0
sI19
I0
sI20
I0
sI21
I0
sI22
I0
sI23
I0
sI24
I0
sI25
I0
sI26
I0
sI27
I0
sI28
I0
sI29
I0
sI30
I0
sa(dp364
I0
I0
sI1
F0.84375
sI2
F0.140625
sI3
F0.015625
sI4
I0
sI5
I0
sI6
I0
sI7
I0
sI8
I0
sI9
I0
sI10
I0
sI11
I0
sI12
I0
sI13
I0
sI14
I0
sI15
I0
sI16
I0
sI17
I0
sI18
I0
sI19
I0
sI20
I0
sI21
I0
sI22
I0
sI23
I0
sI24
I0
sI25
I0
sI26
I0
sI27
I0
sI28
I0
sI29
I0
sI30
I0
satp365
ba(lp366
g12
(g13
(I0
tp367
g15
tp368
Rp369
((I1
(I3
tp370
g22
I00
(lp371
g26
ag27
ag28
atp372
(Ntp373
tp374
ba(dp375
g66
(dp376
g68
g336
sg69
(lp377
(dp378
g72
g73
(I0
I3
I1
tp379
Rp380
sg76
g356
sasstp381
bbsI1
g3
(g4
g5
Ntp382
Rp383
g3
(g8
g5
Ntp384
Rp385
((lp386
g12
(g13
(I0
tp387
g15
tp388
Rp389
((I1
(I3
tp390
g22
I00
(lp391
g26
ag27
ag28
atp392
(Ntp393
tp394
bag12
(g13
(I0
tp395
g15
tp396
Rp397
((I1
(I2
tp398
g22
I00
(lp399
g37
ag38
atp400
(Ntp401
tp402
ba(lp403
g12
(g43
(I0
tp404
g15
tp405
Rp406
(I1
(I3
I2
tp407
g22
I00
(lp408
(dp409
F0.0
F0.6534653465346535
sF0.5
I0
sF0.666
F0.009900990099009901
sF0.066
F0.009900990099009901
sF0.866
I0
sF0.055
F0.009900990099009901
sF0.285
F0.009900990099009901
sF0.071
I0
sF0.020999999999999998
I0
sF0.19
F0.009900990099009901
sF0.106
I0
sF0.028
I0
sF0.051
I0
sF0.29
I0
sF0.06999999999999999
I0
sF0.03
I0
sF0.038
F0.009900990099009901
sF0.087
I0
sF0.109
I0
sF0.06
I0
sF0.181
I0
sF0.009000000000000001
F0.009900990099009901
sF0.166
F0.0297029702970297
sF0.047
F0.009900990099009901
sF0.464
I0
sF0.024999999999999998
I0
sF0.217
I0
sF0.018
I0
sF0.016999999999999998
I0
sF0.045
F0.009900990099009901
sF0.008
F0.009900990099009901
sF0.007
F0.009900990099009901
sF0.083
I0
sF0.6
I0
sF0.032
I0
sF0.004
F0.009900990099009901
sF0.3
F0.009900990099009901
sF0.4
I0
sF0.194
I0
sF0.054
I0
sF0.238
I0
sF0.266
I0
sF0.361
I0
sF0.142
F0.009900990099009901
sF0.619
I0
sF0.027
I0
sF0.036
I0
sF0.178
I0
sF0.476
I0
sF0.2
F0.0297029702970297
sF0.1
F0.0297029702970297
sF0.111
I0
sF0.141
I0
sF0.333
F0.039603960396039604
sF0.107
I0
sF0.133
F0.009900990099009901
sF0.177
I0
sF0.019
I0
sF0.095
F0.019801980198019802
sF0.034999999999999996
I0
sF0.699
I0
sF0.057
I0
sF0.9999999999999999
F0.04950495049504951
sa(dp410
F0.0
F1.0
sF0.5
I0
sF0.666
I0
sF0.066
I0
sF0.866
I0
sF0.055
I0
sF0.285
I0
sF0.071
I0
sF0.020999999999999998
I0
sF0.095
I0
sF0.03
I0
sF0.007
I0
sF0.051
I0
sF0.29
I0
sF0.06999999999999999
I0
sF0.019
I0
sF0.087
I0
sF0.109
I0
sF0.06
I0
sF0.181
I0
sF0.018
I0
sF0.083
I0
sF0.047
I0
sF0.464
I0
sF0.217
I0
sF0.009000000000000001
I0
sF0.016999999999999998
I0
sF0.045
I0
sF0.008
I0
sF0.028
I0
sF0.166
I0
sF0.4
I0
sF0.6
I0
sF0.004
I0
sF0.032
I0
sF0.3
I0
sF0.1
I0
sF0.194
I0
sF0.054
I0
sF0.238
I0
sF0.266
I0
sF0.142
I0
sF0.619
I0
sF0.027
I0
sF0.036
I0
sF0.178
I0
sF0.476
I0
sF0.2
I0
sF0.024999999999999998
I0
sF0.111
I0
sF0.141
I0
sF0.333
I0
sF0.19
I0
sF0.107
I0
sF0.133
I0
sF0.177
I0
sF0.038
I0
sF0.361
I0
sF0.034999999999999996
I0
sF0.9999999999999999
I0
sF0.699
I0
sF0.057
I0
sF0.106
I0
sa(dp411
I0
I0
sI1
F0.13861386138613863
sI2
F0.19801980198019803
sI3
F0.1188118811881188
sI4
F0.10891089108910891
sI5
F0.09900990099009901
sI6
F0.0594059405940594
sI7
F0.0594059405940594
sI8
I0
sI9
F0.04950495049504951
sI10
F0.0297029702970297
sI11
F0.0297029702970297
sI12
I0
sI13
F0.009900990099009901
sI14
F0.009900990099009901
sI15
I0
sI16
I0
sI18
I0
sI19
I0
sI20
F0.009900990099009901
sI21
F0.009900990099009901
sI23
F0.009900990099009901
sI25
F0.009900990099009901
sI27
I0
sI29
F0.019801980198019802
sI30
F0.009900990099009901
sI38
F0.009900990099009901
sI56
F0.009900990099009901
sa(dp412
I0
I0
sI1
F0.9504950495049505
sI2
F0.04950495049504951
sI3
I0
sI4
I0
sI5
I0
sI6
I0
sI7
I0
sI8
I0
sI9
I0
sI10
I0
sI11
I0
sI12
I0
sI13
I0
sI14
I0
sI15
I0
sI16
I0
sI18
I0
sI19
I0
sI20
I0
sI21
I0
sI23
I0
sI25
I0
sI27
I0
sI29
I0
sI30
I0
sI38
I0
sI56
I0
sa(dp413
I0
I0
sI1
F0.014455445544554456
sI2
F0.023366336633663366
sI3
F0.06376237623762376
sI4
F0.13940594059405942
sI5
F0.22574257425742575
sI6
F0.24396039603960396
sI7
F0.178019801980198
sI8
F0.08455445544554456
sI9
F0.02297029702970297
sI10
F0.0033663366336633663
sI11
F0.00039603960396039607
sI12
I0
sI13
I0
sI14
I0
sI15
I0
sI16
I0
sI17
I0
sI18
I0
sI19
I0
sI20
I0
sI21
I0
sI22
I0
sI23
I0
sI24
I0
sI25
I0
sI26
I0
sI27
I0
sI28
I0
sI29
I0
sI30
I0
sa(dp414
I0
I0
sI1
F0.9285714285714286
sI2
F0.07142857142857142
sI3
I0
sI4
I0
sI5
I0
sI6
I0
sI7
I0
sI8
I0
sI9
I0
sI10
I0
sI11
I0
sI12
I0
sI13
I0
sI14
I0
sI15
I0
sI16
I0
sI17
I0
sI18
I0
sI19
I0
sI20
I0
sI21
I0
sI22
I0
sI23
I0
sI24
I0
sI25
I0
sI26
I0
sI27
I0
sI28
I0
sI29
I0
sI30
I0
satp415
ba(lp416
g12
(g13
(I0
tp417
g15
tp418
Rp419
((I1
(I3
tp420
g22
I00
(lp421
g26
ag27
ag28
atp422
(Ntp423
tp424
ba(dp425
g66
(dp426
g68
g386
sg69
(lp427
(dp428
g72
g73
(I0
I3
I1
tp429
Rp430
sg76
g406
sasstp431
bbsI2
g3
(g4
g5
Ntp432
Rp433
g3
(g8
g5
Ntp434
Rp435
((lp436
g12
(g13
(I0
tp437
g15
tp438
Rp439
((I1
(I3
tp440
g22
I00
(lp441
g26
ag27
ag28
atp442
(Ntp443
tp444
bag12
(g13
(I0
tp445
g15
tp446
Rp447
((I1
(I2
tp448
g22
I00
(lp449
g37
ag38
atp450
(Ntp451
tp452
ba(lp453
g12
(g43
(I0
tp454
g15
tp455
Rp456
(I1
(I3
I2
tp457
g22
I00
(lp458
(dp459
F0.0
F0.77
sF0.5
F0.01
sF0.066
I0
sF0.866
I0
sF0.055
F0.01
sF0.333
F0.02
sF0.071
I0
sF0.020999999999999998
I0
sF0.095
I0
sF0.106
I0
sF0.007
I0
sF0.4
I0
sF0.051
F0.01
sF0.29
I0
sF0.06999999999999999
I0
sF0.03
I0
sF0.038
F0.01
sF0.087
I0
sF0.109
I0
sF0.06
F0.01
sF0.181
F0.01
sF0.018
I0
sF0.083
I0
sF0.047
F0.03
sF0.464
I0
sF0.217
I0
sF0.009000000000000001
I0
sF0.016999999999999998
F0.01
sF0.045
F0.01
sF0.008
I0
sF0.028
F0.01
sF0.166
I0
sF0.027
I0
sF0.6
I0
sF0.004
I0
sF0.032
I0
sF0.3
I0
sF0.2
I0
sF0.194
I0
sF0.054
F0.01
sF0.238
I0
sF0.133
I0
sF0.142
I0
sF0.619
I0
sF0.285
I0
sF0.036
I0
sF0.178
I0
sF0.476
I0
sF0.024999999999999998
I0
sF0.1
F0.01
sF0.111
F0.01
sF0.141
I0
sF0.666
F0.02
sF0.19
I0
sF0.107
I0
sF0.266
F0.01
sF0.177
I0
sF0.019
I0
sF0.361
I0
sF0.034999999999999996
I0
sF0.699
I0
sF0.057
I0
sF0.9999999999999999
F0.03
sa(dp460
F0.0
F1.0
sF0.5
I0
sF0.666
I0
sF0.066
I0
sF0.866
I0
sF0.055
I0
sF0.285
I0
sF0.071
I0
sF0.020999999999999998
I0
sF0.095
I0
sF0.03
I0
sF0.007
I0
sF0.051
I0
sF0.29
I0
sF0.06999999999999999
I0
sF0.019
I0
sF0.087
I0
sF0.109
I0
sF0.06
I0
sF0.181
I0
sF0.018
I0
sF0.083
I0
sF0.047
I0
sF0.464
I0
sF0.217
I0
sF0.009000000000000001
I0
sF0.016999999999999998
I0
sF0.045
I0
sF0.008
I0
sF0.028
I0
sF0.166
I0
sF0.4
I0
sF0.6
I0
sF0.004
I0
sF0.032
I0
sF0.3
I0
sF0.1
I0
sF0.194
I0
sF0.054
I0
sF0.238
I0
sF0.266
I0
sF0.142
I0
sF0.619
I0
sF0.027
I0
sF0.036
I0
sF0.178
I0
sF0.476
I0
sF0.2
I0
sF0.024999999999999998
I0
sF0.111
I0
sF0.141
I0
sF0.333
I0
sF0.19
I0
sF0.107
I0
sF0.133
I0
sF0.177
I0
sF0.038
I0
sF0.361
I0
sF0.034999999999999996
I0
sF0.9999999999999999
I0
sF0.699
I0
sF0.057
I0
sF0.106
I0
sa(dp461
I0
I0
sI1
F0.2
sI2
F0.18
sI3
F0.13
sI4
F0.05
sI5
F0.09
sI6
F0.07
sI7
F0.08
sI8
F0.02
sI9
F0.02
sI10
F0.01
sI11
F0.04
sI12
F0.02
sI13
F0.01
sI14
I0
sI15
F0.02
sI16
I0
sI18
F0.01
sI19
F0.01
sI20
I0
sI21
F0.01
sI23
I0
sI25
F0.01
sI27
F0.01
sI29
I0
sI30
I0
sI38
I0
sI56
F0.01
sa(dp462
I0
I0
sI1
F0.96
sI2
F0.03
sI3
I0
sI4
F0.01
sI5
I0
sI6
I0
sI7
I0
sI8
I0
sI9
I0
sI10
I0
sI11
I0
sI12
I0
sI13
I0
sI14
I0
sI15
I0
sI16
I0
sI18
I0
sI19
I0
sI20
I0
sI21
I0
sI23
I0
sI25
I0
sI27
I0
sI29
I0
sI30
I0
sI38
I0
sI56
I0
sa(dp463
I0
I0
sI1
F0.014545454545454545
sI2
F0.018787878787878787
sI3
F0.05393939393939394
sI4
F0.13818181818181818
sI5
F0.22262626262626262
sI6
F0.23232323232323232
sI7
F0.1715151515151515
sI8
F0.09171717171717171
sI9
F0.038181818181818185
sI10
F0.013939393939393939
sI11
F0.0036363636363636364
sI12
F0.0006060606060606061
sI13
I0
sI14
I0
sI15
I0
sI16
I0
sI17
I0
sI18
I0
sI19
I0
sI20
I0
sI21
I0
sI22
I0
sI23
I0
sI24
I0
sI25
I0
sI26
I0
sI27
I0
sI28
I0
sI29
I0
sI30
I0
sa(dp464
I0
I0
sI1
F0.8548387096774194
sI2
F0.14516129032258066
sI3
I0
sI4
I0
sI5
I0
sI6
I0
sI7
I0
sI8
I0
sI9
I0
sI10
I0
sI11
I0
sI12
I0
sI13
I0
sI14
I0
sI15
I0
sI16
I0
sI17
I0
sI18
I0
sI19
I0
sI20
I0
sI21
I0
sI22
I0
sI23
I0
sI24
I0
sI25
I0
sI26
I0
sI27
I0
sI28
I0
sI29
I0
sI30
I0
satp465
ba(lp466
g12
(g13
(I0
tp467
g15
tp468
Rp469
((I1
(I3
tp470
g22
I00
(lp471
g26
ag27
ag28
atp472
(Ntp473
tp474
ba(dp475
g66
(dp476
g68
g436
sg69
(lp477
(dp478
g72
g73
(I0
I3
I1
tp479
Rp480
sg76
g456
sasstp481
bbssS'Random Walk Sampling'
p482
(dp483
I0
g3
(g4
g5
Ntp484
Rp485
g3
(g8
g5
Ntp486
Rp487
((lp488
g12
(g13
(I0
tp489
g15
tp490
Rp491
((I1
(I3
tp492
g22
I00
(lp493
g26
ag27
ag28
atp494
(Ntp495
tp496
bag12
(g13
(I0
tp497
g15
tp498
Rp499
((I1
(I2
tp500
g22
I00
(lp501
g37
ag38
atp502
(Ntp503
tp504
ba(lp505
g12
(g43
(I0
tp506
g15
tp507
Rp508
(I1
(I3
I2
tp509
g22
I00
(lp510
(dp511
F0.0
F0.6
sF0.5
I0
sF0.066
I0
sF0.866
I0
sF0.055
I0
sF0.333
F0.06
sF0.142
F0.02
sF0.020999999999999998
I0
sF0.095
F0.01
sF0.106
I0
sF0.007
I0
sF0.4
I0
sF0.051
F0.01
sF0.29
I0
sF0.03
I0
sF0.038
F0.01
sF0.087
I0
sF0.109
I0
sF0.06
F0.01
sF0.181
F0.01
sF0.009000000000000001
F0.01
sF0.166
F0.01
sF0.047
I0
sF0.464
I0
sF0.217
I0
sF0.018
I0
sF0.016999999999999998
I0
sF0.045
F0.01
sF0.032
I0
sF0.028
I0
sF0.083
I0
sF0.027
I0
sF0.6
I0
sF0.008
I0
sF0.004
F0.01
sF0.3
F0.01
sF0.1
I0
sF0.194
F0.01
sF0.054
I0
sF0.238
I0
sF0.266
I0
sF0.036
I0
sF0.071
F0.01
sF0.619
I0
sF0.285
I0
sF0.034999999999999996
I0
sF0.178
I0
sF0.476
I0
sF0.024999999999999998
I0
sF0.2
F0.05
sF0.111
F0.01
sF0.141
I0
sF0.666
F0.04
sF0.19
I0
sF0.107
I0
sF0.133
F0.01
sF0.177
I0
sF0.019
I0
sF0.361
I0
sF0.06999999999999999
F0.01
sF0.699
I0
sF0.057
I0
sF0.9999999999999999
F0.08
sa(dp512
F0.0
F0.85
sF0.5
F0.01
sF0.666
I0
sF0.066
I0
sF0.866
I0
sF0.055
I0
sF0.285
I0
sF0.071
I0
sF0.020999999999999998
I0
sF0.095
I0
sF0.106
I0
sF0.007
I0
sF0.051
I0
sF0.29
I0
sF0.03
I0
sF0.019
I0
sF0.087
I0
sF0.109
I0
sF0.06
I0
sF0.181
I0
sF0.018
I0
sF0.083
F0.01
sF0.047
I0
sF0.464
I0
sF0.217
I0
sF0.009000000000000001
I0
sF0.016999999999999998
I0
sF0.045
I0
sF0.008
I0
sF0.028
I0
sF0.166
F0.01
sF0.4
I0
sF0.6
I0
sF0.004
I0
sF0.032
I0
sF0.3
F0.01
sF0.1
I0
sF0.194
I0
sF0.054
I0
sF0.238
I0
sF0.266
I0
sF0.036
I0
sF0.142
I0
sF0.619
I0
sF0.027
I0
sF0.06999999999999999
I0
sF0.178
I0
sF0.476
I0
sF0.024999999999999998
I0
sF0.2
F0.01
sF0.111
I0
sF0.141
I0
sF0.333
F0.02
sF0.19
I0
sF0.107
I0
sF0.133
I0
sF0.177
I0
sF0.038
I0
sF0.361
I0
sF0.034999999999999996
F0.01
sF0.699
I0
sF0.057
I0
sF0.9999999999999999
F0.07
sa(dp513
I0
I0
sI1
F0.24
sI2
F0.13
sI3
F0.17
sI4
F0.08
sI5
F0.1
sI6
F0.02
sI7
F0.06
sI8
F0.03
sI9
F0.03
sI10
F0.02
sI11
F0.03
sI12
F0.01
sI13
F0.01
sI14
F0.01
sI15
I0
sI16
I0
sI18
F0.01
sI19
I0
sI20
I0
sI21
F0.02
sI23
F0.01
sI25
I0
sI27
F0.01
sI29
I0
sI30
F0.01
sI38
I0
sI56
I0
sa(dp514
I0
I0
sI1
F0.33
sI2
F0.41
sI3
F0.13
sI4
F0.06
sI5
F0.02
sI6
F0.01
sI7
F0.01
sI8
F0.02
sI9
F0.01
sI10
I0
sI11
I0
sI12
I0
sI13
I0
sI14
I0
sI15
I0
sI16
I0
sI18
I0
sI19
I0
sI20
I0
sI21
I0
sI23
I0
sI25
I0
sI27
I0
sI29
I0
sI30
I0
sI38
I0
sI56
I0
sa(dp515
I0
I0
sI1
F0.02808080808080808
sI2
F0.06727272727272728
sI3
F0.09414141414141414
sI4
F0.11656565656565657
sI5
F0.1412121212121212
sI6
F0.15696969696969698
sI7
F0.14909090909090908
sI8
F0.08787878787878788
sI9
F0.04787878787878788
sI10
F0.037575757575757575
sI11
F0.039191919191919194
sI12
F0.026868686868686868
sI13
F0.006464646464646465
sI14
F0.0008080808080808081
sI15
I0
sI16
I0
sI17
I0
sI18
I0
sI19
I0
sI20
I0
sI21
I0
sI22
I0
sI23
I0
sI24
I0
sI25
I0
sI26
I0
sI27
I0
sI28
I0
sI29
I0
sI30
I0
sa(dp516
I0
I0
sI1
F0.02282828282828283
sI2
F0.046464646464646465
sI3
F0.05131313131313131
sI4
F0.055757575757575756
sI5
F0.05292929292929293
sI6
F0.047474747474747475
sI7
F0.049494949494949494
sI8
F0.0503030303030303
sI9
F0.043838383838383836
sI10
F0.0496969696969697
sI11
F0.05858585858585859
sI12
F0.06303030303030303
sI13
F0.06565656565656566
sI14
F0.05757575757575758
sI15
F0.04626262626262626
sI16
F0.03494949494949495
sI17
F0.030505050505050504
sI18
F0.025656565656565655
sI19
F0.02909090909090909
sI20
F0.026868686868686868
sI21
F0.021414141414141413
sI22
F0.022222222222222223
sI23
F0.022222222222222223
sI24
F0.01595959595959596
sI25
F0.007272727272727273
sI26
F0.0022222222222222222
sI27
F0.00040404040404040404
sI28
I0
sI29
I0
sI30
I0
satp517
ba(lp518
g12
(g13
(I0
tp519
g15
tp520
Rp521
((I1
(I3
tp522
g22
I00
(lp523
g26
ag27
ag28
atp524
(Ntp525
tp526
ba(dp527
g66
(dp528
g68
g488
sg69
(lp529
(dp530
g72
g73
(I0
I3
I1
tp531
Rp532
sg76
g508
sasstp533
bbsI1
g3
(g4
g5
Ntp534
Rp535
g3
(g8
g5
Ntp536
Rp537
((lp538
g12
(g13
(I0
tp539
g15
tp540
Rp541
((I1
(I3
tp542
g22
I00
(lp543
g26
ag27
ag28
atp544
(Ntp545
tp546
bag12
(g13
(I0
tp547
g15
tp548
Rp549
((I1
(I2
tp550
g22
I00
(lp551
g37
ag38
atp552
(Ntp553
tp554
ba(lp555
g12
(g43
(I0
tp556
g15
tp557
Rp558
(I1
(I3
I2
tp559
g22
I00
(lp560
(dp561
F0.0
F0.52
sF0.5
F0.01
sF0.666
I0
sF0.066
F0.01
sF0.866
F0.02
sF0.055
I0
sF0.285
I0
sF0.071
I0
sF0.020999999999999998
I0
sF0.19
F0.01
sF0.106
F0.01
sF0.028
I0
sF0.051
F0.02
sF0.29
F0.01
sF0.03
I0
sF0.038
F0.01
sF0.087
F0.01
sF0.109
F0.01
sF0.06
F0.01
sF0.181
I0
sF0.009000000000000001
F0.01
sF0.166
F0.03
sF0.047
I0
sF0.266
F0.01
sF0.024999999999999998
I0
sF0.217
I0
sF0.018
I0
sF0.016999999999999998
I0
sF0.045
F0.01
sF0.032
I0
sF0.007
F0.01
sF0.083
F0.01
sF0.6
I0
sF0.004
I0
sF0.008
F0.01
sF0.3
F0.01
sF0.4
F0.02
sF0.194
I0
sF0.054
F0.01
sF0.238
I0
sF0.036
I0
sF0.464
I0
sF0.142
F0.01
sF0.619
F0.02
sF0.027
I0
sF0.06999999999999999
I0
sF0.178
I0
sF0.476
I0
sF0.2
F0.01
sF0.1
F0.01
sF0.111
I0
sF0.141
F0.01
sF0.361
I0
sF0.333
F0.03
sF0.107
F0.01
sF0.133
F0.01
sF0.177
F0.01
sF0.019
I0
sF0.095
I0
sF0.034999999999999996
F0.01
sF0.699
I0
sF0.057
I0
sF0.9999999999999999
F0.09
sa(dp562
F0.0
F0.79
sF0.5
F0.02
sF0.066
I0
sF0.866
I0
sF0.055
I0
sF0.666
F0.02
sF0.071
I0
sF0.020999999999999998
I0
sF0.095
I0
sF0.106
I0
sF0.009000000000000001
I0
sF0.007
I0
sF0.051
I0
sF0.29
I0
sF0.06999999999999999
I0
sF0.03
I0
sF0.019
I0
sF0.087
I0
sF0.109
I0
sF0.06
I0
sF0.181
I0
sF0.036
F0.01
sF0.166
F0.01
sF0.047
I0
sF0.464
I0
sF0.024999999999999998
I0
sF0.217
I0
sF0.018
I0
sF0.016999999999999998
I0
sF0.045
I0
sF0.008
I0
sF0.028
I0
sF0.083
I0
sF0.3
I0
sF0.004
I0
sF0.032
I0
sF0.6
F0.01
sF0.2
I0
sF0.194
I0
sF0.054
I0
sF0.238
I0
sF0.133
I0
sF0.142
I0
sF0.619
I0
sF0.285
F0.01
sF0.034999999999999996
I0
sF0.178
I0
sF0.476
I0
sF0.4
F0.01
sF0.1
F0.02
sF0.111
I0
sF0.141
I0
sF0.333
F0.01
sF0.19
I0
sF0.107
I0
sF0.266
F0.02
sF0.177
I0
sF0.038
I0
sF0.361
I0
sF0.027
I0
sF0.699
F0.03
sF0.057
I0
sF0.9999999999999999
F0.04
sa(dp563
I0
I0
sI1
F0.25
sI2
F0.15
sI3
F0.09
sI4
F0.07
sI5
F0.09
sI6
F0.08
sI7
F0.03
sI8
F0.03
sI9
F0.03
sI10
F0.01
sI11
F0.03
sI12
F0.02
sI13
F0.03
sI14
I0
sI15
F0.02
sI16
F0.01
sI18
F0.01
sI19
I0
sI20
I0
sI21
F0.01
sI23
I0
sI25
I0
sI27
F0.01
sI29
F0.02
sI30
I0
sI38
F0.01
sI56
I0
sa(dp564
I0
I0
sI1
F0.39
sI2
F0.27
sI3
F0.14
sI4
F0.06
sI5
F0.09
sI6
F0.02
sI7
F0.01
sI8
I0
sI9
I0
sI10
F0.01
sI11
F0.01
sI12
I0
sI13
I0
sI14
I0
sI15
I0
sI16
I0
sI18
I0
sI19
I0
sI20
I0
sI21
I0
sI23
I0
sI25
I0
sI27
I0
sI29
I0
sI30
I0
sI38
I0
sI56
I0
sa(dp565
I0
I0
sI1
F0.0301010101010101
sI2
F0.07151515151515152
sI3
F0.10828282828282829
sI4
F0.19414141414141414
sI5
F0.23515151515151514
sI6
F0.1987878787878788
sI7
F0.10565656565656566
sI8
F0.03939393939393939
sI9
F0.014747474747474747
sI10
F0.0018181818181818182
sI11
F0.00040404040404040404
sI12
I0
sI13
I0
sI14
I0
sI15
I0
sI16
I0
sI17
I0
sI18
I0
sI19
I0
sI20
I0
sI21
I0
sI22
I0
sI23
I0
sI24
I0
sI25
I0
sI26
I0
sI27
I0
sI28
I0
sI29
I0
sI30
I0
sa(dp566
I0
I0
sI1
F0.024646464646464646
sI2
F0.05191919191919192
sI3
F0.04909090909090909
sI4
F0.0698989898989899
sI5
F0.08303030303030302
sI6
F0.08383838383838384
sI7
F0.08848484848484849
sI8
F0.08727272727272728
sI9
F0.0692929292929293
sI10
F0.06
sI11
F0.05656565656565657
sI12
F0.05494949494949495
sI13
F0.04363636363636364
sI14
F0.038585858585858585
sI15
F0.03333333333333333
sI16
F0.029696969696969697
sI17
F0.026464646464646465
sI18
F0.025050505050505052
sI19
F0.014141414141414142
sI20
F0.006868686868686869
sI21
F0.0024242424242424242
sI22
F0.0008080808080808081
sI23
I0
sI24
I0
sI25
I0
sI26
I0
sI27
I0
sI28
I0
sI29
I0
sI30
I0
satp567
ba(lp568
g12
(g13
(I0
tp569
g15
tp570
Rp571
((I1
(I3
tp572
g22
I00
(lp573
g26
ag27
ag28
atp574
(Ntp575
tp576
ba(dp577
g66
(dp578
g68
g538
sg69
(lp579
(dp580
g72
g73
(I0
I3
I1
tp581
Rp582
sg76
g558
sasstp583
bbsI2
g3
(g4
g5
Ntp584
Rp585
g3
(g8
g5
Ntp586
Rp587
((lp588
g12
(g13
(I0
tp589
g15
tp590
Rp591
((I1
(I3
tp592
g22
I00
(lp593
g26
ag27
ag28
atp594
(Ntp595
tp596
bag12
(g13
(I0
tp597
g15
tp598
Rp599
((I1
(I2
tp600
g22
I00
(lp601
g37
ag38
atp602
(Ntp603
tp604
ba(lp605
g12
(g43
(I0
tp606
g15
tp607
Rp608
(I1
(I3
I2
tp609
g22
I00
(lp610
(dp611
F0.0
F0.73
sF0.5
I0
sF0.666
I0
sF0.066
I0
sF0.866
I0
sF0.055
I0
sF0.285
I0
sF0.142
F0.01
sF0.020999999999999998
I0
sF0.095
I0
sF0.106
I0
sF0.007
I0
sF0.051
I0
sF0.29
I0
sF0.06999999999999999
I0
sF0.03
I0
sF0.019
I0
sF0.087
F0.01
sF0.109
I0
sF0.06
F0.01
sF0.181
I0
sF0.009000000000000001
F0.01
sF0.166
F0.01
sF0.047
F0.01
sF0.464
I0
sF0.024999999999999998
I0
sF0.217
I0
sF0.018
I0
sF0.016999999999999998
I0
sF0.045
F0.01
sF0.032
I0
sF0.028
I0
sF0.083
I0
sF0.6
I0
sF0.008
I0
sF0.004
F0.01
sF0.3
I0
sF0.4
F0.01
sF0.194
I0
sF0.054
F0.01
sF0.238
F0.01
sF0.266
I0
sF0.071
F0.01
sF0.619
I0
sF0.027
I0
sF0.036
I0
sF0.178
F0.01
sF0.476
I0
sF0.2
F0.04
sF0.1
F0.01
sF0.111
F0.01
sF0.141
I0
sF0.333
F0.06
sF0.19
I0
sF0.107
I0
sF0.133
I0
sF0.177
I0
sF0.038
I0
sF0.361
I0
sF0.034999999999999996
F0.01
sF0.699
I0
sF0.057
I0
sF0.9999999999999999
F0.01
sa(dp612
F0.0
F0.97
sF0.5
I0
sF0.666
I0
sF0.066
I0
sF0.866
I0
sF0.055
I0
sF0.285
I0
sF0.071
I0
sF0.020999999999999998
I0
sF0.095
I0
sF0.03
I0
sF0.007
I0
sF0.051
I0
sF0.29
I0
sF0.06999999999999999
I0
sF0.019
I0
sF0.087
I0
sF0.109
I0
sF0.06
I0
sF0.181
I0
sF0.018
I0
sF0.083
I0
sF0.047
I0
sF0.464
I0
sF0.217
I0
sF0.009000000000000001
I0
sF0.016999999999999998
I0
sF0.045
I0
sF0.008
I0
sF0.028
I0
sF0.166
I0
sF0.4
I0
sF0.6
I0
sF0.004
I0
sF0.032
I0
sF0.3
I0
sF0.2
I0
sF0.194
I0
sF0.054
I0
sF0.238
I0
sF0.266
I0
sF0.142
I0
sF0.619
I0
sF0.027
I0
sF0.036
I0
sF0.178
I0
sF0.476
I0
sF0.024999999999999998
I0
sF0.1
F0.02
sF0.111
I0
sF0.141
I0
sF0.333
I0
sF0.19
I0
sF0.107
I0
sF0.133
I0
sF0.177
I0
sF0.038
I0
sF0.361
I0
sF0.034999999999999996
I0
sF0.9999999999999999
F0.01
sF0.699
I0
sF0.057
I0
sF0.106
I0
sa(dp613
I0
I0
sI1
F0.23
sI2
F0.16
sI3
F0.15
sI4
F0.06
sI5
F0.1
sI6
F0.07
sI7
F0.04
sI8
F0.03
sI9
F0.01
sI10
F0.02
sI11
F0.02
sI12
F0.02
sI13
I0
sI14
I0
sI15
F0.01
sI16
F0.01
sI18
F0.01
sI19
I0
sI20
I0
sI21
F0.02
sI23
F0.01
sI25
F0.01
sI27
I0
sI29
F0.01
sI30
F0.01
sI38
I0
sI56
I0
sa(dp614
I0
I0
sI1
F0.35
sI2
F0.41
sI3
F0.13
sI4
F0.04
sI5
F0.04
sI6
I0
sI7
F0.02
sI8
F0.01
sI9
I0
sI10
I0
sI11
I0
sI12
I0
sI13
I0
sI14
I0
sI15
I0
sI16
I0
sI18
I0
sI19
I0
sI20
I0
sI21
I0
sI23
I0
sI25
I0
sI27
I0
sI29
I0
sI30
I0
sI38
I0
sI56
I0
sa(dp615
I0
I0
sI1
F0.026060606060606062
sI2
F0.06606060606060606
sI3
F0.13070707070707072
sI4
F0.24141414141414141
sI5
F0.2634343434343434
sI6
F0.18262626262626264
sI7
F0.07191919191919192
sI8
F0.015353535353535354
sI9
F0.0024242424242424242
sI10
I0
sI11
I0
sI12
I0
sI13
I0
sI14
I0
sI15
I0
sI16
I0
sI17
I0
sI18
I0
sI19
I0
sI20
I0
sI21
I0
sI22
I0
sI23
I0
sI24
I0
sI25
I0
sI26
I0
sI27
I0
sI28
I0
sI29
I0
sI30
I0
sa(dp616
I0
I0
sI1
F0.021616161616161617
sI2
F0.041212121212121214
sI3
F0.04505050505050505
sI4
F0.06161616161616162
sI5
F0.058383838383838385
sI6
F0.06686868686868687
sI7
F0.07191919191919192
sI8
F0.07151515151515152
sI9
F0.06727272727272728
sI10
F0.06727272727272728
sI11
F0.05656565656565657
sI12
F0.05595959595959596
sI13
F0.047474747474747475
sI14
F0.03676767676767677
sI15
F0.031313131313131314
sI16
F0.026262626262626262
sI17
F0.02282828282828283
sI18
F0.021414141414141413
sI19
F0.02181818181818182
sI20
F0.021414141414141413
sI21
F0.021212121212121213
sI22
F0.019797979797979797
sI23
F0.01696969696969697
sI24
F0.011717171717171718
sI25
F0.007474747474747475
sI26
F0.0048484848484848485
sI27
F0.0026262626262626263
sI28
F0.0006060606060606061
sI29
F0.00020202020202020202
sI30
I0
satp617
ba(lp618
g12
(g13
(I0
tp619
g15
tp620
Rp621
((I1
(I3
tp622
g22
I00
(lp623
g26
ag27
ag28
atp624
(Ntp625
tp626
ba(dp627
g66
(dp628
g68
g588
sg69
(lp629
(dp630
g72
g73
(I0
I3
I1
tp631
Rp632
sg76
g608
sasstp633
bbssS'KM Path Sampling'
p634
(dp635
I0
g3
(g4
g5
Ntp636
Rp637
g3
(g8
g5
Ntp638
Rp639
((lp640
g12
(g13
(I0
tp641
g15
tp642
Rp643
((I1
(I3
tp644
g22
I00
(lp645
g26
ag27
ag28
atp646
(Ntp647
tp648
bag12
(g13
(I0
tp649
g15
tp650
Rp651
((I1
(I2
tp652
g22
I00
(lp653
g37
ag38
atp654
(Ntp655
tp656
ba(lp657
g12
(g43
(I0
tp658
g15
tp659
Rp660
(I1
(I3
I2
tp661
g22
I00
(lp662
(dp663
F0.0
F0.67
sF0.5
I0
sF0.066
F0.02
sF0.866
I0
sF0.055
I0
sF0.666
I0
sF0.071
I0
sF0.020999999999999998
I0
sF0.095
F0.02
sF0.106
F0.01
sF0.028
I0
sF0.051
F0.02
sF0.29
F0.01
sF0.03
I0
sF0.038
F0.01
sF0.087
F0.01
sF0.285
I0
sF0.109
F0.01
sF0.06
I0
sF0.181
I0
sF0.009000000000000001
F0.01
sF0.166
F0.02
sF0.047
F0.01
sF0.464
I0
sF0.024999999999999998
I0
sF0.217
I0
sF0.018
I0
sF0.016999999999999998
F0.01
sF0.045
F0.01
sF0.008
F0.01
sF0.007
F0.01
sF0.083
I0
sF0.6
I0
sF0.032
I0
sF0.004
F0.01
sF0.3
F0.01
sF0.4
I0
sF0.194
I0
sF0.054
I0
sF0.238
I0
sF0.266
I0
sF0.036
I0
sF0.142
I0
sF0.619
I0
sF0.027
I0
sF0.06999999999999999
F0.01
sF0.178
I0
sF0.476
I0
sF0.2
F0.01
sF0.1
F0.05
sF0.111
I0
sF0.141
I0
sF0.333
F0.04
sF0.19
I0
sF0.107
I0
sF0.133
I0
sF0.177
I0
sF0.019
I0
sF0.361
I0
sF0.034999999999999996
F0.01
sF0.699
I0
sF0.057
I0
sF0.9999999999999999
I0
sa(dp664
F0.0
F1.0
sF0.5
I0
sF0.066
I0
sF0.866
I0
sF0.055
I0
sF0.666
I0
sF0.071
I0
sF0.020999999999999998
I0
sF0.095
I0
sF0.03
I0
sF0.007
I0
sF0.051
I0
sF0.29
I0
sF0.019
I0
sF0.087
I0
sF0.285
I0
sF0.109
I0
sF0.06
I0
sF0.181
I0
sF0.018
I0
sF0.083
I0
sF0.047
I0
sF0.464
I0
sF0.217
I0
sF0.009000000000000001
I0
sF0.016999999999999998
I0
sF0.045
I0
sF0.008
I0
sF0.028
I0
sF0.166
I0
sF0.4
I0
sF0.6
I0
sF0.004
I0
sF0.032
I0
sF0.3
I0
sF0.1
I0
sF0.194
I0
sF0.054
I0
sF0.238
I0
sF0.266
I0
sF0.036
I0
sF0.142
I0
sF0.619
I0
sF0.027
I0
sF0.06999999999999999
I0
sF0.178
I0
sF0.476
I0
sF0.2
I0
sF0.024999999999999998
I0
sF0.111
I0
sF0.141
I0
sF0.333
I0
sF0.19
I0
sF0.107
I0
sF0.133
I0
sF0.177
I0
sF0.038
I0
sF0.361
I0
sF0.034999999999999996
I0
sF0.9999999999999999
I0
sF0.699
I0
sF0.057
I0
sF0.106
I0
sa(dp665
I0
I0
sI1
F0.14
sI2
F0.13
sI3
F0.14
sI4
F0.1
sI5
F0.13
sI6
F0.07
sI7
F0.05
sI8
F0.01
sI9
I0
sI10
I0
sI11
F0.03
sI12
F0.01
sI13
F0.03
sI14
I0
sI15
F0.01
sI16
F0.01
sI18
F0.02
sI19
F0.01
sI20
F0.01
sI21
F0.02
sI23
F0.01
sI25
F0.01
sI27
F0.01
sI29
F0.02
sI30
F0.01
sI38
F0.01
sI56
F0.01
sa(dp666
I0
I0
sI1
F0.27
sI2
F0.6
sI3
F0.07
sI4
F0.02
sI5
F0.02
sI6
I0
sI7
F0.01
sI8
I0
sI9
F0.01
sI10
I0
sI11
I0
sI12
I0
sI13
I0
sI14
I0
sI15
I0
sI16
I0
sI18
I0
sI19
I0
sI20
I0
sI21
I0
sI23
I0
sI25
I0
sI27
I0
sI29
I0
sI30
I0
sI38
I0
sI56
I0
sa(dp667
I0
I0
sI1
F0.023636363636363636
sI2
F0.05696969696969697
sI3
F0.12383838383838384
sI4
F0.201010101010101
sI5
F0.22565656565656567
sI6
F0.17575757575757575
sI7
F0.09919191919191919
sI8
F0.046464646464646465
sI9
F0.02282828282828283
sI10
F0.013737373737373737
sI11
F0.006868686868686869
sI12
F0.0032323232323232323
sI13
F0.0008080808080808081
sI14
I0
sI15
I0
sI16
I0
sI17
I0
sI18
I0
sI19
I0
sI20
I0
sI21
I0
sI22
I0
sI23
I0
sI24
I0
sI25
I0
sI26
I0
sI27
I0
sI28
I0
sI29
I0
sI30
I0
sa(dp668
I0
I0
sI1
F0.020404040404040404
sI2
F0.03434343434343434
sI3
F0.05070707070707071
sI4
F0.0707070707070707
sI5
F0.08868686868686869
sI6
F0.09595959595959595
sI7
F0.09676767676767677
sI8
F0.09373737373737374
sI9
F0.09090909090909091
sI10
F0.08444444444444445
sI11
F0.07454545454545454
sI12
F0.06202020202020202
sI13
F0.04606060606060606
sI14
F0.03272727272727273
sI15
F0.023434343434343436
sI16
F0.015353535353535354
sI17
F0.010101010101010102
sI18
F0.005454545454545455
sI19
F0.0024242424242424242
sI20
F0.00101010101010101
sI21
F0.00020202020202020202
sI22
I0
sI23
I0
sI24
I0
sI25
I0
sI26
I0
sI27
I0
sI28
I0
sI29
I0
sI30
I0
satp669
ba(lp670
g12
(g13
(I0
tp671
g15
tp672
Rp673
((I1
(I3
tp674
g22
I00
(lp675
g26
ag27
ag28
atp676
(Ntp677
tp678
ba(dp679
g66
(dp680
g68
g640
sg69
(lp681
(dp682
g72
g73
(I0
I3
I1
tp683
Rp684
sg76
g660
sasstp685
bbsI1
g3
(g4
g5
Ntp686
Rp687
g3
(g8
g5
Ntp688
Rp689
((lp690
g12
(g13
(I0
tp691
g15
tp692
Rp693
((I1
(I3
tp694
g22
I00
(lp695
g26
ag27
ag28
atp696
(Ntp697
tp698
bag12
(g13
(I0
tp699
g15
tp700
Rp701
((I1
(I2
tp702
g22
I00
(lp703
g37
ag38
atp704
(Ntp705
tp706
ba(lp707
g12
(g43
(I0
tp708
g15
tp709
Rp710
(I1
(I3
I2
tp711
g22
I00
(lp712
(dp713
F0.0
F0.6764705882352942
sF0.5
I0
sF0.066
F0.00980392156862745
sF0.866
I0
sF0.055
F0.00980392156862745
sF0.666
F0.00980392156862745
sF0.071
I0
sF0.020999999999999998
I0
sF0.095
I0
sF0.106
I0
sF0.028
I0
sF0.051
F0.00980392156862745
sF0.29
F0.00980392156862745
sF0.03
I0
sF0.038
F0.0196078431372549
sF0.087
I0
sF0.285
I0
sF0.109
I0
sF0.06
F0.00980392156862745
sF0.181
I0
sF0.018
F0.00980392156862745
sF0.166
F0.0196078431372549
sF0.047
F0.0196078431372549
sF0.464
I0
sF0.024999999999999998
I0
sF0.217
I0
sF0.009000000000000001
I0
sF0.016999999999999998
I0
sF0.045
I0
sF0.008
F0.00980392156862745
sF0.007
F0.00980392156862745
sF0.083
I0
sF0.6
I0
sF0.032
I0
sF0.004
F0.00980392156862745
sF0.3
I0
sF0.1
F0.0196078431372549
sF0.194
I0
sF0.054
F0.00980392156862745
sF0.238
F0.00980392156862745
sF0.133
I0
sF0.036
I0
sF0.142
I0
sF0.619
I0
sF0.027
I0
sF0.06999999999999999
I0
sF0.178
I0
sF0.476
I0
sF0.2
F0.029411764705882353
sF0.4
F0.00980392156862745
sF0.111
I0
sF0.141
I0
sF0.333
F0.029411764705882353
sF0.19
I0
sF0.107
I0
sF0.266
F0.00980392156862745
sF0.177
F0.00980392156862745
sF0.019
I0
sF0.361
I0
sF0.034999999999999996
F0.0196078431372549
sF0.699
I0
sF0.057
I0
sF0.9999999999999999
F0.0196078431372549
sa(dp714
F0.0
F1.0
sF0.5
I0
sF0.066
I0
sF0.866
I0
sF0.055
I0
sF0.666
I0
sF0.071
I0
sF0.020999999999999998
I0
sF0.095
I0
sF0.03
I0
sF0.007
I0
sF0.051
I0
sF0.29
I0
sF0.019
I0
sF0.087
I0
sF0.285
I0
sF0.109
I0
sF0.06
I0
sF0.181
I0
sF0.018
I0
sF0.083
I0
sF0.047
I0
sF0.464
I0
sF0.217
I0
sF0.009000000000000001
I0
sF0.016999999999999998
I0
sF0.045
I0
sF0.008
I0
sF0.028
I0
sF0.166
I0
sF0.4
I0
sF0.6
I0
sF0.004
I0
sF0.032
I0
sF0.3
I0
sF0.1
I0
sF0.194
I0
sF0.054
I0
sF0.238
I0
sF0.266
I0
sF0.036
I0
sF0.142
I0
sF0.619
I0
sF0.027
I0
sF0.06999999999999999
I0
sF0.178
I0
sF0.476
I0
sF0.2
I0
sF0.024999999999999998
I0
sF0.111
I0
sF0.141
I0
sF0.333
I0
sF0.19
I0
sF0.107
I0
sF0.133
I0
sF0.177
I0
sF0.038
I0
sF0.361
I0
sF0.034999999999999996
I0
sF0.9999999999999999
I0
sF0.699
I0
sF0.057
I0
sF0.106
I0
sa(dp715
I0
I0
sI1
F0.10784313725490197
sI2
F0.13725490196078433
sI3
F0.19607843137254902
sI4
F0.0784313725490196
sI5
F0.09803921568627451
sI6
F0.10784313725490197
sI7
F0.0392156862745098
sI8
F0.029411764705882353
sI9
F0.0196078431372549
sI10
F0.00980392156862745
sI11
F0.058823529411764705
sI12
F0.0196078431372549
sI13
F0.0196078431372549
sI14
I0
sI15
F0.00980392156862745
sI16
I0
sI18
I0
sI19
I0
sI20
I0
sI21
F0.00980392156862745
sI23
F0.00980392156862745
sI25
F0.00980392156862745
sI27
F0.00980392156862745
sI29
F0.00980392156862745
sI30
F0.00980392156862745
sI38
F0.00980392156862745
sI56
I0
sa(dp716
I0
I0
sI1
F0.2549019607843137
sI2
F0.6568627450980392
sI3
F0.058823529411764705
sI4
F0.0196078431372549
sI5
I0
sI6
F0.00980392156862745
sI7
I0
sI8
I0
sI9
I0
sI10
I0
sI11
I0
sI12
I0
sI13
I0
sI14
I0
sI15
I0
sI16
I0
sI18
I0
sI19
I0
sI20
I0
sI21
I0
sI23
I0
sI25
I0
sI27
I0
sI29
I0
sI30
I0
sI38
I0
sI56
I0
sa(dp717
I0
I0
sI1
F0.020966802562609202
sI2
F0.0401863715783343
sI3
F0.09299165210638712
sI4
F0.1712288875946418
sI5
F0.20442632498543972
sI6
F0.1850126189089497
sI7
F0.1347311201708406
sI8
F0.07979033197437391
sI9
F0.041933605125218404
sI10
F0.018831294894195303
sI11
F0.007183071248301301
sI12
F0.0025237817899437004
sI13
F0.00019413706076490002
sI14
I0
sI15
I0
sI16
I0
sI17
I0
sI18
I0
sI19
I0
sI20
I0
sI21
I0
sI22
I0
sI23
I0
sI24
I0
sI25
I0
sI26
I0
sI27
I0
sI28
I0
sI29
I0
sI30
I0
sa(dp718
I0
I0
sI1
F0.05186385737439222
sI2
F0.06050783360345759
sI3
F0.07023230686115613
sI4
F0.07995678011885467
sI5
F0.09076175040518639
sI6
F0.0940032414910859
sI7
F0.097784981091302
sI8
F0.09724473257698542
sI9
F0.08914100486223663
sI10
F0.07725553754727174
sI11
F0.06266882766072393
sI12
F0.045921123716909776
sI13
F0.03457590491626148
sI14
F0.02377093462992977
sI15
F0.012965964343598054
sI16
F0.007023230686115613
sI17
F0.0032414910858995136
sI18
F0.0010804970286331713
sI19
I0
sI20
I0
sI21
I0
sI22
I0
sI23
I0
sI24
I0
sI25
I0
sI26
I0
sI27
I0
sI28
I0
sI29
I0
sI30
I0
satp719
ba(lp720
g12
(g13
(I0
tp721
g15
tp722
Rp723
((I1
(I3
tp724
g22
I00
(lp725
g26
ag27
ag28
atp726
(Ntp727
tp728
ba(dp729
g66
(dp730
g68
g690
sg69
(lp731
(dp732
g72
g73
(I0
I3
I1
tp733
Rp734
sg76
g710
sasstp735
bbsI2
g3
(g4
g5
Ntp736
Rp737
g3
(g8
g5
Ntp738
Rp739
((lp740
g12
(g13
(I0
tp741
g15
tp742
Rp743
((I1
(I3
tp744
g22
I00
(lp745
g26
ag27
ag28
atp746
(Ntp747
tp748
bag12
(g13
(I0
tp749
g15
tp750
Rp751
((I1
(I2
tp752
g22
I00
(lp753
g37
ag38
atp754
(Ntp755
tp756
ba(lp757
g12
(g43
(I0
tp758
g15
tp759
Rp760
(I1
(I3
I2
tp761
g22
I00
(lp762
(dp763
F0.0
F0.6952380952380952
sF0.5
I0
sF0.066
F0.009523809523809525
sF0.866
I0
sF0.055
I0
sF0.666
I0
sF0.071
I0
sF0.020999999999999998
F0.009523809523809525
sF0.095
F0.01904761904761905
sF0.106
F0.009523809523809525
sF0.028
I0
sF0.051
F0.009523809523809525
sF0.29
F0.009523809523809525
sF0.03
I0
sF0.038
F0.009523809523809525
sF0.087
F0.009523809523809525
sF0.285
I0
sF0.109
F0.009523809523809525
sF0.06
I0
sF0.181
F0.009523809523809525
sF0.009000000000000001
F0.009523809523809525
sF0.166
F0.01904761904761905
sF0.047
F0.009523809523809525
sF0.133
F0.009523809523809525
sF0.024999999999999998
I0
sF0.217
I0
sF0.018
I0
sF0.016999999999999998
F0.009523809523809525
sF0.045
F0.009523809523809525
sF0.008
F0.009523809523809525
sF0.007
F0.009523809523809525
sF0.083
I0
sF0.6
I0
sF0.032
I0
sF0.004
F0.009523809523809525
sF0.3
F0.009523809523809525
sF0.4
F0.009523809523809525
sF0.194
I0
sF0.054
I0
sF0.238
I0
sF0.036
I0
sF0.464
I0
sF0.142
I0
sF0.619
I0
sF0.027
I0
sF0.06999999999999999
I0
sF0.178
I0
sF0.476
I0
sF0.1
F0.009523809523809525
sF0.2
F0.01904761904761905
sF0.111
I0
sF0.141
F0.009523809523809525
sF0.333
F0.02857142857142857
sF0.19
I0
sF0.107
I0
sF0.266
F0.009523809523809525
sF0.177
I0
sF0.019
I0
sF0.361
I0
sF0.034999999999999996
I0
sF0.699
I0
sF0.057
I0
sF0.9999999999999999
F0.009523809523809525
sa(dp764
F0.0
F1.0
sF0.5
I0
sF0.066
I0
sF0.866
I0
sF0.055
I0
sF0.666
I0
sF0.071
I0
sF0.020999999999999998
I0
sF0.095
I0
sF0.03
I0
sF0.007
I0
sF0.051
I0
sF0.29
I0
sF0.019
I0
sF0.087
I0
sF0.285
I0
sF0.109
I0
sF0.06
I0
sF0.181
I0
sF0.018
I0
sF0.083
I0
sF0.047
I0
sF0.464
I0
sF0.217
I0
sF0.009000000000000001
I0
sF0.016999999999999998
I0
sF0.045
I0
sF0.008
I0
sF0.028
I0
sF0.166
I0
sF0.4
I0
sF0.6
I0
sF0.004
I0
sF0.032
I0
sF0.3
I0
sF0.1
I0
sF0.194
I0
sF0.054
I0
sF0.238
I0
sF0.266
I0
sF0.036
I0
sF0.142
I0
sF0.619
I0
sF0.027
I0
sF0.06999999999999999
I0
sF0.178
I0
sF0.476
I0
sF0.2
I0
sF0.024999999999999998
I0
sF0.111
I0
sF0.141
I0
sF0.333
I0
sF0.19
I0
sF0.107
I0
sF0.133
I0
sF0.177
I0
sF0.038
I0
sF0.361
I0
sF0.034999999999999996
I0
sF0.9999999999999999
I0
sF0.699
I0
sF0.057
I0
sF0.106
I0
sa(dp765
I0
I0
sI1
F0.1619047619047619
sI2
F0.1523809523809524
sI3
F0.08571428571428572
sI4
F0.09523809523809523
sI5
F0.0761904761904762
sI6
F0.08571428571428572
sI7
F0.06666666666666667
sI8
I0
sI9
F0.01904761904761905
sI10
F0.009523809523809525
sI11
F0.047619047619047616
sI12
F0.01904761904761905
sI13
F0.02857142857142857
sI14
F0.01904761904761905
sI15
F0.009523809523809525
sI16
F0.009523809523809525
sI18
I0
sI19
F0.009523809523809525
sI20
F0.009523809523809525
sI21
F0.01904761904761905
sI23
F0.009523809523809525
sI25
F0.009523809523809525
sI27
F0.009523809523809525
sI29
F0.01904761904761905
sI30
F0.009523809523809525
sI38
F0.009523809523809525
sI56
F0.009523809523809525
sa(dp766
I0
I0
sI1
F0.24761904761904763
sI2
F0.6571428571428571
sI3
F0.047619047619047616
sI4
F0.009523809523809525
sI5
F0.02857142857142857
sI6
F0.009523809523809525
sI7
I0
sI8
I0
sI9
I0
sI10
I0
sI11
I0
sI12
I0
sI13
I0
sI14
I0
sI15
I0
sI16
I0
sI18
I0
sI19
I0
sI20
I0
sI21
I0
sI23
I0
sI25
I0
sI27
I0
sI29
I0
sI30
I0
sI38
I0
sI56
I0
sa(dp767
I0
I0
sI1
F0.023076923076923078
sI2
F0.05036630036630037
sI3
F0.10567765567765568
sI4
F0.18205128205128204
sI5
F0.21208791208791208
sI6
F0.16703296703296702
sI7
F0.09963369963369964
sI8
F0.05989010989010989
sI9
F0.039377289377289376
sI10
F0.028205128205128206
sI11
F0.018131868131868133
sI12
F0.008791208791208791
sI13
F0.0032967032967032967
sI14
F0.001098901098901099
sI15
F0.0007326007326007326
sI16
F0.0003663003663003663
sI17
F0.00018315018315018315
sI18
I0
sI19
I0
sI20
I0
sI21
I0
sI22
I0
sI23
I0
sI24
I0
sI25
I0
sI26
I0
sI27
I0
sI28
I0
sI29
I0
sI30
I0
sa(dp768
I0
I0
sI1
F0.04450261780104712
sI2
F0.058900523560209424
sI3
F0.06893542757417102
sI4
F0.08726003490401396
sI5
F0.09467713787085515
sI6
F0.09816753926701571
sI7
F0.09205933682373472
sI8
F0.0780977312390925
sI9
F0.062390924956369984
sI10
F0.054537521815008726
sI11
F0.04712041884816754
sI12
F0.04144851657940663
sI13
F0.03795811518324607
sI14
F0.031413612565445025
sI15
F0.027050610820244327
sI16
F0.02268760907504363
sI17
F0.017452006980802792
sI18
F0.012216404886561954
sI19
F0.008289703315881327
sI20
F0.005671902268760907
sI21
F0.003926701570680628
sI22
F0.002617801047120419
sI23
F0.0013089005235602095
sI24
F0.0008726003490401396
sI25
F0.0004363001745200698
sI26
I0
sI27
I0
sI28
I0
sI29
I0
sI30
I0
satp769
ba(lp770
g12
(g13
(I0
tp771
g15
tp772
Rp773
((I1
(I3
tp774
g22
I00
(lp775
g26
ag27
ag28
atp776
(Ntp777
tp778
ba(dp779
g66
(dp780
g68
g740
sg69
(lp781
(dp782
g72
g73
(I0
I3
I1
tp783
Rp784
sg76
g760
sasstp785
bbssS'Random Path Sampling'
p786
(dp787
I0
g3
(g4
g5
Ntp788
Rp789
g3
(g8
g5
Ntp790
Rp791
((lp792
g12
(g13
(I0
tp793
g15
tp794
Rp795
((I1
(I3
tp796
g22
I00
(lp797
g26
ag27
ag28
atp798
(Ntp799
tp800
bag12
(g13
(I0
tp801
g15
tp802
Rp803
((I1
(I2
tp804
g22
I00
(lp805
g37
ag38
atp806
(Ntp807
tp808
ba(lp809
g12
(g43
(I0
tp810
g15
tp811
Rp812
(I1
(I3
I2
tp813
g22
I00
(lp814
(dp815
F0.0
F0.6470588235294118
sF0.5
I0
sF0.066
F0.0196078431372549
sF0.866
I0
sF0.055
F0.00980392156862745
sF0.666
I0
sF0.071
I0
sF0.020999999999999998
F0.00980392156862745
sF0.095
F0.00980392156862745
sF0.106
I0
sF0.028
I0
sF0.051
F0.00980392156862745
sF0.29
I0
sF0.03
I0
sF0.019
I0
sF0.087
I0
sF0.285
I0
sF0.109
I0
sF0.06
I0
sF0.181
I0
sF0.009000000000000001
F0.00980392156862745
sF0.166
F0.00980392156862745
sF0.047
I0
sF0.133
F0.00980392156862745
sF0.024999999999999998
I0
sF0.217
I0
sF0.018
I0
sF0.016999999999999998
F0.00980392156862745
sF0.045
F0.00980392156862745
sF0.008
F0.00980392156862745
sF0.007
F0.00980392156862745
sF0.083
I0
sF0.6
I0
sF0.032
I0
sF0.004
F0.00980392156862745
sF0.3
I0
sF0.4
I0
sF0.194
I0
sF0.054
F0.00980392156862745
sF0.238
I0
sF0.036
I0
sF0.464
I0
sF0.142
I0
sF0.619
I0
sF0.027
F0.00980392156862745
sF0.034999999999999996
I0
sF0.178
I0
sF0.476
I0
sF0.2
F0.0392156862745098
sF0.1
F0.029411764705882353
sF0.111
F0.00980392156862745
sF0.141
I0
sF0.333
F0.058823529411764705
sF0.19
I0
sF0.107
F0.00980392156862745
sF0.266
F0.00980392156862745
sF0.177
F0.00980392156862745
sF0.038
I0
sF0.361
I0
sF0.06999999999999999
F0.00980392156862745
sF0.699
I0
sF0.057
I0
sF0.9999999999999999
F0.0196078431372549
sa(dp816
F0.0
F1.0
sF0.5
I0
sF0.066
I0
sF0.866
I0
sF0.055
I0
sF0.666
I0
sF0.071
I0
sF0.020999999999999998
I0
sF0.095
I0
sF0.03
I0
sF0.007
I0
sF0.051
I0
sF0.29
I0
sF0.019
I0
sF0.087
I0
sF0.285
I0
sF0.109
I0
sF0.06
I0
sF0.181
I0
sF0.018
I0
sF0.083
I0
sF0.047
I0
sF0.464
I0
sF0.217
I0
sF0.009000000000000001
I0
sF0.016999999999999998
I0
sF0.045
I0
sF0.008
I0
sF0.028
I0
sF0.166
I0
sF0.4
I0
sF0.6
I0
sF0.004
I0
sF0.032
I0
sF0.3
I0
sF0.1
I0
sF0.194
I0
sF0.054
I0
sF0.238
I0
sF0.266
I0
sF0.036
I0
sF0.142
I0
sF0.619
I0
sF0.027
I0
sF0.06999999999999999
I0
sF0.178
I0
sF0.476
I0
sF0.2
I0
sF0.024999999999999998
I0
sF0.111
I0
sF0.141
I0
sF0.333
I0
sF0.19
I0
sF0.107
I0
sF0.133
I0
sF0.177
I0
sF0.038
I0
sF0.361
I0
sF0.034999999999999996
I0
sF0.9999999999999999
I0
sF0.699
I0
sF0.057
I0
sF0.106
I0
sa(dp817
I0
I0
sI1
F0.14705882352941177
sI2
F0.1568627450980392
sI3
F0.14705882352941177
sI4
F0.06862745098039216
sI5
F0.09803921568627451
sI6
F0.08823529411764706
sI7
F0.0196078431372549
sI8
F0.0392156862745098
sI9
F0.029411764705882353
sI10
F0.0196078431372549
sI11
F0.029411764705882353
sI12
F0.00980392156862745
sI13
F0.00980392156862745
sI14
F0.0196078431372549
sI15
F0.0196078431372549
sI16
I0
sI18
F0.00980392156862745
sI19
F0.00980392156862745
sI20
F0.00980392156862745
sI21
F0.0196078431372549
sI23
F0.00980392156862745
sI25
I0
sI27
I0
sI29
F0.0196078431372549
sI30
F0.00980392156862745
sI38
F0.00980392156862745
sI56
I0
sa(dp818
I0
I0
sI1
F0.2647058823529412
sI2
F0.6568627450980392
sI3
F0.00980392156862745
sI4
F0.0392156862745098
sI5
F0.0196078431372549
sI6
F0.00980392156862745
sI7
I0
sI8
I0
sI9
I0
sI10
I0
sI11
I0
sI12
I0
sI13
I0
sI14
I0
sI15
I0
sI16
I0
sI18
I0
sI19
I0
sI20
I0
sI21
I0
sI23
I0
sI25
I0
sI27
I0
sI29
I0
sI30
I0
sI38
I0
sI56
I0
sa(dp819
I0
I0
sI1
F0.0219374878664337
sI2
F0.044069112793632306
sI3
F0.0896913220733838
sI4
F0.15744515628033393
sI5
F0.1997670355270821
sI6
F0.18132401475441662
sI7
F0.12385944476800621
sI8
F0.07804309842748981
sI9
F0.048728402251989905
sI10
F0.030091244418559503
sI11
F0.015919238982721802
sI12
F0.006018248883711901
sI13
F0.0021355076684139
sI14
F0.0007765482430596001
sI15
F0.00019413706076490002
sI16
I0
sI17
I0
sI18
I0
sI19
I0
sI20
I0
sI21
I0
sI22
I0
sI23
I0
sI24
I0
sI25
I0
sI26
I0
sI27
I0
sI28
I0
sI29
I0
sI30
I0
sa(dp820
I0
I0
sI1
F0.028968371268105232
sI2
F0.0381318356488324
sI3
F0.04936446940585279
sI4
F0.06296186816435116
sI5
F0.07478569317174105
sI6
F0.08690511380431569
sI7
F0.08867868755542418
sI8
F0.08690511380431569
sI9
F0.08454034880283771
sI10
F0.0756724800472953
sI11
F0.06650901566656814
sI12
F0.055867573159917236
sI13
F0.04906887378066804
sI14
F0.04020100502512563
sI15
F0.0319243275199527
sI16
F0.02453443689033402
sI17
F0.01744014188590009
sI18
F0.012415016257759386
sI19
F0.008276677505172924
sI20
F0.006207508128879693
sI21
F0.004433934377771209
sI22
F0.0026603606266627253
sI23
F0.0017735737511084836
sI24
F0.0008867868755542418
sI25
F0.0005911912503694946
sI26
F0.0002955956251847473
sI27
I0
sI28
I0
sI29
I0
sI30
I0
satp821
ba(lp822
g12
(g13
(I0
tp823
g15
tp824
Rp825
((I1
(I3
tp826
g22
I00
(lp827
g26
ag27
ag28
atp828
(Ntp829
tp830
ba(dp831
g66
(dp832
g68
g792
sg69
(lp833
(dp834
g72
g73
(I0
I3
I1
tp835
Rp836
sg76
g812
sasstp837
bbsI1
g3
(g4
g5
Ntp838
Rp839
g3
(g8
g5
Ntp840
Rp841
((lp842
g12
(g13
(I0
tp843
g15
tp844
Rp845
((I1
(I3
tp846
g22
I00
(lp847
g26
ag27
ag28
atp848
(Ntp849
tp850
bag12
(g13
(I0
tp851
g15
tp852
Rp853
((I1
(I2
tp854
g22
I00
(lp855
g37
ag38
atp856
(Ntp857
tp858
ba(lp859
g12
(g43
(I0
tp860
g15
tp861
Rp862
(I1
(I3
I2
tp863
g22
I00
(lp864
(dp865
F0.0
F0.6952380952380952
sF0.5
I0
sF0.066
I0
sF0.866
I0
sF0.055
F0.009523809523809525
sF0.666
I0
sF0.071
I0
sF0.020999999999999998
F0.009523809523809525
sF0.095
F0.009523809523809525
sF0.106
I0
sF0.007
I0
sF0.051
I0
sF0.29
F0.009523809523809525
sF0.03
I0
sF0.038
F0.01904761904761905
sF0.087
I0
sF0.285
I0
sF0.109
F0.009523809523809525
sF0.06
I0
sF0.181
I0
sF0.018
F0.01904761904761905
sF0.166
F0.02857142857142857
sF0.047
F0.01904761904761905
sF0.464
I0
sF0.024999999999999998
I0
sF0.217
I0
sF0.009000000000000001
I0
sF0.016999999999999998
I0
sF0.045
F0.009523809523809525
sF0.008
F0.009523809523809525
sF0.028
F0.009523809523809525
sF0.083
I0
sF0.6
I0
sF0.032
I0
sF0.004
F0.009523809523809525
sF0.3
F0.009523809523809525
sF0.4
I0
sF0.194
I0
sF0.027
F0.009523809523809525
sF0.238
I0
sF0.266
I0
sF0.036
I0
sF0.142
I0
sF0.619
I0
sF0.054
I0
sF0.06999999999999999
I0
sF0.178
I0
sF0.476
I0
sF0.2
F0.01904761904761905
sF0.1
F0.0380952380952381
sF0.111
I0
sF0.141
I0
sF0.333
F0.02857142857142857
sF0.19
I0
sF0.107
I0
sF0.133
I0
sF0.177
F0.009523809523809525
sF0.019
I0
sF0.361
I0
sF0.034999999999999996
F0.009523809523809525
sF0.699
I0
sF0.057
I0
sF0.9999999999999999
F0.009523809523809525
sa(dp866
F0.0
F1.0
sF0.5
I0
sF0.066
I0
sF0.866
I0
sF0.055
I0
sF0.666
I0
sF0.071
I0
sF0.020999999999999998
I0
sF0.095
I0
sF0.03
I0
sF0.007
I0
sF0.051
I0
sF0.29
I0
sF0.019
I0
sF0.087
I0
sF0.285
I0
sF0.109
I0
sF0.06
I0
sF0.181
I0
sF0.018
I0
sF0.083
I0
sF0.047
I0
sF0.464
I0
sF0.217
I0
sF0.009000000000000001
I0
sF0.016999999999999998
I0
sF0.045
I0
sF0.008
I0
sF0.028
I0
sF0.166
I0
sF0.4
I0
sF0.6
I0
sF0.004
I0
sF0.032
I0
sF0.3
I0
sF0.1
I0
sF0.194
I0
sF0.054
I0
sF0.238
I0
sF0.266
I0
sF0.036
I0
sF0.142
I0
sF0.619
I0
sF0.027
I0
sF0.06999999999999999
I0
sF0.178
I0
sF0.476
I0
sF0.2
I0
sF0.024999999999999998
I0
sF0.111
I0
sF0.141
I0
sF0.333
I0
sF0.19
I0
sF0.107
I0
sF0.133
I0
sF0.177
I0
sF0.038
I0
sF0.361
I0
sF0.034999999999999996
I0
sF0.9999999999999999
I0
sF0.699
I0
sF0.057
I0
sF0.106
I0
sa(dp867
I0
I0
sI1
F0.1523809523809524
sI2
F0.10476190476190476
sI3
F0.1523809523809524
sI4
F0.08571428571428572
sI5
F0.11428571428571428
sI6
F0.10476190476190476
sI7
F0.02857142857142857
sI8
F0.009523809523809525
sI9
F0.0380952380952381
sI10
F0.009523809523809525
sI11
F0.05714285714285714
sI12
F0.01904761904761905
sI13
F0.02857142857142857
sI14
F0.01904761904761905
sI15
F0.009523809523809525
sI16
I0
sI18
F0.009523809523809525
sI19
I0
sI20
I0
sI21
F0.009523809523809525
sI23
F0.009523809523809525
sI25
I0
sI27
I0
sI29
F0.009523809523809525
sI30
F0.009523809523809525
sI38
F0.009523809523809525
sI56
F0.009523809523809525
sa(dp868
I0
I0
sI1
F0.29523809523809524
sI2
F0.6285714285714286
sI3
F0.02857142857142857
sI4
F0.02857142857142857
sI5
I0
sI6
F0.009523809523809525
sI7
I0
sI8
F0.009523809523809525
sI9
I0
sI10
I0
sI11
I0
sI12
I0
sI13
I0
sI14
I0
sI15
I0
sI16
I0
sI18
I0
sI19
I0
sI20
I0
sI21
I0
sI23
I0
sI25
I0
sI27
I0
sI29
I0
sI30
I0
sI38
I0
sI56
I0
sa(dp869
I0
I0
sI1
F0.02032967032967033
sI2
F0.03882783882783883
sI3
F0.09175824175824175
sI4
F0.18516483516483517
sI5
F0.22765567765567765
sI6
F0.20384615384615384
sI7
F0.13644688644688643
sI8
F0.06703296703296703
sI9
F0.022161172161172162
sI10
F0.005860805860805861
sI11
F0.0007326007326007326
sI12
F0.00018315018315018315
sI13
I0
sI14
I0
sI15
I0
sI16
I0
sI17
I0
sI18
I0
sI19
I0
sI20
I0
sI21
I0
sI22
I0
sI23
I0
sI24
I0
sI25
I0
sI26
I0
sI27
I0
sI28
I0
sI29
I0
sI30
I0
sa(dp870
I0
I0
sI1
F0.06504599211563732
sI2
F0.08935611038107753
sI3
F0.11300919842312747
sI4
F0.12680683311432325
sI5
F0.1360052562417871
sI6
F0.1287779237844941
sI7
F0.10183968462549277
sI8
F0.07752956636005257
sI9
F0.056504599211563734
sI10
F0.03942181340341656
sI11
F0.026938239159001315
sI12
F0.0164257555847569
sI13
F0.00985545335085414
sI14
F0.006570302233902759
sI15
F0.003942181340341655
sI16
F0.001314060446780552
sI17
F0.000657030223390276
sI18
I0
sI19
I0
sI20
I0
sI21
I0
sI22
I0
sI23
I0
sI24
I0
sI25
I0
sI26
I0
sI27
I0
sI28
I0
sI29
I0
sI30
I0
satp871
ba(lp872
g12
(g13
(I0
tp873
g15
tp874
Rp875
((I1
(I3
tp876
g22
I00
(lp877
g26
ag27
ag28
atp878
(Ntp879
tp880
ba(dp881
g66
(dp882
g68
g842
sg69
(lp883
(dp884
g72
g73
(I0
I3
I1
tp885
Rp886
sg76
g862
sasstp887
bbsI2
g3
(g4
g5
Ntp888
Rp889
g3
(g8
g5
Ntp890
Rp891
((lp892
g12
(g13
(I0
tp893
g15
tp894
Rp895
((I1
(I3
tp896
g22
I00
(lp897
g26
ag27
ag28
atp898
(Ntp899
tp900
bag12
(g13
(I0
tp901
g15
tp902
Rp903
((I1
(I2
tp904
g22
I00
(lp905
g37
ag38
atp906
(Ntp907
tp908
ba(lp909
g12
(g43
(I0
tp910
g15
tp911
Rp912
(I1
(I3
I2
tp913
g22
I00
(lp914
(dp915
F0.0
F0.5588235294117647
sF0.5
F0.00980392156862745
sF0.066
F0.029411764705882353
sF0.866
I0
sF0.055
F0.00980392156862745
sF0.666
F0.0196078431372549
sF0.071
I0
sF0.020999999999999998
I0
sF0.095
I0
sF0.106
F0.00980392156862745
sF0.007
F0.00980392156862745
sF0.051
F0.0196078431372549
sF0.29
F0.00980392156862745
sF0.03
I0
sF0.038
F0.00980392156862745
sF0.087
F0.00980392156862745
sF0.285
I0
sF0.109
I0
sF0.06
I0
sF0.181
I0
sF0.009000000000000001
F0.00980392156862745
sF0.166
F0.0392156862745098
sF0.047
F0.00980392156862745
sF0.464
I0
sF0.024999999999999998
I0
sF0.217
I0
sF0.018
F0.00980392156862745
sF0.016999999999999998
F0.00980392156862745
sF0.045
F0.00980392156862745
sF0.008
F0.00980392156862745
sF0.028
F0.00980392156862745
sF0.083
I0
sF0.6
I0
sF0.032
I0
sF0.004
F0.00980392156862745
sF0.3
I0
sF0.4
I0
sF0.194
I0
sF0.054
F0.00980392156862745
sF0.238
I0
sF0.133
I0
sF0.036
I0
sF0.142
F0.0196078431372549
sF0.619
I0
sF0.027
F0.00980392156862745
sF0.06999999999999999
I0
sF0.178
I0
sF0.476
I0
sF0.2
F0.0392156862745098
sF0.1
F0.029411764705882353
sF0.111
I0
sF0.141
I0
sF0.333
F0.0392156862745098
sF0.19
I0
sF0.107
I0
sF0.266
F0.00980392156862745
sF0.177
I0
sF0.019
I0
sF0.361
I0
sF0.034999999999999996
I0
sF0.699
I0
sF0.057
I0
sF0.9999999999999999
F0.029411764705882353
sa(dp916
F0.0
F1.0
sF0.5
I0
sF0.066
I0
sF0.866
I0
sF0.055
I0
sF0.666
I0
sF0.071
I0
sF0.020999999999999998
I0
sF0.095
I0
sF0.03
I0
sF0.007
I0
sF0.051
I0
sF0.29
I0
sF0.019
I0
sF0.087
I0
sF0.285
I0
sF0.109
I0
sF0.06
I0
sF0.181
I0
sF0.018
I0
sF0.083
I0
sF0.047
I0
sF0.464
I0
sF0.217
I0
sF0.009000000000000001
I0
sF0.016999999999999998
I0
sF0.045
I0
sF0.008
I0
sF0.028
I0
sF0.166
I0
sF0.4
I0
sF0.6
I0
sF0.004
I0
sF0.032
I0
sF0.3
I0
sF0.1
I0
sF0.194
I0
sF0.054
I0
sF0.238
I0
sF0.266
I0
sF0.036
I0
sF0.142
I0
sF0.619
I0
sF0.027
I0
sF0.06999999999999999
I0
sF0.178
I0
sF0.476
I0
sF0.2
I0
sF0.024999999999999998
I0
sF0.111
I0
sF0.141
I0
sF0.333
I0
sF0.19
I0
sF0.107
I0
sF0.133
I0
sF0.177
I0
sF0.038
I0
sF0.361
I0
sF0.034999999999999996
I0
sF0.9999999999999999
I0
sF0.699
I0
sF0.057
I0
sF0.106
I0
sa(dp917
I0
I0
sI1
F0.09803921568627451
sI2
F0.13725490196078433
sI3
F0.09803921568627451
sI4
F0.10784313725490197
sI5
F0.12745098039215685
sI6
F0.09803921568627451
sI7
F0.06862745098039216
sI8
F0.0196078431372549
sI9
F0.0196078431372549
sI10
I0
sI11
F0.049019607843137254
sI12
F0.00980392156862745
sI13
F0.029411764705882353
sI14
F0.00980392156862745
sI15
F0.00980392156862745
sI16
F0.00980392156862745
sI18
I0
sI19
F0.00980392156862745
sI20
F0.00980392156862745
sI21
F0.00980392156862745
sI23
F0.00980392156862745
sI25
F0.00980392156862745
sI27
F0.00980392156862745
sI29
F0.0196078431372549
sI30
F0.00980392156862745
sI38
F0.00980392156862745
sI56
F0.00980392156862745
sa(dp918
I0
I0
sI1
F0.2647058823529412
sI2
F0.6372549019607843
sI3
F0.029411764705882353
sI4
F0.049019607843137254
sI5
I0
sI6
F0.0196078431372549
sI7
I0
sI8
I0
sI9
I0
sI10
I0
sI11
I0
sI12
I0
sI13
I0
sI14
I0
sI15
I0
sI16
I0
sI18
I0
sI19
I0
sI20
I0
sI21
I0
sI23
I0
sI25
I0
sI27
I0
sI29
I0
sI30
I0
sI38
I0
sI56
I0
sa(dp919
I0
I0
sI1
F0.023296447291788
sI2
F0.0516404581634634
sI3
F0.1120170840613473
sI4
F0.19413706076490003
sI5
F0.22325761987963502
sI6
F0.18384779654436031
sI7
F0.11085226169675791
sI8
F0.05591147350029121
sI9
F0.0283440108716754
sI10
F0.011842360706658901
sI11
F0.0036886041545331006
sI12
F0.0009706853038245001
sI13
F0.00019413706076490002
sI14
I0
sI15
I0
sI16
I0
sI17
I0
sI18
I0
sI19
I0
sI20
I0
sI21
I0
sI22
I0
sI23
I0
sI24
I0
sI25
I0
sI26
I0
sI27
I0
sI28
I0
sI29
I0
sI30
I0
sa(dp920
I0
I0
sI1
F0.04090909090909091
sI2
F0.05537190082644628
sI3
F0.07520661157024794
sI4
F0.10041322314049586
sI5
F0.12768595041322314
sI6
F0.1384297520661157
sI7
F0.13305785123966943
sI8
F0.11859504132231405
sI9
F0.0884297520661157
sI10
F0.05991735537190083
sI11
F0.03636363636363636
sI12
F0.01859504132231405
sI13
F0.005785123966942148
sI14
F0.0012396694214876034
sI15
I0
sI16
I0
sI17
I0
sI18
I0
sI19
I0
sI20
I0
sI21
I0
sI22
I0
sI23
I0
sI24
I0
sI25
I0
sI26
I0
sI27
I0
sI28
I0
sI29
I0
sI30
I0
satp921
ba(lp922
g12
(g13
(I0
tp923
g15
tp924
Rp925
((I1
(I3
tp926
g22
I00
(lp927
g26
ag27
ag28
atp928
(Ntp929
tp930
ba(dp931
g66
(dp932
g68
g892
sg69
(lp933
(dp934
g72
g73
(I0
I3
I1
tp935
Rp936
sg76
g912
sasstp937
bbssS'Metropolized Random Walk Sampling'
p938
(dp939
I0
g3
(g4
g5
Ntp940
Rp941
g3
(g8
g5
Ntp942
Rp943
((lp944
g12
(g13
(I0
tp945
g15
tp946
Rp947
((I1
(I3
tp948
g22
I00
(lp949
g26
ag27
ag28
atp950
(Ntp951
tp952
bag12
(g13
(I0
tp953
g15
tp954
Rp955
((I1
(I2
tp956
g22
I00
(lp957
g37
ag38
atp958
(Ntp959
tp960
ba(lp961
g12
(g43
(I0
tp962
g15
tp963
Rp964
(I1
(I3
I2
tp965
g22
I00
(lp966
(dp967
F0.0
F0.73
sF0.5
I0
sF0.066
F0.02
sF0.866
I0
sF0.055
I0
sF0.333
F0.06
sF0.071
I0
sF0.020999999999999998
I0
sF0.095
F0.01
sF0.03
I0
sF0.007
I0
sF0.051
I0
sF0.29
I0
sF0.019
I0
sF0.087
I0
sF0.285
I0
sF0.109
I0
sF0.06
I0
sF0.181
I0
sF0.018
I0
sF0.083
I0
sF0.047
F0.02
sF0.464
I0
sF0.217
I0
sF0.009000000000000001
I0
sF0.016999999999999998
I0
sF0.045
I0
sF0.008
I0
sF0.028
F0.01
sF0.166
I0
sF0.4
I0
sF0.6
I0
sF0.004
I0
sF0.032
I0
sF0.3
I0
sF0.1
I0
sF0.194
I0
sF0.054
I0
sF0.238
I0
sF0.266
I0
sF0.036
I0
sF0.142
F0.01
sF0.619
I0
sF0.027
I0
sF0.06999999999999999
I0
sF0.178
I0
sF0.476
I0
sF0.024999999999999998
I0
sF0.2
F0.04
sF0.111
I0
sF0.141
I0
sF0.666
F0.02
sF0.19
I0
sF0.107
I0
sF0.133
I0
sF0.177
I0
sF0.038
I0
sF0.361
I0
sF0.034999999999999996
I0
sF0.9999999999999999
F0.07
sF0.699
I0
sF0.057
I0
sF0.106
F0.01
sa(dp968
F0.0
F0.85
sF0.5
I0
sF0.066
I0
sF0.866
I0
sF0.055
I0
sF0.666
I0
sF0.071
I0
sF0.020999999999999998
I0
sF0.095
I0
sF0.03
I0
sF0.007
I0
sF0.051
I0
sF0.29
I0
sF0.019
I0
sF0.087
I0
sF0.285
I0
sF0.109
I0
sF0.06
I0
sF0.181
I0
sF0.018
I0
sF0.083
I0
sF0.047
I0
sF0.464
I0
sF0.217
I0
sF0.009000000000000001
I0
sF0.016999999999999998
I0
sF0.045
F0.01
sF0.008
I0
sF0.028
I0
sF0.166
I0
sF0.4
I0
sF0.6
I0
sF0.004
I0
sF0.032
I0
sF0.3
I0
sF0.1
I0
sF0.194
I0
sF0.054
I0
sF0.238
I0
sF0.266
I0
sF0.036
I0
sF0.142
I0
sF0.619
I0
sF0.027
I0
sF0.06999999999999999
I0
sF0.178
I0
sF0.476
I0
sF0.024999999999999998
I0
sF0.2
F0.03
sF0.111
I0
sF0.141
I0
sF0.333
F0.04
sF0.19
I0
sF0.107
I0
sF0.133
I0
sF0.177
I0
sF0.038
I0
sF0.361
I0
sF0.034999999999999996
I0
sF0.9999999999999999
F0.07
sF0.699
I0
sF0.057
I0
sF0.106
I0
sa(dp969
I0
I0
sI1
F0.34
sI2
F0.22
sI3
F0.13
sI4
F0.05
sI5
F0.06
sI6
F0.06
sI7
F0.07
sI8
F0.02
sI9
I0
sI10
F0.01
sI11
F0.02
sI12
F0.01
sI13
I0
sI14
I0
sI15
F0.01
sI16
I0
sI18
I0
sI19
I0
sI20
I0
sI21
I0
sI23
I0
sI25
I0
sI27
I0
sI29
I0
sI30
I0
sI38
I0
sI56
I0
sa(dp970
I0
I0
sI1
F0.41
sI2
F0.36
sI3
F0.09
sI4
F0.06
sI5
F0.02
sI6
F0.05
sI7
I0
sI8
I0
sI9
I0
sI10
I0
sI11
I0
sI12
F0.01
sI13
I0
sI14
I0
sI15
I0
sI16
I0
sI18
I0
sI19
I0
sI20
I0
sI21
I0
sI23
I0
sI25
I0
sI27
I0
sI29
I0
sI30
I0
sI38
I0
sI56
I0
sa(dp971
I0
I0
sI1
F0.02282828282828283
sI2
F0.05090909090909091
sI3
F0.06666666666666667
sI4
F0.10020202020202021
sI5
F0.11575757575757575
sI6
F0.13454545454545455
sI7
F0.12444444444444444
sI8
F0.09151515151515152
sI9
F0.06626262626262626
sI10
F0.059393939393939395
sI11
F0.06181818181818182
sI12
F0.05191919191919192
sI13
F0.03595959595959596
sI14
F0.015353535353535354
sI15
F0.0024242424242424242
sI16
I0
sI17
I0
sI18
I0
sI19
I0
sI20
I0
sI21
I0
sI22
I0
sI23
I0
sI24
I0
sI25
I0
sI26
I0
sI27
I0
sI28
I0
sI29
I0
sI30
I0
sa(dp972
I0
I0
sI1
F0.02181818181818182
sI2
F0.046464646464646465
sI3
F0.051515151515151514
sI4
F0.06202020202020202
sI5
F0.05515151515151515
sI6
F0.05333333333333334
sI7
F0.06848484848484848
sI8
F0.07111111111111111
sI9
F0.08242424242424243
sI10
F0.07171717171717172
sI11
F0.045858585858585856
sI12
F0.03474747474747475
sI13
F0.03373737373737374
sI14
F0.03373737373737374
sI15
F0.04505050505050505
sI16
F0.039191919191919194
sI17
F0.03494949494949495
sI18
F0.027474747474747475
sI19
F0.02181818181818182
sI20
F0.027676767676767678
sI21
F0.023434343434343436
sI22
F0.022424242424242423
sI23
F0.015151515151515152
sI24
F0.007676767676767677
sI25
F0.0026262626262626263
sI26
F0.00040404040404040404
sI27
I0
sI28
I0
sI29
I0
sI30
I0
satp973
ba(lp974
g12
(g13
(I0
tp975
g15
tp976
Rp977
((I1
(I3
tp978
g22
I00
(lp979
g26
ag27
ag28
atp980
(Ntp981
tp982
ba(dp983
g66
(dp984
g68
g944
sg69
(lp985
(dp986
g72
g73
(I0
I3
I1
tp987
Rp988
sg76
g964
sasstp989
bbsI1
g3
(g4
g5
Ntp990
Rp991
g3
(g8
g5
Ntp992
Rp993
((lp994
g12
(g13
(I0
tp995
g15
tp996
Rp997
((I1
(I3
tp998
g22
I00
(lp999
g26
ag27
ag28
atp1000
(Ntp1001
tp1002
bag12
(g13
(I0
tp1003
g15
tp1004
Rp1005
((I1
(I2
tp1006
g22
I00
(lp1007
g37
ag38
atp1008
(Ntp1009
tp1010
ba(lp1011
g12
(g43
(I0
tp1012
g15
tp1013
Rp1014
(I1
(I3
I2
tp1015
g22
I00
(lp1016
(dp1017
F0.0
F0.68
sF0.5
I0
sF0.066
F0.01
sF0.866
I0
sF0.055
I0
sF0.333
F0.06
sF0.071
I0
sF0.020999999999999998
I0
sF0.19
F0.01
sF0.106
I0
sF0.028
I0
sF0.054
I0
sF0.051
F0.02
sF0.29
I0
sF0.03
I0
sF0.038
F0.01
sF0.087
I0
sF0.109
I0
sF0.06
F0.01
sF0.181
F0.01
sF0.018
I0
sF0.166
F0.02
sF0.047
I0
sF0.464
I0
sF0.217
I0
sF0.009000000000000001
I0
sF0.016999999999999998
F0.01
sF0.045
I0
sF0.008
I0
sF0.007
F0.01
sF0.083
I0
sF0.4
I0
sF0.6
I0
sF0.004
I0
sF0.032
I0
sF0.3
I0
sF0.2
I0
sF0.194
I0
sF0.027
F0.02
sF0.238
I0
sF0.266
I0
sF0.036
I0
sF0.361
I0
sF0.142
I0
sF0.619
I0
sF0.285
F0.01
sF0.06999999999999999
I0
sF0.178
I0
sF0.476
I0
sF0.024999999999999998
I0
sF0.1
F0.01
sF0.111
I0
sF0.141
I0
sF0.666
F0.01
sF0.107
F0.01
sF0.133
I0
sF0.177
I0
sF0.019
I0
sF0.095
I0
sF0.034999999999999996
I0
sF0.699
I0
sF0.057
I0
sF0.9999999999999999
F0.09
sa(dp1018
F0.0
F0.85
sF0.5
I0
sF0.066
F0.01
sF0.866
I0
sF0.1
I0
sF0.055
I0
sF0.333
F0.04
sF0.071
I0
sF0.020999999999999998
I0
sF0.095
I0
sF0.106
I0
sF0.007
I0
sF0.051
I0
sF0.29
I0
sF0.06999999999999999
I0
sF0.03
I0
sF0.019
I0
sF0.087
I0
sF0.109
I0
sF0.06
I0
sF0.181
I0
sF0.018
I0
sF0.166
F0.01
sF0.047
I0
sF0.464
I0
sF0.217
I0
sF0.009000000000000001
I0
sF0.016999999999999998
I0
sF0.045
I0
sF0.008
I0
sF0.028
I0
sF0.083
I0
sF0.6
I0
sF0.004
I0
sF0.032
I0
sF0.3
I0
sF0.2
I0
sF0.194
I0
sF0.054
I0
sF0.238
I0
sF0.266
I0
sF0.036
I0
sF0.142
I0
sF0.619
I0
sF0.285
I0
sF0.034999999999999996
I0
sF0.178
I0
sF0.476
I0
sF0.024999999999999998
I0
sF0.4
F0.01
sF0.111
I0
sF0.141
I0
sF0.666
F0.02
sF0.19
I0
sF0.107
I0
sF0.133
I0
sF0.177
I0
sF0.038
I0
sF0.361
I0
sF0.027
I0
sF0.699
I0
sF0.057
I0
sF0.9999999999999999
F0.06
sa(dp1019
I0
I0
sI1
F0.27
sI2
F0.16
sI3
F0.13
sI4
F0.11
sI5
F0.05
sI6
F0.1
sI7
F0.03
sI8
F0.01
sI9
F0.03
sI10
I0
sI11
F0.02
sI12
F0.01
sI13
F0.02
sI14
I0
sI15
F0.01
sI16
I0
sI18
I0
sI19
F0.01
sI20
I0
sI21
I0
sI23
I0
sI25
F0.01
sI27
F0.01
sI29
F0.02
sI30
I0
sI38
I0
sI56
I0
sa(dp1020
I0
I0
sI1
F0.32
sI2
F0.4
sI3
F0.14
sI4
F0.08
sI5
F0.03
sI6
F0.02
sI7
I0
sI8
I0
sI9
I0
sI10
I0
sI11
F0.01
sI12
I0
sI13
I0
sI14
I0
sI15
I0
sI16
I0
sI18
I0
sI19
I0
sI20
I0
sI21
I0
sI23
I0
sI25
I0
sI27
I0
sI29
I0
sI30
I0
sI38
I0
sI56
I0
sa(dp1021
I0
I0
sI1
F0.02404040404040404
sI2
F0.05131313131313131
sI3
F0.09353535353535354
sI4
F0.16464646464646465
sI5
F0.22
sI6
F0.1923232323232323
sI7
F0.12404040404040403
sI8
F0.0703030303030303
sI9
F0.04101010101010101
sI10
F0.015151515151515152
sI11
F0.0030303030303030303
sI12
F0.0006060606060606061
sI13
I0
sI14
I0
sI15
I0
sI16
I0
sI17
I0
sI18
I0
sI19
I0
sI20
I0
sI21
I0
sI22
I0
sI23
I0
sI24
I0
sI25
I0
sI26
I0
sI27
I0
sI28
I0
sI29
I0
sI30
I0
sa(dp1022
I0
I0
sI1
F0.022626262626262626
sI2
F0.041616161616161614
sI3
F0.05292929292929293
sI4
F0.061414141414141414
sI5
F0.06484848484848485
sI6
F0.06707070707070707
sI7
F0.06626262626262626
sI8
F0.06343434343434344
sI9
F0.06181818181818182
sI10
F0.06303030303030303
sI11
F0.06525252525252526
sI12
F0.054747474747474746
sI13
F0.05171717171717172
sI14
F0.043838383838383836
sI15
F0.033535353535353536
sI16
F0.026262626262626262
sI17
F0.02585858585858586
sI18
F0.02484848484848485
sI19
F0.025050505050505052
sI20
F0.019393939393939394
sI21
F0.01818181818181818
sI22
F0.014545454545454545
sI23
F0.00808080808080808
sI24
F0.005454545454545455
sI25
F0.004646464646464647
sI26
F0.0036363636363636364
sI27
F0.00404040404040404
sI28
F0.004242424242424243
sI29
F0.00101010101010101
sI30
F0.0006060606060606061
satp1023
ba(lp1024
g12
(g13
(I0
tp1025
g15
tp1026
Rp1027
((I1
(I3
tp1028
g22
I00
(lp1029
g26
ag27
ag28
atp1030
(Ntp1031
tp1032
ba(dp1033
g66
(dp1034
g68
g994
sg69
(lp1035
(dp1036
g72
g73
(I0
I3
I1
tp1037
Rp1038
sg76
g1014
sasstp1039
bbsI2
g3
(g4
g5
Ntp1040
Rp1041
g3
(g8
g5
Ntp1042
Rp1043
((lp1044
g12
(g13
(I0
tp1045
g15
tp1046
Rp1047
((I1
(I3
tp1048
g22
I00
(lp1049
g26
ag27
ag28
atp1050
(Ntp1051
tp1052
bag12
(g13
(I0
tp1053
g15
tp1054
Rp1055
((I1
(I2
tp1056
g22
I00
(lp1057
g37
ag38
atp1058
(Ntp1059
tp1060
ba(lp1061
g12
(g43
(I0
tp1062
g15
tp1063
Rp1064
(I1
(I3
I2
tp1065
g22
I00
(lp1066
(dp1067
F0.0
F0.8
sF0.5
F0.01
sF0.666
I0
sF0.066
I0
sF0.866
I0
sF0.055
I0
sF0.285
I0
sF0.142
F0.01
sF0.020999999999999998
I0
sF0.095
I0
sF0.106
I0
sF0.007
I0
sF0.051
I0
sF0.29
F0.01
sF0.03
I0
sF0.019
I0
sF0.087
I0
sF0.109
I0
sF0.06
I0
sF0.181
I0
sF0.009000000000000001
F0.01
sF0.083
I0
sF0.047
F0.01
sF0.464
I0
sF0.217
F0.01
sF0.018
I0
sF0.016999999999999998
I0
sF0.045
F0.01
sF0.008
I0
sF0.028
F0.01
sF0.166
I0
sF0.4
I0
sF0.6
I0
sF0.004
I0
sF0.032
I0
sF0.3
I0
sF0.1
I0
sF0.194
I0
sF0.054
F0.01
sF0.238
I0
sF0.266
I0
sF0.036
I0
sF0.071
F0.01
sF0.619
I0
sF0.027
I0
sF0.06999999999999999
I0
sF0.178
I0
sF0.476
I0
sF0.024999999999999998
I0
sF0.2
F0.01
sF0.111
I0
sF0.141
I0
sF0.333
F0.05
sF0.19
I0
sF0.107
I0
sF0.133
I0
sF0.177
I0
sF0.038
I0
sF0.361
I0
sF0.034999999999999996
I0
sF0.699
I0
sF0.057
I0
sF0.9999999999999999
F0.04
sa(dp1068
F0.0
F0.97
sF0.5
I0
sF0.666
I0
sF0.066
I0
sF0.866
I0
sF0.055
I0
sF0.285
I0
sF0.071
I0
sF0.020999999999999998
I0
sF0.095
I0
sF0.03
I0
sF0.007
I0
sF0.051
I0
sF0.29
I0
sF0.019
I0
sF0.087
I0
sF0.109
I0
sF0.06
I0
sF0.181
I0
sF0.018
I0
sF0.083
I0
sF0.047
I0
sF0.464
I0
sF0.217
I0
sF0.009000000000000001
I0
sF0.016999999999999998
I0
sF0.045
I0
sF0.008
I0
sF0.028
I0
sF0.166
I0
sF0.4
I0
sF0.6
I0
sF0.004
I0
sF0.032
I0
sF0.3
I0
sF0.1
I0
sF0.194
I0
sF0.054
I0
sF0.238
I0
sF0.266
I0
sF0.036
I0
sF0.142
I0
sF0.619
I0
sF0.027
I0
sF0.06999999999999999
I0
sF0.178
I0
sF0.476
I0
sF0.2
I0
sF0.024999999999999998
I0
sF0.111
I0
sF0.141
I0
sF0.333
F0.01
sF0.19
I0
sF0.107
I0
sF0.133
I0
sF0.177
I0
sF0.038
I0
sF0.361
I0
sF0.034999999999999996
I0
sF0.9999999999999999
F0.02
sF0.699
I0
sF0.057
I0
sF0.106
I0
sa(dp1069
I0
I0
sI1
F0.26
sI2
F0.27
sI3
F0.14
sI4
F0.08
sI5
F0.06
sI6
F0.07
sI7
F0.05
sI8
F0.01
sI9
I0
sI10
I0
sI11
F0.02
sI12
I0
sI13
F0.01
sI14
I0
sI15
F0.01
sI16
I0
sI18
F0.01
sI19
I0
sI20
I0
sI21
F0.01
sI23
I0
sI25
I0
sI27
I0
sI29
I0
sI30
I0
sI38
I0
sI56
I0
sa(dp1070
I0
I0
sI1
F0.41
sI2
F0.31
sI3
F0.15
sI4
F0.09
sI5
F0.03
sI6
I0
sI7
I0
sI8
I0
sI9
F0.01
sI10
I0
sI11
I0
sI12
I0
sI13
I0
sI14
I0
sI15
I0
sI16
I0
sI18
I0
sI19
I0
sI20
I0
sI21
I0
sI23
I0
sI25
I0
sI27
I0
sI29
I0
sI30
I0
sI38
I0
sI56
I0
sa(dp1071
I0
I0
sI1
F0.02303030303030303
sI2
F0.04868686868686869
sI3
F0.06686868686868687
sI4
F0.1006060606060606
sI5
F0.1393939393939394
sI6
F0.17515151515151514
sI7
F0.17898989898989898
sI8
F0.1501010101010101
sI9
F0.08222222222222222
sI10
F0.027878787878787878
sI11
F0.006666666666666667
sI12
F0.00040404040404040404
sI13
I0
sI14
I0
sI15
I0
sI16
I0
sI17
I0
sI18
I0
sI19
I0
sI20
I0
sI21
I0
sI22
I0
sI23
I0
sI24
I0
sI25
I0
sI26
I0
sI27
I0
sI28
I0
sI29
I0
sI30
I0
sa(dp1072
I0
I0
sI1
F0.02101010101010101
sI2
F0.03777777777777778
sI3
F0.044848484848484846
sI4
F0.06181818181818182
sI5
F0.062424242424242424
sI6
F0.06464646464646465
sI7
F0.06808080808080808
sI8
F0.07636363636363637
sI9
F0.07757575757575758
sI10
F0.07252525252525252
sI11
F0.06707070707070707
sI12
F0.05353535353535353
sI13
F0.04888888888888889
sI14
F0.04787878787878788
sI15
F0.04242424242424243
sI16
F0.03616161616161616
sI17
F0.02585858585858586
sI18
F0.02404040404040404
sI19
F0.016565656565656565
sI20
F0.015555555555555555
sI21
F0.013535353535353536
sI22
F0.00787878787878788
sI23
F0.0056565656565656566
sI24
F0.0036363636363636364
sI25
F0.0030303030303030303
sI26
F0.0012121212121212121
sI27
I0
sI28
I0
sI29
I0
sI30
I0
satp1073
ba(lp1074
g12
(g13
(I0
tp1075
g15
tp1076
Rp1077
((I1
(I3
tp1078
g22
I00
(lp1079
g26
ag27
ag28
atp1080
(Ntp1081
tp1082
ba(dp1083
g66
(dp1084
g68
g1044
sg69
(lp1085
(dp1086
g72
g73
(I0
I3
I1
tp1087
Rp1088
sg76
g1064
sasstp1089
bbssS'Induced Random Vertex Sampling'
p1090
(dp1091
I0
g3
(g4
g5
Ntp1092
Rp1093
g3
(g8
g5
Ntp1094
Rp1095
((lp1096
g12
(g13
(I0
tp1097
g15
tp1098
Rp1099
((I1
(I3
tp1100
g22
I00
(lp1101
g26
ag27
ag28
atp1102
(Ntp1103
tp1104
bag12
(g13
(I0
tp1105
g15
tp1106
Rp1107
((I1
(I2
tp1108
g22
I00
(lp1109
g37
ag38
atp1110
(Ntp1111
tp1112
ba(lp1113
g12
(g43
(I0
tp1114
g15
tp1115
Rp1116
(I1
(I3
I2
tp1117
g22
I00
(lp1118
(dp1119
F0.0
F0.81
sF0.5
I0
sF0.066
I0
sF0.866
I0
sF0.055
F0.01
sF0.666
F0.02
sF0.071
I0
sF0.020999999999999998
I0
sF0.095
I0
sF0.106
I0
sF0.007
I0
sF0.051
F0.01
sF0.29
I0
sF0.06999999999999999
I0
sF0.03
I0
sF0.019
I0
sF0.087
I0
sF0.109
I0
sF0.06
I0
sF0.181
I0
sF0.018
F0.01
sF0.166
F0.01
sF0.047
I0
sF0.464
I0
sF0.024999999999999998
I0
sF0.217
I0
sF0.009000000000000001
I0
sF0.016999999999999998
I0
sF0.045
I0
sF0.008
I0
sF0.028
F0.01
sF0.083
I0
sF0.027
I0
sF0.6
I0
sF0.004
I0
sF0.032
I0
sF0.3
I0
sF0.4
I0
sF0.194
I0
sF0.054
I0
sF0.238
I0
sF0.266
I0
sF0.142
I0
sF0.619
I0
sF0.285
I0
sF0.036
I0
sF0.178
I0
sF0.476
I0
sF0.1
F0.01
sF0.2
F0.03
sF0.111
I0
sF0.141
I0
sF0.333
F0.01
sF0.19
I0
sF0.107
I0
sF0.133
F0.01
sF0.177
I0
sF0.038
I0
sF0.361
I0
sF0.034999999999999996
I0
sF0.699
I0
sF0.057
I0
sF0.9999999999999999
F0.06
sa(dp1120
F0.0
F1.0
sF0.5
I0
sF0.666
I0
sF0.066
I0
sF0.866
I0
sF0.055
I0
sF0.285
I0
sF0.071
I0
sF0.020999999999999998
I0
sF0.095
I0
sF0.03
I0
sF0.007
I0
sF0.051
I0
sF0.29
I0
sF0.06999999999999999
I0
sF0.019
I0
sF0.087
I0
sF0.109
I0
sF0.06
I0
sF0.181
I0
sF0.018
I0
sF0.083
I0
sF0.047
I0
sF0.464
I0
sF0.217
I0
sF0.009000000000000001
I0
sF0.016999999999999998
I0
sF0.045
I0
sF0.008
I0
sF0.028
I0
sF0.166
I0
sF0.4
I0
sF0.6
I0
sF0.004
I0
sF0.032
I0
sF0.3
I0
sF0.1
I0
sF0.194
I0
sF0.054
I0
sF0.238
I0
sF0.266
I0
sF0.142
I0
sF0.619
I0
sF0.027
I0
sF0.036
I0
sF0.178
I0
sF0.476
I0
sF0.2
I0
sF0.024999999999999998
I0
sF0.111
I0
sF0.141
I0
sF0.333
I0
sF0.19
I0
sF0.107
I0
sF0.133
I0
sF0.177
I0
sF0.038
I0
sF0.361
I0
sF0.034999999999999996
I0
sF0.9999999999999999
I0
sF0.699
I0
sF0.057
I0
sF0.106
I0
sa(dp1121
I0
I0
sI1
F0.47
sI2
F0.17
sI3
F0.15
sI4
F0.06
sI5
F0.06
sI6
F0.04
sI7
I0
sI8
F0.01
sI9
F0.01
sI10
I0
sI11
F0.01
sI12
I0
sI13
F0.01
sI14
I0
sI15
F0.01
sI16
I0
sI18
I0
sI19
I0
sI20
I0
sI21
I0
sI23
I0
sI25
I0
sI27
I0
sI29
I0
sI30
I0
sI38
I0
sI56
I0
sa(dp1122
I0
F0.87
sI1
F0.11
sI2
F0.01
sI3
F0.01
sI4
I0
sI5
I0
sI6
I0
sI7
I0
sI8
I0
sI9
I0
sI10
I0
sI11
I0
sI12
I0
sI13
I0
sI14
I0
sI15
I0
sI16
I0
sI18
I0
sI19
I0
sI20
I0
sI21
I0
sI23
I0
sI25
I0
sI27
I0
sI29
I0
sI30
I0
sI38
I0
sI56
I0
sa(dp1123
I0
I0
sI1
F0.0012121212121212121
sI2
F0.006060606060606061
sI3
F0.017575757575757574
sI4
F0.06444444444444444
sI5
F0.12262626262626262
sI6
F0.2103030303030303
sI7
F0.2101010101010101
sI8
F0.16242424242424242
sI9
F0.09757575757575758
sI10
F0.053737373737373736
sI11
F0.0301010101010101
sI12
F0.015555555555555555
sI13
F0.0052525252525252525
sI14
F0.0024242424242424242
sI15
F0.00040404040404040404
sI16
F0.00020202020202020202
sI17
I0
sI18
I0
sI19
I0
sI20
I0
sI21
I0
sI22
I0
sI23
I0
sI24
I0
sI25
I0
sI26
I0
sI27
I0
sI28
I0
sI29
I0
sI30
I0
sa(dp1124
I0
I0
sI1
F1.0
sI2
I0
sI3
I0
sI4
I0
sI5
I0
sI6
I0
sI7
I0
sI8
I0
sI9
I0
sI10
I0
sI11
I0
sI12
I0
sI13
I0
sI14
I0
sI15
I0
sI16
I0
sI17
I0
sI18
I0
sI19
I0
sI20
I0
sI21
I0
sI22
I0
sI23
I0
sI24
I0
sI25
I0
sI26
I0
sI27
I0
sI28
I0
sI29
I0
sI30
I0
satp1125
ba(lp1126
g12
(g13
(I0
tp1127
g15
tp1128
Rp1129
((I1
(I3
tp1130
g22
I00
(lp1131
g26
ag27
ag28
atp1132
(Ntp1133
tp1134
ba(dp1135
g66
(dp1136
g68
g1096
sg69
(lp1137
(dp1138
g72
g73
(I0
I3
I1
tp1139
Rp1140
sg76
g1116
sasstp1141
bbsI1
g3
(g4
g5
Ntp1142
Rp1143
g3
(g8
g5
Ntp1144
Rp1145
((lp1146
g12
(g13
(I0
tp1147
g15
tp1148
Rp1149
((I1
(I3
tp1150
g22
I00
(lp1151
g26
ag27
ag28
atp1152
(Ntp1153
tp1154
bag12
(g13
(I0
tp1155
g15
tp1156
Rp1157
((I1
(I2
tp1158
g22
I00
(lp1159
g37
ag38
atp1160
(Ntp1161
tp1162
ba(lp1163
g12
(g43
(I0
tp1164
g15
tp1165
Rp1166
(I1
(I3
I2
tp1167
g22
I00
(lp1168
(dp1169
F0.0
F0.82
sF0.5
I0
sF0.066
I0
sF0.866
I0
sF0.055
I0
sF0.333
F0.06
sF0.071
I0
sF0.020999999999999998
I0
sF0.095
I0
sF0.106
I0
sF0.007
I0
sF0.4
I0
sF0.051
I0
sF0.29
I0
sF0.06999999999999999
I0
sF0.03
I0
sF0.038
F0.01
sF0.087
I0
sF0.109
I0
sF0.06
I0
sF0.181
I0
sF0.018
I0
sF0.166
F0.02
sF0.047
I0
sF0.464
I0
sF0.217
I0
sF0.009000000000000001
I0
sF0.016999999999999998
I0
sF0.045
I0
sF0.008
I0
sF0.028
I0
sF0.083
I0
sF0.027
I0
sF0.6
I0
sF0.004
I0
sF0.032
I0
sF0.3
I0
sF0.2
I0
sF0.194
I0
sF0.054
I0
sF0.238
I0
sF0.266
I0
sF0.142
I0
sF0.619
I0
sF0.285
I0
sF0.036
I0
sF0.178
I0
sF0.476
I0
sF0.024999999999999998
I0
sF0.1
F0.02
sF0.111
I0
sF0.141
I0
sF0.666
F0.02
sF0.19
I0
sF0.107
I0
sF0.133
I0
sF0.177
I0
sF0.019
I0
sF0.361
I0
sF0.034999999999999996
I0
sF0.699
I0
sF0.057
I0
sF0.9999999999999999
F0.05
sa(dp1170
F0.0
F1.0
sF0.5
I0
sF0.666
I0
sF0.066
I0
sF0.866
I0
sF0.055
I0
sF0.285
I0
sF0.071
I0
sF0.020999999999999998
I0
sF0.095
I0
sF0.03
I0
sF0.007
I0
sF0.051
I0
sF0.29
I0
sF0.06999999999999999
I0
sF0.019
I0
sF0.087
I0
sF0.109
I0
sF0.06
I0
sF0.181
I0
sF0.018
I0
sF0.083
I0
sF0.047
I0
sF0.464
I0
sF0.217
I0
sF0.009000000000000001
I0
sF0.016999999999999998
I0
sF0.045
I0
sF0.008
I0
sF0.028
I0
sF0.166
I0
sF0.4
I0
sF0.6
I0
sF0.004
I0
sF0.032
I0
sF0.3
I0
sF0.1
I0
sF0.194
I0
sF0.054
I0
sF0.238
I0
sF0.266
I0
sF0.142
I0
sF0.619
I0
sF0.027
I0
sF0.036
I0
sF0.178
I0
sF0.476
I0
sF0.2
I0
sF0.024999999999999998
I0
sF0.111
I0
sF0.141
I0
sF0.333
I0
sF0.19
I0
sF0.107
I0
sF0.133
I0
sF0.177
I0
sF0.038
I0
sF0.361
I0
sF0.034999999999999996
I0
sF0.9999999999999999
I0
sF0.699
I0
sF0.057
I0
sF0.106
I0
sa(dp1171
I0
I0
sI1
F0.43
sI2
F0.18
sI3
F0.18
sI4
F0.05
sI5
F0.07
sI6
F0.03
sI7
F0.02
sI8
I0
sI9
I0
sI10
I0
sI11
F0.01
sI12
F0.01
sI13
F0.01
sI14
I0
sI15
I0
sI16
I0
sI18
I0
sI19
I0
sI20
I0
sI21
I0
sI23
I0
sI25
F0.01
sI27
I0
sI29
I0
sI30
I0
sI38
I0
sI56
I0
sa(dp1172
I0
F0.85
sI1
F0.12
sI2
F0.01
sI3
F0.02
sI4
I0
sI5
I0
sI6
I0
sI7
I0
sI8
I0
sI9
I0
sI10
I0
sI11
I0
sI12
I0
sI13
I0
sI14
I0
sI15
I0
sI16
I0
sI18
I0
sI19
I0
sI20
I0
sI21
I0
sI23
I0
sI25
I0
sI27
I0
sI29
I0
sI30
I0
sI38
I0
sI56
I0
sa(dp1173
I0
I0
sI1
F0.0018181818181818182
sI2
F0.010101010101010102
sI3
F0.02727272727272727
sI4
F0.07939393939393939
sI5
F0.16666666666666666
sI6
F0.2406060606060606
sI7
F0.22080808080808081
sI8
F0.14181818181818182
sI9
F0.06565656565656566
sI10
F0.023636363636363636
sI11
F0.014141414141414142
sI12
F0.0052525252525252525
sI13
F0.0018181818181818182
sI14
F0.00101010101010101
sI15
I0
sI16
I0
sI17
I0
sI18
I0
sI19
I0
sI20
I0
sI21
I0
sI22
I0
sI23
I0
sI24
I0
sI25
I0
sI26
I0
sI27
I0
sI28
I0
sI29
I0
sI30
I0
sa(dp1174
I0
I0
sI1
F0.6923076923076923
sI2
F0.3076923076923077
sI3
I0
sI4
I0
sI5
I0
sI6
I0
sI7
I0
sI8
I0
sI9
I0
sI10
I0
sI11
I0
sI12
I0
sI13
I0
sI14
I0
sI15
I0
sI16
I0
sI17
I0
sI18
I0
sI19
I0
sI20
I0
sI21
I0
sI22
I0
sI23
I0
sI24
I0
sI25
I0
sI26
I0
sI27
I0
sI28
I0
sI29
I0
sI30
I0
satp1175
ba(lp1176
g12
(g13
(I0
tp1177
g15
tp1178
Rp1179
((I1
(I3
tp1180
g22
I00
(lp1181
g26
ag27
ag28
atp1182
(Ntp1183
tp1184
ba(dp1185
g66
(dp1186
g68
g1146
sg69
(lp1187
(dp1188
g72
g73
(I0
I3
I1
tp1189
Rp1190
sg76
g1166
sasstp1191
bbsI2
g3
(g4
g5
Ntp1192
Rp1193
g3
(g8
g5
Ntp1194
Rp1195
((lp1196
g12
(g13
(I0
tp1197
g15
tp1198
Rp1199
((I1
(I3
tp1200
g22
I00
(lp1201
g26
ag27
ag28
atp1202
(Ntp1203
tp1204
bag12
(g13
(I0
tp1205
g15
tp1206
Rp1207
((I1
(I2
tp1208
g22
I00
(lp1209
g37
ag38
atp1210
(Ntp1211
tp1212
ba(lp1213
g12
(g43
(I0
tp1214
g15
tp1215
Rp1216
(I1
(I3
I2
tp1217
g22
I00
(lp1218
(dp1219
F0.0
F0.85
sF0.5
F0.01
sF0.066
F0.01
sF0.866
I0
sF0.055
I0
sF0.666
F0.01
sF0.071
I0
sF0.020999999999999998
I0
sF0.095
I0
sF0.106
I0
sF0.007
I0
sF0.4
I0
sF0.051
I0
sF0.29
I0
sF0.06999999999999999
I0
sF0.03
I0
sF0.019
I0
sF0.087
I0
sF0.109
I0
sF0.06
I0
sF0.181
I0
sF0.009000000000000001
F0.01
sF0.083
I0
sF0.047
F0.01
sF0.266
F0.01
sF0.217
I0
sF0.018
I0
sF0.016999999999999998
I0
sF0.045
I0
sF0.032
I0
sF0.028
I0
sF0.166
I0
sF0.027
I0
sF0.6
I0
sF0.008
I0
sF0.004
F0.01
sF0.3
I0
sF0.2
I0
sF0.194
I0
sF0.054
I0
sF0.238
I0
sF0.464
I0
sF0.142
I0
sF0.619
I0
sF0.285
I0
sF0.036
I0
sF0.178
I0
sF0.476
I0
sF0.024999999999999998
I0
sF0.1
F0.02
sF0.111
I0
sF0.141
I0
sF0.333
F0.03
sF0.19
I0
sF0.107
I0
sF0.133
F0.01
sF0.177
F0.01
sF0.038
I0
sF0.361
I0
sF0.034999999999999996
I0
sF0.699
I0
sF0.057
I0
sF0.9999999999999999
F0.01
sa(dp1220
F0.0
F1.0
sF0.5
I0
sF0.666
I0
sF0.066
I0
sF0.866
I0
sF0.055
I0
sF0.285
I0
sF0.071
I0
sF0.020999999999999998
I0
sF0.095
I0
sF0.03
I0
sF0.007
I0
sF0.051
I0
sF0.29
I0
sF0.06999999999999999
I0
sF0.019
I0
sF0.087
I0
sF0.109
I0
sF0.06
I0
sF0.181
I0
sF0.018
I0
sF0.083
I0
sF0.047
I0
sF0.464
I0
sF0.217
I0
sF0.009000000000000001
I0
sF0.016999999999999998
I0
sF0.045
I0
sF0.008
I0
sF0.028
I0
sF0.166
I0
sF0.4
I0
sF0.6
I0
sF0.004
I0
sF0.032
I0
sF0.3
I0
sF0.1
I0
sF0.194
I0
sF0.054
I0
sF0.238
I0
sF0.266
I0
sF0.142
I0
sF0.619
I0
sF0.027
I0
sF0.036
I0
sF0.178
I0
sF0.476
I0
sF0.2
I0
sF0.024999999999999998
I0
sF0.111
I0
sF0.141
I0
sF0.333
I0
sF0.19
I0
sF0.107
I0
sF0.133
I0
sF0.177
I0
sF0.038
I0
sF0.361
I0
sF0.034999999999999996
I0
sF0.9999999999999999
I0
sF0.699
I0
sF0.057
I0
sF0.106
I0
sa(dp1221
I0
I0
sI1
F0.44
sI2
F0.25
sI3
F0.09
sI4
F0.06
sI5
F0.04
sI6
F0.03
sI7
F0.03
sI8
I0
sI9
F0.01
sI10
F0.01
sI11
F0.01
sI12
I0
sI13
I0
sI14
I0
sI15
F0.01
sI16
I0
sI18
I0
sI19
I0
sI20
I0
sI21
F0.01
sI23
I0
sI25
I0
sI27
I0
sI29
I0
sI30
F0.01
sI38
I0
sI56
I0
sa(dp1222
I0
F0.86
sI1
F0.13
sI2
I0
sI3
F0.01
sI4
I0
sI5
I0
sI6
I0
sI7
I0
sI8
I0
sI9
I0
sI10
I0
sI11
I0
sI12
I0
sI13
I0
sI14
I0
sI15
I0
sI16
I0
sI18
I0
sI19
I0
sI20
I0
sI21
I0
sI23
I0
sI25
I0
sI27
I0
sI29
I0
sI30
I0
sI38
I0
sI56
I0
sa(dp1223
I0
I0
sI1
F0.0014141414141414141
sI2
F0.011111111111111112
sI3
F0.02303030303030303
sI4
F0.06545454545454546
sI5
F0.15292929292929294
sI6
F0.2311111111111111
sI7
F0.2202020202020202
sI8
F0.15575757575757576
sI9
F0.08505050505050506
sI10
F0.03838383838383838
sI11
F0.011515151515151515
sI12
F0.0034343434343434343
sI13
F0.0006060606060606061
sI14
I0
sI15
I0
sI16
I0
sI17
I0
sI18
I0
sI19
I0
sI20
I0
sI21
I0
sI22
I0
sI23
I0
sI24
I0
sI25
I0
sI26
I0
sI27
I0
sI28
I0
sI29
I0
sI30
I0
sa(dp1224
I0
I0
sI1
F1.0
sI2
I0
sI3
I0
sI4
I0
sI5
I0
sI6
I0
sI7
I0
sI8
I0
sI9
I0
sI10
I0
sI11
I0
sI12
I0
sI13
I0
sI14
I0
sI15
I0
sI16
I0
sI17
I0
sI18
I0
sI19
I0
sI20
I0
sI21
I0
sI22
I0
sI23
I0
sI24
I0
sI25
I0
sI26
I0
sI27
I0
sI28
I0
sI29
I0
sI30
I0
satp1225
ba(lp1226
g12
(g13
(I0
tp1227
g15
tp1228
Rp1229
((I1
(I3
tp1230
g22
I00
(lp1231
g26
ag27
ag28
atp1232
(Ntp1233
tp1234
ba(dp1235
g66
(dp1236
g68
g1196
sg69
(lp1237
(dp1238
g72
g73
(I0
I3
I1
tp1239
Rp1240
sg76
g1216
sasstp1241
bbssS'Induced Random Edge Sampling'
p1242
(dp1243
I0
g3
(g4
g5
Ntp1244
Rp1245
g3
(g8
g5
Ntp1246
Rp1247
((lp1248
g12
(g13
(I0
tp1249
g15
tp1250
Rp1251
((I1
(I3
tp1252
g22
I00
(lp1253
g26
ag27
ag28
atp1254
(Ntp1255
tp1256
bag12
(g13
(I0
tp1257
g15
tp1258
Rp1259
((I1
(I2
tp1260
g22
I00
(lp1261
g37
ag38
atp1262
(Ntp1263
tp1264
ba(lp1265
g12
(g43
(I0
tp1266
g15
tp1267
Rp1268
(I1
(I3
I2
tp1269
g22
I00
(lp1270
(dp1271
F0.0
F0.6831683168316832
sF0.5
I0
sF0.066
F0.009900990099009901
sF0.866
I0
sF0.055
F0.009900990099009901
sF0.666
F0.019801980198019802
sF0.071
I0
sF0.020999999999999998
I0
sF0.095
I0
sF0.06
I0
sF0.007
I0
sF0.051
F0.009900990099009901
sF0.29
I0
sF0.06999999999999999
I0
sF0.106
I0
sF0.019
I0
sF0.087
I0
sF0.109
I0
sF0.03
F0.009900990099009901
sF0.181
I0
sF0.018
F0.009900990099009901
sF0.166
F0.009900990099009901
sF0.047
F0.009900990099009901
sF0.464
I0
sF0.024999999999999998
I0
sF0.217
F0.009900990099009901
sF0.009000000000000001
F0.009900990099009901
sF0.016999999999999998
I0
sF0.045
F0.009900990099009901
sF0.008
F0.009900990099009901
sF0.028
F0.009900990099009901
sF0.083
I0
sF0.027
I0
sF0.6
I0
sF0.032
I0
sF0.004
F0.009900990099009901
sF0.3
I0
sF0.4
I0
sF0.194
F0.009900990099009901
sF0.054
I0
sF0.238
F0.009900990099009901
sF0.266
I0
sF0.142
I0
sF0.619
F0.009900990099009901
sF0.285
I0
sF0.036
I0
sF0.178
I0
sF0.476
I0
sF0.1
F0.0297029702970297
sF0.2
F0.0297029702970297
sF0.111
I0
sF0.141
I0
sF0.333
F0.039603960396039604
sF0.19
I0
sF0.107
I0
sF0.133
F0.009900990099009901
sF0.177
I0
sF0.038
I0
sF0.361
I0
sF0.034999999999999996
F0.009900990099009901
sF0.699
I0
sF0.057
I0
sF0.9999999999999999
F0.019801980198019802
sa(dp1272
F0.0
F0.9207920792079208
sF0.5
I0
sF0.066
I0
sF0.866
I0
sF0.055
I0
sF0.666
F0.0297029702970297
sF0.071
I0
sF0.020999999999999998
I0
sF0.095
I0
sF0.03
I0
sF0.007
I0
sF0.4
I0
sF0.051
I0
sF0.29
I0
sF0.06999999999999999
I0
sF0.019
I0
sF0.087
I0
sF0.109
I0
sF0.06
I0
sF0.181
I0
sF0.018
I0
sF0.083
I0
sF0.047
I0
sF0.464
I0
sF0.217
I0
sF0.009000000000000001
I0
sF0.016999999999999998
I0
sF0.045
I0
sF0.008
I0
sF0.028
I0
sF0.166
I0
sF0.027
I0
sF0.6
I0
sF0.004
I0
sF0.032
I0
sF0.3
I0
sF0.1
I0
sF0.194
I0
sF0.054
I0
sF0.238
I0
sF0.266
I0
sF0.142
I0
sF0.619
I0
sF0.285
I0
sF0.036
I0
sF0.178
I0
sF0.476
I0
sF0.2
I0
sF0.024999999999999998
I0
sF0.111
I0
sF0.141
I0
sF0.333
F0.019801980198019802
sF0.19
I0
sF0.107
I0
sF0.133
I0
sF0.177
I0
sF0.038
I0
sF0.361
I0
sF0.034999999999999996
I0
sF0.9999999999999999
F0.0297029702970297
sF0.699
I0
sF0.057
I0
sF0.106
I0
sa(dp1273
I0
I0
sI1
F0.15841584158415842
sI2
F0.12871287128712872
sI3
F0.1188118811881188
sI4
F0.10891089108910891
sI5
F0.13861386138613863
sI6
F0.06930693069306931
sI7
F0.039603960396039604
sI8
F0.0297029702970297
sI9
F0.0594059405940594
sI10
F0.009900990099009901
sI11
F0.019801980198019802
sI12
F0.009900990099009901
sI13
F0.009900990099009901
sI14
I0
sI15
F0.019801980198019802
sI16
I0
sI18
F0.009900990099009901
sI19
I0
sI20
I0
sI21
F0.009900990099009901
sI23
I0
sI25
F0.009900990099009901
sI27
F0.009900990099009901
sI29
F0.009900990099009901
sI30
F0.009900990099009901
sI38
F0.009900990099009901
sI56
F0.009900990099009901
sa(dp1274
I0
I0
sI1
F0.5841584158415841
sI2
F0.2079207920792079
sI3
F0.15841584158415842
sI4
F0.0297029702970297
sI5
F0.009900990099009901
sI6
F0.009900990099009901
sI7
I0
sI8
I0
sI9
I0
sI10
I0
sI11
I0
sI12
I0
sI13
I0
sI14
I0
sI15
I0
sI16
I0
sI18
I0
sI19
I0
sI20
I0
sI21
I0
sI23
I0
sI25
I0
sI27
I0
sI29
I0
sI30
I0
sI38
I0
sI56
I0
sa(dp1275
I0
I0
sI1
F0.016237623762376238
sI2
F0.02792079207920792
sI3
F0.07841584158415842
sI4
F0.16237623762376238
sI5
F0.22277227722772278
sI6
F0.18495049504950495
sI7
F0.10891089108910891
sI8
F0.0700990099009901
sI9
F0.05465346534653465
sI10
F0.03861386138613861
sI11
F0.021386138613861388
sI12
F0.008514851485148515
sI13
F0.0033663366336633663
sI14
F0.001386138613861386
sI15
F0.00039603960396039607
sI16
I0
sI17
I0
sI18
I0
sI19
I0
sI20
I0
sI21
I0
sI22
I0
sI23
I0
sI24
I0
sI25
I0
sI26
I0
sI27
I0
sI28
I0
sI29
I0
sI30
I0
sa(dp1276
I0
I0
sI1
F0.09392898052691867
sI2
F0.09851088201603665
sI3
F0.13631156930126
sI4
F0.15807560137457044
sI5
F0.15807560137457044
sI6
F0.12829324169530354
sI7
F0.09392898052691867
sI8
F0.06071019473081329
sI9
F0.03436426116838488
sI10
F0.020618556701030927
sI11
F0.011454753722794959
sI12
F0.004581901489117984
sI13
F0.001145475372279496
sI14
I0
sI15
I0
sI16
I0
sI17
I0
sI18
I0
sI19
I0
sI20
I0
sI21
I0
sI22
I0
sI23
I0
sI24
I0
sI25
I0
sI26
I0
sI27
I0
sI28
I0
sI29
I0
sI30
I0
satp1277
ba(lp1278
g12
(g13
(I0
tp1279
g15
tp1280
Rp1281
((I1
(I3
tp1282
g22
I00
(lp1283
g26
ag27
ag28
atp1284
(Ntp1285
tp1286
ba(dp1287
g66
(dp1288
g68
g1248
sg69
(lp1289
(dp1290
g72
g73
(I0
I3
I1
tp1291
Rp1292
sg76
g1268
sasstp1293
bbsI1
g3
(g4
g5
Ntp1294
Rp1295
g3
(g8
g5
Ntp1296
Rp1297
((lp1298
g12
(g13
(I0
tp1299
g15
tp1300
Rp1301
((I1
(I3
tp1302
g22
I00
(lp1303
g26
ag27
ag28
atp1304
(Ntp1305
tp1306
bag12
(g13
(I0
tp1307
g15
tp1308
Rp1309
((I1
(I2
tp1310
g22
I00
(lp1311
g37
ag38
atp1312
(Ntp1313
tp1314
ba(lp1315
g12
(g43
(I0
tp1316
g15
tp1317
Rp1318
(I1
(I3
I2
tp1319
g22
I00
(lp1320
(dp1321
F0.0
F0.6534653465346535
sF0.5
I0
sF0.666
F0.009900990099009901
sF0.066
F0.009900990099009901
sF0.866
I0
sF0.055
F0.009900990099009901
sF0.285
F0.009900990099009901
sF0.071
I0
sF0.020999999999999998
I0
sF0.19
F0.009900990099009901
sF0.106
I0
sF0.028
I0
sF0.051
I0
sF0.29
I0
sF0.06999999999999999
I0
sF0.03
I0
sF0.038
F0.009900990099009901
sF0.087
I0
sF0.109
I0
sF0.06
I0
sF0.181
I0
sF0.009000000000000001
F0.009900990099009901
sF0.166
F0.0297029702970297
sF0.047
F0.009900990099009901
sF0.464
I0
sF0.024999999999999998
I0
sF0.217
I0
sF0.018
I0
sF0.016999999999999998
I0
sF0.045
F0.009900990099009901
sF0.008
F0.009900990099009901
sF0.007
F0.009900990099009901
sF0.083
I0
sF0.6
I0
sF0.032
I0
sF0.004
F0.009900990099009901
sF0.3
F0.009900990099009901
sF0.4
I0
sF0.194
I0
sF0.054
I0
sF0.238
I0
sF0.266
I0
sF0.361
I0
sF0.142
F0.009900990099009901
sF0.619
I0
sF0.027
I0
sF0.036
I0
sF0.178
I0
sF0.476
I0
sF0.2
F0.0297029702970297
sF0.1
F0.0297029702970297
sF0.111
I0
sF0.141
I0
sF0.333
F0.039603960396039604
sF0.107
I0
sF0.133
F0.009900990099009901
sF0.177
I0
sF0.019
I0
sF0.095
F0.019801980198019802
sF0.034999999999999996
I0
sF0.699
I0
sF0.057
I0
sF0.9999999999999999
F0.04950495049504951
sa(dp1322
F0.0
F0.9108910891089109
sF0.5
I0
sF0.666
I0
sF0.066
F0.009900990099009901
sF0.866
I0
sF0.055
I0
sF0.285
I0
sF0.071
I0
sF0.020999999999999998
I0
sF0.095
I0
sF0.03
I0
sF0.007
I0
sF0.051
I0
sF0.29
I0
sF0.06999999999999999
I0
sF0.019
I0
sF0.087
I0
sF0.109
I0
sF0.06
I0
sF0.181
I0
sF0.018
I0
sF0.083
I0
sF0.047
I0
sF0.464
I0
sF0.217
I0
sF0.009000000000000001
I0
sF0.016999999999999998
I0
sF0.045
I0
sF0.008
I0
sF0.028
I0
sF0.166
I0
sF0.4
I0
sF0.6
I0
sF0.004
I0
sF0.032
I0
sF0.3
I0
sF0.2
I0
sF0.194
I0
sF0.054
I0
sF0.238
I0
sF0.266
I0
sF0.142
I0
sF0.619
I0
sF0.027
I0
sF0.036
I0
sF0.178
I0
sF0.476
I0
sF0.024999999999999998
I0
sF0.1
F0.019801980198019802
sF0.111
I0
sF0.141
I0
sF0.333
F0.019801980198019802
sF0.19
I0
sF0.107
I0
sF0.133
I0
sF0.177
I0
sF0.038
I0
sF0.361
I0
sF0.034999999999999996
I0
sF0.9999999999999999
F0.039603960396039604
sF0.699
I0
sF0.057
I0
sF0.106
I0
sa(dp1323
I0
I0
sI1
F0.13861386138613863
sI2
F0.19801980198019803
sI3
F0.1188118811881188
sI4
F0.10891089108910891
sI5
F0.09900990099009901
sI6
F0.0594059405940594
sI7
F0.0594059405940594
sI8
I0
sI9
F0.04950495049504951
sI10
F0.0297029702970297
sI11
F0.0297029702970297
sI12
I0
sI13
F0.009900990099009901
sI14
F0.009900990099009901
sI15
I0
sI16
I0
sI18
I0
sI19
I0
sI20
F0.009900990099009901
sI21
F0.009900990099009901
sI23
F0.009900990099009901
sI25
F0.009900990099009901
sI27
I0
sI29
F0.019801980198019802
sI30
F0.009900990099009901
sI38
F0.009900990099009901
sI56
F0.009900990099009901
sa(dp1324
I0
I0
sI1
F0.6633663366336634
sI2
F0.19801980198019803
sI3
F0.10891089108910891
sI4
I0
sI5
F0.019801980198019802
sI6
F0.009900990099009901
sI7
I0
sI8
I0
sI9
I0
sI10
I0
sI11
I0
sI12
I0
sI13
I0
sI14
I0
sI15
I0
sI16
I0
sI18
I0
sI19
I0
sI20
I0
sI21
I0
sI23
I0
sI25
I0
sI27
I0
sI29
I0
sI30
I0
sI38
I0
sI56
I0
sa(dp1325
I0
I0
sI1
F0.014455445544554456
sI2
F0.023366336633663366
sI3
F0.06376237623762376
sI4
F0.13940594059405942
sI5
F0.22574257425742575
sI6
F0.24396039603960396
sI7
F0.178019801980198
sI8
F0.08455445544554456
sI9
F0.02297029702970297
sI10
F0.0033663366336633663
sI11
F0.00039603960396039607
sI12
I0
sI13
I0
sI14
I0
sI15
I0
sI16
I0
sI17
I0
sI18
I0
sI19
I0
sI20
I0
sI21
I0
sI22
I0
sI23
I0
sI24
I0
sI25
I0
sI26
I0
sI27
I0
sI28
I0
sI29
I0
sI30
I0
sa(dp1326
I0
I0
sI1
F0.26258992805755393
sI2
F0.19424460431654678
sI3
F0.19424460431654678
sI4
F0.15467625899280577
sI5
F0.11151079136690648
sI6
F0.05755395683453238
sI7
F0.02158273381294964
sI8
F0.0035971223021582736
sI9
I0
sI10
I0
sI11
I0
sI12
I0
sI13
I0
sI14
I0
sI15
I0
sI16
I0
sI17
I0
sI18
I0
sI19
I0
sI20
I0
sI21
I0
sI22
I0
sI23
I0
sI24
I0
sI25
I0
sI26
I0
sI27
I0
sI28
I0
sI29
I0
sI30
I0
satp1327
ba(lp1328
g12
(g13
(I0
tp1329
g15
tp1330
Rp1331
((I1
(I3
tp1332
g22
I00
(lp1333
g26
ag27
ag28
atp1334
(Ntp1335
tp1336
ba(dp1337
g66
(dp1338
g68
g1298
sg69
(lp1339
(dp1340
g72
g73
(I0
I3
I1
tp1341
Rp1342
sg76
g1318
sasstp1343
bbsI2
g3
(g4
g5
Ntp1344
Rp1345
g3
(g8
g5
Ntp1346
Rp1347
((lp1348
g12
(g13
(I0
tp1349
g15
tp1350
Rp1351
((I1
(I3
tp1352
g22
I00
(lp1353
g26
ag27
ag28
atp1354
(Ntp1355
tp1356
bag12
(g13
(I0
tp1357
g15
tp1358
Rp1359
((I1
(I2
tp1360
g22
I00
(lp1361
g37
ag38
atp1362
(Ntp1363
tp1364
ba(lp1365
g12
(g43
(I0
tp1366
g15
tp1367
Rp1368
(I1
(I3
I2
tp1369
g22
I00
(lp1370
(dp1371
F0.0
F0.77
sF0.5
F0.01
sF0.066
I0
sF0.866
I0
sF0.055
F0.01
sF0.333
F0.02
sF0.071
I0
sF0.020999999999999998
I0
sF0.095
I0
sF0.106
I0
sF0.007
I0
sF0.4
I0
sF0.051
F0.01
sF0.29
I0
sF0.06999999999999999
I0
sF0.03
I0
sF0.038
F0.01
sF0.087
I0
sF0.109
I0
sF0.06
F0.01
sF0.181
F0.01
sF0.018
I0
sF0.083
I0
sF0.047
F0.03
sF0.464
I0
sF0.217
I0
sF0.009000000000000001
I0
sF0.016999999999999998
F0.01
sF0.045
F0.01
sF0.008
I0
sF0.028
F0.01
sF0.166
I0
sF0.027
I0
sF0.6
I0
sF0.004
I0
sF0.032
I0
sF0.3
I0
sF0.2
I0
sF0.194
I0
sF0.054
F0.01
sF0.238
I0
sF0.133
I0
sF0.142
I0
sF0.619
I0
sF0.285
I0
sF0.036
I0
sF0.178
I0
sF0.476
I0
sF0.024999999999999998
I0
sF0.1
F0.01
sF0.111
F0.01
sF0.141
I0
sF0.666
F0.02
sF0.19
I0
sF0.107
I0
sF0.266
F0.01
sF0.177
I0
sF0.019
I0
sF0.361
I0
sF0.034999999999999996
I0
sF0.699
I0
sF0.057
I0
sF0.9999999999999999
F0.03
sa(dp1372
F0.0
F0.97
sF0.5
I0
sF0.666
I0
sF0.066
I0
sF0.866
I0
sF0.055
I0
sF0.285
I0
sF0.071
I0
sF0.020999999999999998
I0
sF0.095
I0
sF0.03
I0
sF0.007
I0
sF0.051
I0
sF0.29
I0
sF0.06999999999999999
I0
sF0.019
I0
sF0.087
I0
sF0.109
I0
sF0.06
I0
sF0.181
I0
sF0.018
I0
sF0.083
I0
sF0.047
I0
sF0.464
I0
sF0.217
I0
sF0.009000000000000001
I0
sF0.016999999999999998
I0
sF0.045
I0
sF0.008
I0
sF0.028
I0
sF0.166
I0
sF0.4
I0
sF0.6
I0
sF0.004
I0
sF0.032
I0
sF0.3
I0
sF0.1
I0
sF0.194
I0
sF0.054
I0
sF0.238
I0
sF0.266
I0
sF0.142
I0
sF0.619
I0
sF0.027
I0
sF0.036
I0
sF0.178
I0
sF0.476
I0
sF0.2
I0
sF0.024999999999999998
I0
sF0.111
I0
sF0.141
I0
sF0.333
F0.01
sF0.19
I0
sF0.107
I0
sF0.133
I0
sF0.177
I0
sF0.038
I0
sF0.361
I0
sF0.034999999999999996
I0
sF0.9999999999999999
F0.02
sF0.699
I0
sF0.057
I0
sF0.106
I0
sa(dp1373
I0
I0
sI1
F0.2
sI2
F0.18
sI3
F0.13
sI4
F0.05
sI5
F0.09
sI6
F0.07
sI7
F0.08
sI8
F0.02
sI9
F0.02
sI10
F0.01
sI11
F0.04
sI12
F0.02
sI13
F0.01
sI14
I0
sI15
F0.02
sI16
I0
sI18
F0.01
sI19
F0.01
sI20
I0
sI21
F0.01
sI23
I0
sI25
F0.01
sI27
F0.01
sI29
I0
sI30
I0
sI38
I0
sI56
F0.01
sa(dp1374
I0
I0
sI1
F0.66
sI2
F0.23
sI3
F0.08
sI4
F0.02
sI5
I0
sI6
F0.01
sI7
I0
sI8
I0
sI9
I0
sI10
I0
sI11
I0
sI12
I0
sI13
I0
sI14
I0
sI15
I0
sI16
I0
sI18
I0
sI19
I0
sI20
I0
sI21
I0
sI23
I0
sI25
I0
sI27
I0
sI29
I0
sI30
I0
sI38
I0
sI56
I0
sa(dp1375
I0
I0
sI1
F0.014545454545454545
sI2
F0.018787878787878787
sI3
F0.05393939393939394
sI4
F0.13818181818181818
sI5
F0.22262626262626262
sI6
F0.23232323232323232
sI7
F0.1715151515151515
sI8
F0.09171717171717171
sI9
F0.038181818181818185
sI10
F0.013939393939393939
sI11
F0.0036363636363636364
sI12
F0.0006060606060606061
sI13
I0
sI14
I0
sI15
I0
sI16
I0
sI17
I0
sI18
I0
sI19
I0
sI20
I0
sI21
I0
sI22
I0
sI23
I0
sI24
I0
sI25
I0
sI26
I0
sI27
I0
sI28
I0
sI29
I0
sI30
I0
sa(dp1376
I0
I0
sI1
F0.28346456692913385
sI2
F0.2125984251968504
sI3
F0.18503937007874016
sI4
F0.14960629921259844
sI5
F0.10236220472440945
sI6
F0.047244094488188976
sI7
F0.015748031496062992
sI8
F0.003937007874015748
sI9
I0
sI10
I0
sI11
I0
sI12
I0
sI13
I0
sI14
I0
sI15
I0
sI16
I0
sI17
I0
sI18
I0
sI19
I0
sI20
I0
sI21
I0
sI22
I0
sI23
I0
sI24
I0
sI25
I0
sI26
I0
sI27
I0
sI28
I0
sI29
I0
sI30
I0
satp1377
ba(lp1378
g12
(g13
(I0
tp1379
g15
tp1380
Rp1381
((I1
(I3
tp1382
g22
I00
(lp1383
g26
ag27
ag28
atp1384
(Ntp1385
tp1386
ba(dp1387
g66
(dp1388
g68
g1348
sg69
(lp1389
(dp1390
g72
g73
(I0
I3
I1
tp1391
Rp1392
sg76
g1368
sasstp1393
bbssS'Original'
p1394
(dp1395
I0
g3
(g4
g5
Ntp1396
Rp1397
g3
(g8
g5
Ntp1398
Rp1399
((lp1400
g12
(g13
(I0
tp1401
g15
tp1402
Rp1403
((I1
(I3
tp1404
g22
I00
(lp1405
g26
ag27
ag28
atp1406
(Ntp1407
tp1408
bag12
(g13
(I0
tp1409
g15
tp1410
Rp1411
((I1
(I2
tp1412
g22
I00
(lp1413
g37
ag38
atp1414
(Ntp1415
tp1416
ba(lp1417
g12
(g43
(I0
tp1418
g15
tp1419
Rp1420
(I1
(I3
I2
tp1421
g22
I00
(lp1422
(dp1423
F0.0
F0.8381344307270233
sF0.5
F0.00205761316872428
sF0.066
F0.0054869684499314125
sF0.866
F0.0006858710562414266
sF0.055
F0.0006858710562414266
sF0.666
F0.010973936899862825
sF0.071
F0.0013717421124828531
sF0.020999999999999998
F0.0006858710562414266
sF0.095
F0.0013717421124828531
sF0.03
F0.0006858710562414266
sF0.007
F0.0006858710562414266
sF0.051
F0.0013717421124828531
sF0.29
F0.0006858710562414266
sF0.019
F0.0006858710562414266
sF0.087
I0
sF0.285
I0
sF0.109
F0.00205761316872428
sF0.06
F0.0006858710562414266
sF0.181
F0.0006858710562414266
sF0.018
F0.0013717421124828531
sF0.083
F0.0006858710562414266
sF0.047
F0.0027434842249657062
sF0.464
F0.0006858710562414266
sF0.217
F0.0006858710562414266
sF0.009000000000000001
F0.0006858710562414266
sF0.016999999999999998
F0.0006858710562414266
sF0.045
F0.0006858710562414266
sF0.004
F0.0006858710562414266
sF0.028
F0.0006858710562414266
sF0.166
F0.00823045267489712
sF0.4
F0.0027434842249657062
sF0.6
I0
sF0.032
F0.0006858710562414266
sF0.008
F0.0006858710562414266
sF0.3
F0.0013717421124828531
sF0.1
F0.0075445816186556925
sF0.194
F0.0006858710562414266
sF0.054
F0.0006858710562414266
sF0.238
F0.0006858710562414266
sF0.266
F0.0013717421124828531
sF0.036
I0
sF0.142
F0.0027434842249657062
sF0.619
I0
sF0.027
F0.00205761316872428
sF0.06999999999999999
I0
sF0.178
F0.0006858710562414266
sF0.476
F0.0006858710562414266
sF0.2
F0.009602194787379973
sF0.024999999999999998
F0.0006858710562414266
sF0.111
F0.0006858710562414266
sF0.141
F0.0006858710562414266
sF0.333
F0.029492455418381344
sF0.19
F0.0006858710562414266
sF0.107
F0.00205761316872428
sF0.133
F0.00205761316872428
sF0.177
F0.0006858710562414266
sF0.038
F0.0013717421124828531
sF0.361
F0.0013717421124828531
sF0.034999999999999996
F0.0013717421124828531
sF0.9999999999999999
F0.038408779149519894
sF0.699
I0
sF0.057
F0.0006858710562414266
sF0.106
F0.0006858710562414266
sag1423
a(dp1424
I0
I0
sI1
F0.4869684499314129
sI2
F0.19135802469135801
sI3
F0.11248285322359397
sI4
F0.05761316872427984
sI5
F0.04458161865569273
sI6
F0.03635116598079561
sI7
F0.017146776406035666
sI8
F0.00823045267489712
sI9
F0.008916323731138546
sI10
F0.00411522633744856
sI11
F0.008916323731138546
sI12
F0.003429355281207133
sI13
F0.00411522633744856
sI14
F0.0013717421124828531
sI15
F0.00205761316872428
sI16
F0.0013717421124828531
sI18
F0.00205761316872428
sI19
F0.0006858710562414266
sI20
F0.0006858710562414266
sI21
F0.00205761316872428
sI23
F0.0006858710562414266
sI25
F0.0006858710562414266
sI27
F0.0006858710562414266
sI29
F0.0013717421124828531
sI30
F0.0006858710562414266
sI38
F0.0006858710562414266
sI56
F0.0006858710562414266
sag1424
a(dp1425
I0
I0
sI1
F0.0018340107310340413
sI2
F0.010294185489284501
sI3
F0.024675352797572478
sI4
F0.07425201454027809
sI5
F0.1438201464384133
sI6
F0.21016463729801638
sI7
F0.20478876395396897
sI8
F0.14686678849468957
sI9
F0.08702418578114453
sI10
F0.047906469218653054
sI11
F0.026403917326411543
sI12
F0.01283619214934195
sI13
F0.005762823246745054
sI14
F0.0022878059940517046
sI15
F0.0007682509017062514
sI16
F0.00023254653519784815
sI17
F6.213794057918209e-05
sI18
F1.6946711067049663e-05
sI19
F2.824451844508277e-06
sI20
I0
sI21
I0
sI22
I0
sI23
I0
sI24
I0
sI25
I0
sI26
I0
sI27
I0
sI28
I0
sI29
I0
sI30
I0
sag1425
atp1426
ba(lp1427
g12
(g13
(I0
tp1428
g15
tp1429
Rp1430
((I1
(I3
tp1431
g22
I00
(lp1432
g26
ag27
ag28
atp1433
(Ntp1434
tp1435
ba(dp1436
g66
(dp1437
g68
g1400
sg69
(lp1438
(dp1439
g72
g73
(I0
I3
I1
tp1440
Rp1441
sg76
g1420
sasstp1442
bbsI1
g3
(g4
g5
Ntp1443
Rp1444
g3
(g8
g5
Ntp1445
Rp1446
((lp1447
g12
(g13
(I0
tp1448
g15
tp1449
Rp1450
((I1
(I3
tp1451
g22
I00
(lp1452
g26
ag27
ag28
atp1453
(Ntp1454
tp1455
bag12
(g13
(I0
tp1456
g15
tp1457
Rp1458
((I1
(I2
tp1459
g22
I00
(lp1460
g37
ag38
atp1461
(Ntp1462
tp1463
ba(lp1464
g12
(g43
(I0
tp1465
g15
tp1466
Rp1467
(I1
(I3
I2
tp1468
g22
I00
(lp1469
g1423
ag1423
ag1424
ag1424
ag1425
ag1425
atp1470
ba(lp1471
g12
(g13
(I0
tp1472
g15
tp1473
Rp1474
((I1
(I3
tp1475
g22
I00
(lp1476
g26
ag27
ag28
atp1477
(Ntp1478
tp1479
ba(dp1480
g66
(dp1481
g68
g1447
sg69
(lp1482
(dp1483
g72
g73
(I0
I3
I1
tp1484
Rp1485
sg76
g1467
sasstp1486
bbsI2
g3
(g4
g5
Ntp1487
Rp1488
g3
(g8
g5
Ntp1489
Rp1490
((lp1491
g12
(g13
(I0
tp1492
g15
tp1493
Rp1494
((I1
(I3
tp1495
g22
I00
(lp1496
g26
ag27
ag28
atp1497
(Ntp1498
tp1499
bag12
(g13
(I0
tp1500
g15
tp1501
Rp1502
((I1
(I2
tp1503
g22
I00
(lp1504
g37
ag38
atp1505
(Ntp1506
tp1507
ba(lp1508
g12
(g43
(I0
tp1509
g15
tp1510
Rp1511
(I1
(I3
I2
tp1512
g22
I00
(lp1513
g1423
ag1423
ag1424
ag1424
ag1425
ag1425
atp1514
ba(lp1515
g12
(g13
(I0
tp1516
g15
tp1517
Rp1518
((I1
(I3
tp1519
g22
I00
(lp1520
g26
ag27
ag28
atp1521
(Ntp1522
tp1523
ba(dp1524
g66
(dp1525
g68
g1491
sg69
(lp1526
(dp1527
g72
g73
(I0
I3
I1
tp1528
Rp1529
sg76
g1511
sasstp1530
bbss.