(dp0
S'Random Vertex Sampling'
p1
(dp2
I0
ccopy_reg
_reconstructor
p3
(cpandas.core.frame
DataFrame
p4
c__builtin__
object
p5
Ntp6
Rp7
g3
(cpandas.core.internals
BlockManager
p8
g5
Ntp9
Rp10
((lp11
cnumpy.core.multiarray
_reconstruct
p12
(cpandas.core.index
Index
p13
(I0
tp14
S'b'
p15
tp16
Rp17
((I1
(I3
tp18
cnumpy
dtype
p19
(S'O8'
p20
I0
I1
tp21
Rp22
(I3
S'|'
p23
NNNI-1
I-1
I63
tp24
bI00
(lp25
S'clustering coefficient'
p26
aS'degree'
p27
aS'path length'
p28
atp29
(Ntp30
tp31
bag12
(g13
(I0
tp32
g15
tp33
Rp34
((I1
(I2
tp35
g22
I00
(lp36
S'Backend Query'
p37
aS'Frontend Query'
p38
atp39
(Ntp40
tp41
ba(lp42
g12
(cnumpy
ndarray
p43
(I0
tp44
g15
tp45
Rp46
(I1
(I3
I2
tp47
g22
I00
(lp48
(dp49
F0.0
F0.03
sF0.016999999999999998
I0
sF0.1
I0
sF0.033
F0.01
sF0.011
F0.05
sF0.052
I0
sF0.333
I0
sF0.020999999999999998
F0.03
sF0.007
I0
sF0.015
F0.09
sF0.064
I0
sF0.013999999999999999
F0.03
sF0.054
I0
sF0.009999999999999998
F0.05
sF0.051
I0
sF0.031
F0.02
sF0.026
F0.02
sF0.066
I0
sF0.012
F0.02
sF0.065
I0
sF0.038
F0.01
sF0.087
I0
sF0.049
I0
sF0.03
F0.02
sF0.024
I0
sF0.022
F0.05
sF0.04
F0.01
sF0.166
I0
sF0.047
F0.01
sF0.028999999999999998
F0.03
sF0.036
F0.01
sF0.034
F0.04
sF0.045
I0
sF0.016
F0.04
sF0.028
F0.02
sF0.032
F0.01
sF0.008
F0.07
sF0.043
F0.01
sF0.027
F0.02
sF0.057999999999999996
I0
sF0.041
I0
sF0.013000000000000001
F0.04
sF0.018
F0.02
sF0.004
I0
sF0.005
F0.02
sF0.039
F0.01
sF0.049999999999999996
I0
sF0.024999999999999998
F0.05
sF0.02
I0
sF0.046
I0
sF0.009000000000000001
F0.03
sF0.006
F0.02
sF0.041999999999999996
F0.01
sF0.133
I0
sF0.044
F0.01
sF0.019
F0.05
sF0.034999999999999996
F0.02
sF0.003
F0.01
sF0.023
F0.01
sF0.9999999999999999
I0
sa(dp50
F0.0
F1.0
sF0.034
I0
sF0.1
I0
sF0.066
I0
sF0.011
I0
sF0.333
I0
sF0.020999999999999998
I0
sF0.007
I0
sF0.03
I0
sF0.013999999999999999
I0
sF0.054
I0
sF0.04
I0
sF0.051
I0
sF0.031
I0
sF0.026
I0
sF0.033
I0
sF0.024
I0
sF0.065
I0
sF0.038
I0
sF0.003
I0
sF0.087
I0
sF0.049
I0
sF0.015
I0
sF0.022
I0
sF0.013000000000000001
I0
sF0.009999999999999998
I0
sF0.166
I0
sF0.047
I0
sF0.028999999999999998
I0
sF0.032
I0
sF0.018
I0
sF0.016999999999999998
I0
sF0.045
I0
sF0.008
I0
sF0.028
I0
sF0.016
I0
sF0.004
I0
sF0.043
I0
sF0.027
I0
sF0.057999999999999996
I0
sF0.041
I0
sF0.052
I0
sF0.036
I0
sF0.064
I0
sF0.005
I0
sF0.039
I0
sF0.049999999999999996
I0
sF0.024999999999999998
I0
sF0.02
I0
sF0.046
I0
sF0.009000000000000001
I0
sF0.012
I0
sF0.041999999999999996
I0
sF0.133
I0
sF0.044
I0
sF0.019
I0
sF0.034999999999999996
I0
sF0.006
I0
sF0.023
I0
sF0.9999999999999999
I0
sa(dp51
I0
I0
sI1
I0
sI2
I0
sI3
I0
sI4
I0
sI5
I0
sI6
I0
sI7
I0
sI8
I0
sI9
I0
sI10
I0
sI11
F0.01
sI12
I0
sI13
F0.03
sI14
F0.04
sI15
F0.04
sI16
F0.1
sI17
F0.03
sI18
F0.07
sI19
F0.07
sI20
F0.14
sI21
F0.1
sI22
F0.09
sI23
F0.1
sI24
F0.05
sI25
F0.02
sI26
F0.03
sI27
I0
sI28
F0.05
sI29
F0.03
sI30
I0
sI31
I0
sI32
I0
sI34
I0
sI35
I0
sa(dp52
I0
F1.0
sI1
I0
sI2
I0
sI3
I0
sI4
I0
sI5
I0
sI6
I0
sI7
I0
sI8
I0
sI9
I0
sI10
I0
sI11
I0
sI12
I0
sI13
I0
sI14
I0
sI15
I0
sI16
I0
sI17
I0
sI18
I0
sI19
I0
sI20
I0
sI21
I0
sI22
I0
sI23
I0
sI24
I0
sI25
I0
sI26
I0
sI27
I0
sI28
I0
sI29
I0
sI30
I0
sI31
I0
sI32
I0
sI34
I0
sI35
I0
sa(dp53
I0
I0
sI1
F0.021414141414141413
sI2
F0.3327272727272727
sI3
F0.6450505050505051
sI4
F0.0008080808080808081
sI5
I0
sI6
I0
sI7
I0
sI8
I0
sI9
I0
sI10
I0
sI11
I0
sI12
I0
sI13
I0
sI14
I0
sI15
I0
sI16
I0
sI17
I0
sI18
I0
sI19
I0
sI20
I0
sI21
I0
sI22
I0
sI23
I0
sI24
I0
sI25
I0
sI26
I0
sI27
I0
sI28
I0
sI29
I0
sI30
I0
sI31
I0
sI32
I0
sI33
I0
sI34
I0
sI35
I0
sI36
I0
sI37
I0
sI38
I0
sI39
I0
sI40
I0
sI41
I0
sI42
I0
sI43
I0
sI44
I0
sI45
I0
sI46
I0
sI47
I0
sI48
I0
sI49
I0
sI50
I0
sI51
I0
sI52
I0
sI53
I0
sI54
I0
sI55
I0
sI56
I0
sI57
I0
sI58
I0
sI59
I0
sI60
I0
sI61
I0
sI62
I0
sI63
I0
sI64
I0
sI65
I0
sa(dp54
I0
I1
sI1
I0
sI2
I0
sI3
I0
sI4
I0
sI5
I0
sI6
I0
sI7
I0
sI8
I0
sI9
I0
sI10
I0
sI11
I0
sI12
I0
sI13
I0
sI14
I0
sI15
I0
sI16
I0
sI17
I0
sI18
I0
sI19
I0
sI20
I0
sI21
I0
sI22
I0
sI23
I0
sI24
I0
sI25
I0
sI26
I0
sI27
I0
sI28
I0
sI29
I0
sI30
I0
sI31
I0
sI32
I0
sI33
I0
sI34
I0
sI35
I0
sI36
I0
sI37
I0
sI38
I0
sI39
I0
sI40
I0
sI41
I0
sI42
I0
sI43
I0
sI44
I0
sI45
I0
sI46
I0
sI47
I0
sI48
I0
sI49
I0
sI50
I0
sI51
I0
sI52
I0
sI53
I0
sI54
I0
sI55
I0
sI56
I0
sI57
I0
sI58
I0
sI59
I0
sI60
I0
sI61
I0
sI62
I0
sI63
I0
sI64
I0
sI65
I0
satp55
ba(lp56
g12
(g13
(I0
tp57
g15
tp58
Rp59
((I1
(I3
tp60
g22
I00
(lp61
g26
ag27
ag28
atp62
(Ntp63
tp64
ba(dp65
S'0.14.1'
p66
(dp67
S'axes'
p68
g11
sS'blocks'
p69
(lp70
(dp71
S'mgr_locs'
p72
c__builtin__
slice
p73
(I0
I3
I1
tp74
Rp75
sS'values'
p76
g46
sasstp77
bbsI1
g3
(g4
g5
Ntp78
Rp79
g3
(g8
g5
Ntp80
Rp81
((lp82
g12
(g13
(I0
tp83
g15
tp84
Rp85
((I1
(I3
tp86
g22
I00
(lp87
g26
ag27
ag28
atp88
(Ntp89
tp90
bag12
(g13
(I0
tp91
g15
tp92
Rp93
((I1
(I2
tp94
g22
I00
(lp95
g37
ag38
atp96
(Ntp97
tp98
ba(lp99
g12
(g43
(I0
tp100
g15
tp101
Rp102
(I1
(I3
I2
tp103
g22
I00
(lp104
(dp105
F0.0
F0.03
sF0.016999999999999998
F0.01
sF0.1
I0
sF0.066
F0.01
sF0.011
F0.04
sF0.052
I0
sF0.333
I0
sF0.041999999999999996
F0.02
sF0.007
F0.01
sF0.03
I0
sF0.028
F0.05
sF0.054
I0
sF0.04
F0.01
sF0.051
I0
sF0.031
F0.02
sF0.026
F0.02
sF0.033
F0.01
sF0.012
F0.02
sF0.065
I0
sF0.019
F0.14
sF0.087
I0
sF0.049
I0
sF0.015
F0.06
sF0.024
F0.01
sF0.022
F0.01
sF0.005
F0.01
sF0.166
I0
sF0.047
F0.01
sF0.028999999999999998
F0.03
sF0.036
F0.03
sF0.034
F0.02
sF0.045
F0.01
sF0.032
F0.01
sF0.013999999999999999
F0.06
sF0.016
F0.03
sF0.004
F0.01
sF0.043
I0
sF0.027
F0.03
sF0.009999999999999998
F0.05
sF0.057999999999999996
I0
sF0.041
I0
sF0.013000000000000001
F0.02
sF0.018
F0.03
sF0.064
I0
sF0.02
F0.01
sF0.039
I0
sF0.049999999999999996
I0
sF0.024999999999999998
F0.03
sF0.046
I0
sF0.009000000000000001
F0.03
sF0.003
F0.01
sF0.020999999999999998
F0.03
sF0.133
I0
sF0.044
I0
sF0.038
F0.01
sF0.034999999999999996
F0.01
sF0.006
F0.01
sF0.023
F0.04
sF0.008
I0
sF0.9999999999999999
I0
sa(dp106
F0.0
F1.0
sF0.034
I0
sF0.1
I0
sF0.066
I0
sF0.011
I0
sF0.333
I0
sF0.020999999999999998
I0
sF0.007
I0
sF0.03
I0
sF0.013999999999999999
I0
sF0.054
I0
sF0.04
I0
sF0.051
I0
sF0.031
I0
sF0.026
I0
sF0.033
I0
sF0.024
I0
sF0.065
I0
sF0.038
I0
sF0.003
I0
sF0.087
I0
sF0.049
I0
sF0.015
I0
sF0.022
I0
sF0.013000000000000001
I0
sF0.009999999999999998
I0
sF0.166
I0
sF0.047
I0
sF0.028999999999999998
I0
sF0.032
I0
sF0.018
I0
sF0.016999999999999998
I0
sF0.045
I0
sF0.008
I0
sF0.028
I0
sF0.016
I0
sF0.004
I0
sF0.043
I0
sF0.027
I0
sF0.057999999999999996
I0
sF0.041
I0
sF0.052
I0
sF0.036
I0
sF0.064
I0
sF0.005
I0
sF0.039
I0
sF0.049999999999999996
I0
sF0.024999999999999998
I0
sF0.02
I0
sF0.046
I0
sF0.009000000000000001
I0
sF0.012
I0
sF0.041999999999999996
I0
sF0.133
I0
sF0.044
I0
sF0.019
I0
sF0.034999999999999996
I0
sF0.006
I0
sF0.023
I0
sF0.9999999999999999
I0
sa(dp107
I0
I0
sI1
I0
sI2
I0
sI3
I0
sI4
I0
sI5
I0
sI6
I0
sI7
I0
sI8
I0
sI9
I0
sI10
F0.01
sI11
I0
sI12
F0.01
sI13
F0.02
sI14
F0.03
sI15
F0.08
sI16
F0.04
sI17
F0.05
sI18
F0.11
sI19
F0.08
sI20
F0.1
sI21
F0.11
sI22
F0.06
sI23
F0.05
sI24
F0.08
sI25
F0.07
sI26
F0.03
sI27
F0.03
sI28
F0.01
sI29
F0.01
sI30
F0.01
sI31
I0
sI32
I0
sI34
F0.01
sI35
I0
sa(dp108
I0
F1.0
sI1
I0
sI2
I0
sI3
I0
sI4
I0
sI5
I0
sI6
I0
sI7
I0
sI8
I0
sI9
I0
sI10
I0
sI11
I0
sI12
I0
sI13
I0
sI14
I0
sI15
I0
sI16
I0
sI17
I0
sI18
I0
sI19
I0
sI20
I0
sI21
I0
sI22
I0
sI23
I0
sI24
I0
sI25
I0
sI26
I0
sI27
I0
sI28
I0
sI29
I0
sI30
I0
sI31
I0
sI32
I0
sI34
I0
sI35
I0
sa(dp109
I0
I0
sI1
F0.01898989898989899
sI2
F0.3327272727272727
sI3
F0.6478787878787878
sI4
F0.00040404040404040404
sI5
I0
sI6
I0
sI7
I0
sI8
I0
sI9
I0
sI10
I0
sI11
I0
sI12
I0
sI13
I0
sI14
I0
sI15
I0
sI16
I0
sI17
I0
sI18
I0
sI19
I0
sI20
I0
sI21
I0
sI22
I0
sI23
I0
sI24
I0
sI25
I0
sI26
I0
sI27
I0
sI28
I0
sI29
I0
sI30
I0
sI31
I0
sI32
I0
sI33
I0
sI34
I0
sI35
I0
sI36
I0
sI37
I0
sI38
I0
sI39
I0
sI40
I0
sI41
I0
sI42
I0
sI43
I0
sI44
I0
sI45
I0
sI46
I0
sI47
I0
sI48
I0
sI49
I0
sI50
I0
sI51
I0
sI52
I0
sI53
I0
sI54
I0
sI55
I0
sI56
I0
sI57
I0
sI58
I0
sI59
I0
sI60
I0
sI61
I0
sI62
I0
sI63
I0
sI64
I0
sI65
I0
sa(dp110
I0
I1
sI1
I0
sI2
I0
sI3
I0
sI4
I0
sI5
I0
sI6
I0
sI7
I0
sI8
I0
sI9
I0
sI10
I0
sI11
I0
sI12
I0
sI13
I0
sI14
I0
sI15
I0
sI16
I0
sI17
I0
sI18
I0
sI19
I0
sI20
I0
sI21
I0
sI22
I0
sI23
I0
sI24
I0
sI25
I0
sI26
I0
sI27
I0
sI28
I0
sI29
I0
sI30
I0
sI31
I0
sI32
I0
sI33
I0
sI34
I0
sI35
I0
sI36
I0
sI37
I0
sI38
I0
sI39
I0
sI40
I0
sI41
I0
sI42
I0
sI43
I0
sI44
I0
sI45
I0
sI46
I0
sI47
I0
sI48
I0
sI49
I0
sI50
I0
sI51
I0
sI52
I0
sI53
I0
sI54
I0
sI55
I0
sI56
I0
sI57
I0
sI58
I0
sI59
I0
sI60
I0
sI61
I0
sI62
I0
sI63
I0
sI64
I0
sI65
I0
satp111
ba(lp112
g12
(g13
(I0
tp113
g15
tp114
Rp115
((I1
(I3
tp116
g22
I00
(lp117
g26
ag27
ag28
atp118
(Ntp119
tp120
ba(dp121
g66
(dp122
g68
g82
sg69
(lp123
(dp124
g72
g73
(I0
I3
I1
tp125
Rp126
sg76
g102
sasstp127
bbsI2
g3
(g4
g5
Ntp128
Rp129
g3
(g8
g5
Ntp130
Rp131
((lp132
g12
(g13
(I0
tp133
g15
tp134
Rp135
((I1
(I3
tp136
g22
I00
(lp137
g26
ag27
ag28
atp138
(Ntp139
tp140
bag12
(g13
(I0
tp141
g15
tp142
Rp143
((I1
(I2
tp144
g22
I00
(lp145
g37
ag38
atp146
(Ntp147
tp148
ba(lp149
g12
(g43
(I0
tp150
g15
tp151
Rp152
(I1
(I3
I2
tp153
g22
I00
(lp154
(dp155
F0.0
F0.03
sF0.034
F0.01
sF0.1
I0
sF0.033
F0.01
sF0.011
F0.04
sF0.064
I0
sF0.333
I0
sF0.020999999999999998
F0.08
sF0.007
F0.02
sF0.03
I0
sF0.013999999999999999
F0.02
sF0.054
I0
sF0.009999999999999998
F0.02
sF0.051
I0
sF0.031
I0
sF0.052
I0
sF0.066
I0
sF0.012
F0.01
sF0.065
I0
sF0.019
F0.07
sF0.003
I0
sF0.087
I0
sF0.049
I0
sF0.015
F0.06
sF0.022
F0.01
sF0.013000000000000001
I0
sF0.005
F0.01
sF0.166
I0
sF0.047
F0.01
sF0.028999999999999998
F0.01
sF0.036
F0.03
sF0.016999999999999998
F0.07
sF0.045
F0.01
sF0.032
F0.01
sF0.028
F0.07
sF0.016
F0.03
sF0.008
F0.03
sF0.043
I0
sF0.027
F0.05
sF0.057999999999999996
I0
sF0.041
I0
sF0.026
F0.05
sF0.018
F0.02
sF0.004
I0
sF0.04
F0.01
sF0.039
F0.01
sF0.049999999999999996
I0
sF0.024999999999999998
F0.05
sF0.02
F0.01
sF0.046
I0
sF0.009000000000000001
F0.03
sF0.006
F0.03
sF0.041999999999999996
F0.01
sF0.133
I0
sF0.044
I0
sF0.038
F0.01
sF0.034999999999999996
F0.02
sF0.024
I0
sF0.023
F0.04
sF0.9999999999999999
I0
sa(dp156
F0.0
F1.0
sF0.034
I0
sF0.1
I0
sF0.066
I0
sF0.011
I0
sF0.333
I0
sF0.020999999999999998
I0
sF0.007
I0
sF0.03
I0
sF0.013999999999999999
I0
sF0.054
I0
sF0.04
I0
sF0.051
I0
sF0.031
I0
sF0.026
I0
sF0.033
I0
sF0.024
I0
sF0.065
I0
sF0.038
I0
sF0.003
I0
sF0.087
I0
sF0.049
I0
sF0.015
I0
sF0.022
I0
sF0.013000000000000001
I0
sF0.009999999999999998
I0
sF0.166
I0
sF0.047
I0
sF0.028999999999999998
I0
sF0.032
I0
sF0.018
I0
sF0.016999999999999998
I0
sF0.045
I0
sF0.008
I0
sF0.028
I0
sF0.016
I0
sF0.004
I0
sF0.043
I0
sF0.027
I0
sF0.057999999999999996
I0
sF0.041
I0
sF0.052
I0
sF0.036
I0
sF0.064
I0
sF0.005
I0
sF0.039
I0
sF0.049999999999999996
I0
sF0.024999999999999998
I0
sF0.02
I0
sF0.046
I0
sF0.009000000000000001
I0
sF0.012
I0
sF0.041999999999999996
I0
sF0.133
I0
sF0.044
I0
sF0.019
I0
sF0.034999999999999996
I0
sF0.006
I0
sF0.023
I0
sF0.9999999999999999
I0
sa(dp157
I0
I0
sI1
I0
sI2
I0
sI3
I0
sI4
I0
sI5
I0
sI6
I0
sI7
I0
sI8
I0
sI9
I0
sI10
I0
sI11
I0
sI12
F0.02
sI13
I0
sI14
F0.02
sI15
F0.07
sI16
F0.08
sI17
F0.04
sI18
F0.09
sI19
F0.09
sI20
F0.12
sI21
F0.08
sI22
F0.08
sI23
F0.12
sI24
F0.07
sI25
F0.02
sI26
F0.02
sI27
F0.04
sI28
I0
sI29
F0.01
sI30
F0.02
sI31
I0
sI32
I0
sI34
I0
sI35
F0.01
sa(dp158
I0
F1.0
sI1
I0
sI2
I0
sI3
I0
sI4
I0
sI5
I0
sI6
I0
sI7
I0
sI8
I0
sI9
I0
sI10
I0
sI11
I0
sI12
I0
sI13
I0
sI14
I0
sI15
I0
sI16
I0
sI17
I0
sI18
I0
sI19
I0
sI20
I0
sI21
I0
sI22
I0
sI23
I0
sI24
I0
sI25
I0
sI26
I0
sI27
I0
sI28
I0
sI29
I0
sI30
I0
sI31
I0
sI32
I0
sI34
I0
sI35
I0
sa(dp159
I0
I0
sI1
F0.021212121212121213
sI2
F0.32565656565656564
sI3
F0.6527272727272727
sI4
F0.00040404040404040404
sI5
I0
sI6
I0
sI7
I0
sI8
I0
sI9
I0
sI10
I0
sI11
I0
sI12
I0
sI13
I0
sI14
I0
sI15
I0
sI16
I0
sI17
I0
sI18
I0
sI19
I0
sI20
I0
sI21
I0
sI22
I0
sI23
I0
sI24
I0
sI25
I0
sI26
I0
sI27
I0
sI28
I0
sI29
I0
sI30
I0
sI31
I0
sI32
I0
sI33
I0
sI34
I0
sI35
I0
sI36
I0
sI37
I0
sI38
I0
sI39
I0
sI40
I0
sI41
I0
sI42
I0
sI43
I0
sI44
I0
sI45
I0
sI46
I0
sI47
I0
sI48
I0
sI49
I0
sI50
I0
sI51
I0
sI52
I0
sI53
I0
sI54
I0
sI55
I0
sI56
I0
sI57
I0
sI58
I0
sI59
I0
sI60
I0
sI61
I0
sI62
I0
sI63
I0
sI64
I0
sI65
I0
sa(dp160
I0
I1
sI1
I0
sI2
I0
sI3
I0
sI4
I0
sI5
I0
sI6
I0
sI7
I0
sI8
I0
sI9
I0
sI10
I0
sI11
I0
sI12
I0
sI13
I0
sI14
I0
sI15
I0
sI16
I0
sI17
I0
sI18
I0
sI19
I0
sI20
I0
sI21
I0
sI22
I0
sI23
I0
sI24
I0
sI25
I0
sI26
I0
sI27
I0
sI28
I0
sI29
I0
sI30
I0
sI31
I0
sI32
I0
sI33
I0
sI34
I0
sI35
I0
sI36
I0
sI37
I0
sI38
I0
sI39
I0
sI40
I0
sI41
I0
sI42
I0
sI43
I0
sI44
I0
sI45
I0
sI46
I0
sI47
I0
sI48
I0
sI49
I0
sI50
I0
sI51
I0
sI52
I0
sI53
I0
sI54
I0
sI55
I0
sI56
I0
sI57
I0
sI58
I0
sI59
I0
sI60
I0
sI61
I0
sI62
I0
sI63
I0
sI64
I0
sI65
I0
satp161
ba(lp162
g12
(g13
(I0
tp163
g15
tp164
Rp165
((I1
(I3
tp166
g22
I00
(lp167
g26
ag27
ag28
atp168
(Ntp169
tp170
ba(dp171
g66
(dp172
g68
g132
sg69
(lp173
(dp174
g72
g73
(I0
I3
I1
tp175
Rp176
sg76
g152
sasstp177
bbssS'KK Path Sampling'
p178
(dp179
I0
g3
(g4
g5
Ntp180
Rp181
g3
(g8
g5
Ntp182
Rp183
((lp184
g12
(g13
(I0
tp185
g15
tp186
Rp187
((I1
(I3
tp188
g22
I00
(lp189
g26
ag27
ag28
atp190
(Ntp191
tp192
bag12
(g13
(I0
tp193
g15
tp194
Rp195
((I1
(I2
tp196
g22
I00
(lp197
g37
ag38
atp198
(Ntp199
tp200
ba(lp201
g12
(g43
(I0
tp202
g15
tp203
Rp204
(I1
(I3
I2
tp205
g22
I00
(lp206
(dp207
F0.0
F0.0297029702970297
sF0.034
F0.009900990099009901
sF0.1
I0
sF0.033
F0.009900990099009901
sF0.011
F0.0594059405940594
sF0.04
I0
sF0.052
I0
sF0.020999999999999998
F0.06930693069306931
sF0.028
F0.039603960396039604
sF0.03
F0.009900990099009901
sF0.013999999999999999
F0.0297029702970297
sF0.054
I0
sF0.005
F0.039603960396039604
sF0.051
I0
sF0.031
F0.019801980198019802
sF0.026
F0.039603960396039604
sF0.066
I0
sF0.006
F0.0297029702970297
sF0.065
I0
sF0.019
F0.07920792079207921
sF0.087
I0
sF0.049
I0
sF0.015
F0.04950495049504951
sF0.024
I0
sF0.022
F0.019801980198019802
sF0.018
F0.039603960396039604
sF0.166
I0
sF0.047
I0
sF0.028999999999999998
F0.009900990099009901
sF0.009000000000000001
F0.0297029702970297
sF0.016999999999999998
F0.0297029702970297
sF0.045
I0
sF0.016
F0.009900990099009901
sF0.007
F0.019801980198019802
sF0.032
F0.0297029702970297
sF0.004
F0.009900990099009901
sF0.043
I0
sF0.027
F0.0297029702970297
sF0.009999999999999998
F0.07920792079207921
sF0.057999999999999996
I0
sF0.041
F0.009900990099009901
sF0.013000000000000001
F0.009900990099009901
sF0.036
I0
sF0.064
F0.009900990099009901
sF0.02
F0.009900990099009901
sF0.039
F0.019801980198019802
sF0.049999999999999996
F0.009900990099009901
sF0.024999999999999998
F0.019801980198019802
sF0.046
I0
sF0.333
I0
sF0.012
F0.0297029702970297
sF0.041999999999999996
I0
sF0.133
I0
sF0.044
I0
sF0.038
I0
sF0.034999999999999996
I0
sF0.003
F0.009900990099009901
sF0.023
F0.039603960396039604
sF0.008
F0.009900990099009901
sF0.9999999999999999
I0
sa(dp208
F0.0
F1.0
sF0.034
I0
sF0.1
I0
sF0.066
I0
sF0.011
I0
sF0.333
I0
sF0.020999999999999998
I0
sF0.007
I0
sF0.03
I0
sF0.013999999999999999
I0
sF0.054
I0
sF0.04
I0
sF0.051
I0
sF0.031
I0
sF0.026
I0
sF0.033
I0
sF0.024
I0
sF0.065
I0
sF0.038
I0
sF0.003
I0
sF0.087
I0
sF0.049
I0
sF0.015
I0
sF0.022
I0
sF0.013000000000000001
I0
sF0.009999999999999998
I0
sF0.166
I0
sF0.047
I0
sF0.028999999999999998
I0
sF0.032
I0
sF0.018
I0
sF0.016999999999999998
I0
sF0.045
I0
sF0.008
I0
sF0.028
I0
sF0.016
I0
sF0.004
I0
sF0.043
I0
sF0.027
I0
sF0.057999999999999996
I0
sF0.041
I0
sF0.052
I0
sF0.036
I0
sF0.064
I0
sF0.005
I0
sF0.039
I0
sF0.049999999999999996
I0
sF0.024999999999999998
I0
sF0.02
I0
sF0.046
I0
sF0.009000000000000001
I0
sF0.012
I0
sF0.041999999999999996
I0
sF0.133
I0
sF0.044
I0
sF0.019
I0
sF0.034999999999999996
I0
sF0.006
I0
sF0.023
I0
sF0.9999999999999999
I0
sa(dp209
I0
I0
sI1
I0
sI2
I0
sI3
I0
sI4
I0
sI5
I0
sI6
I0
sI7
I0
sI8
I0
sI9
I0
sI10
F0.019801980198019802
sI11
I0
sI12
F0.009900990099009901
sI13
F0.019801980198019802
sI14
I0
sI15
F0.04950495049504951
sI16
F0.04950495049504951
sI17
F0.0297029702970297
sI18
F0.10891089108910891
sI19
F0.0594059405940594
sI20
F0.10891089108910891
sI21
F0.0297029702970297
sI22
F0.09900990099009901
sI23
F0.1188118811881188
sI24
F0.07920792079207921
sI25
F0.0594059405940594
sI26
F0.04950495049504951
sI27
F0.04950495049504951
sI28
F0.04950495049504951
sI29
I0
sI30
F0.009900990099009901
sI31
I0
sI32
I0
sI34
I0
sI35
I0
sa(dp210
I0
I0
sI1
F0.15841584158415842
sI2
F0.7227722772277227
sI3
F0.0891089108910891
sI4
F0.009900990099009901
sI5
F0.009900990099009901
sI6
F0.009900990099009901
sI7
I0
sI8
I0
sI9
I0
sI10
I0
sI11
I0
sI12
I0
sI13
I0
sI14
I0
sI15
I0
sI16
I0
sI17
I0
sI18
I0
sI19
I0
sI20
I0
sI21
I0
sI22
I0
sI23
I0
sI24
I0
sI25
I0
sI26
I0
sI27
I0
sI28
I0
sI29
I0
sI30
I0
sI31
I0
sI32
I0
sI34
I0
sI35
I0
sa(dp211
I0
I0
sI1
F0.03643564356435643
sI2
F0.35504950495049503
sI3
F0.6073267326732673
sI4
F0.001188118811881188
sI5
I0
sI6
I0
sI7
I0
sI8
I0
sI9
I0
sI10
I0
sI11
I0
sI12
I0
sI13
I0
sI14
I0
sI15
I0
sI16
I0
sI17
I0
sI18
I0
sI19
I0
sI20
I0
sI21
I0
sI22
I0
sI23
I0
sI24
I0
sI25
I0
sI26
I0
sI27
I0
sI28
I0
sI29
I0
sI30
I0
sI31
I0
sI32
I0
sI33
I0
sI34
I0
sI35
I0
sI36
I0
sI37
I0
sI38
I0
sI39
I0
sI40
I0
sI41
I0
sI42
I0
sI43
I0
sI44
I0
sI45
I0
sI46
I0
sI47
I0
sI48
I0
sI49
I0
sI50
I0
sI51
I0
sI52
I0
sI53
I0
sI54
I0
sI55
I0
sI56
I0
sI57
I0
sI58
I0
sI59
I0
sI60
I0
sI61
I0
sI62
I0
sI63
I0
sI64
I0
sI65
I0
sa(dp212
I0
I0
sI1
F0.02144659377628259
sI2
F0.027544154751892348
sI3
F0.033010933557611435
sI4
F0.03784693019343986
sI5
F0.04142136248948696
sI6
F0.04373423044575273
sI7
F0.04646761984861228
sI8
F0.0496215306980656
sI9
F0.05298570227081581
sI10
F0.05382674516400336
sI11
F0.051934398654331373
sI12
F0.05067283431455004
sI13
F0.04373423044575273
sI14
F0.04015979814970563
sI15
F0.03763666947014298
sI16
F0.0355340622371741
sI17
F0.033010933557611435
sI18
F0.031118587047939444
sI19
F0.029857022708158116
sI20
F0.028805719091673676
sI21
F0.029226240538267452
sI22
F0.029857022708158116
sI23
F0.02943650126156434
sI24
F0.026703111858704793
sI25
F0.023549201009251473
sI26
F0.019764507989907486
sI27
F0.016190075693860388
sI28
F0.0124053826745164
sI29
F0.00904121110176619
sI30
F0.006307821698906644
sI31
F0.003994953742640875
sI32
F0.0021026072329688814
sI33
F0.0008410428931875525
sI34
F0.00021026072329688813
sI35
I0
sI36
I0
sI37
I0
sI38
I0
sI39
I0
sI40
I0
sI41
I0
sI42
I0
sI43
I0
sI44
I0
sI45
I0
sI46
I0
sI47
I0
sI48
I0
sI49
I0
sI50
I0
sI51
I0
sI52
I0
sI53
I0
sI54
I0
sI55
I0
sI56
I0
sI57
I0
sI58
I0
sI59
I0
sI60
I0
sI61
I0
sI62
I0
sI63
I0
sI64
I0
sI65
I0
satp213
ba(lp214
g12
(g13
(I0
tp215
g15
tp216
Rp217
((I1
(I3
tp218
g22
I00
(lp219
g26
ag27
ag28
atp220
(Ntp221
tp222
ba(dp223
g66
(dp224
g68
g184
sg69
(lp225
(dp226
g72
g73
(I0
I3
I1
tp227
Rp228
sg76
g204
sasstp229
bbsI1
g3
(g4
g5
Ntp230
Rp231
g3
(g8
g5
Ntp232
Rp233
((lp234
g12
(g13
(I0
tp235
g15
tp236
Rp237
((I1
(I3
tp238
g22
I00
(lp239
g26
ag27
ag28
atp240
(Ntp241
tp242
bag12
(g13
(I0
tp243
g15
tp244
Rp245
((I1
(I2
tp246
g22
I00
(lp247
g37
ag38
atp248
(Ntp249
tp250
ba(lp251
g12
(g43
(I0
tp252
g15
tp253
Rp254
(I1
(I3
I2
tp255
g22
I00
(lp256
(dp257
F0.0
F0.00980392156862745
sF0.034
F0.0196078431372549
sF0.1
I0
sF0.033
F0.00980392156862745
sF0.011
F0.029411764705882353
sF0.04
I0
sF0.052
I0
sF0.020999999999999998
F0.0392156862745098
sF0.028
F0.00980392156862745
sF0.03
F0.029411764705882353
sF0.013999999999999999
F0.049019607843137254
sF0.054
I0
sF0.009999999999999998
F0.049019607843137254
sF0.051
I0
sF0.031
F0.00980392156862745
sF0.026
F0.00980392156862745
sF0.066
I0
sF0.012
F0.0196078431372549
sF0.065
I0
sF0.019
F0.13725490196078433
sF0.087
I0
sF0.049
I0
sF0.015
F0.0392156862745098
sF0.022
F0.0392156862745098
sF0.009000000000000001
F0.0196078431372549
sF0.166
I0
sF0.047
I0
sF0.028999999999999998
F0.0196078431372549
sF0.018
F0.00980392156862745
sF0.016999999999999998
F0.049019607843137254
sF0.045
F0.00980392156862745
sF0.016
F0.058823529411764705
sF0.007
F0.0196078431372549
sF0.004
F0.00980392156862745
sF0.032
F0.00980392156862745
sF0.043
I0
sF0.027
F0.0196078431372549
sF0.057999999999999996
I0
sF0.041
I0
sF0.013000000000000001
F0.049019607843137254
sF0.036
F0.00980392156862745
sF0.064
I0
sF0.005
F0.0196078431372549
sF0.039
F0.00980392156862745
sF0.049999999999999996
I0
sF0.024999999999999998
F0.0392156862745098
sF0.02
I0
sF0.046
I0
sF0.333
I0
sF0.003
F0.00980392156862745
sF0.041999999999999996
I0
sF0.133
I0
sF0.044
F0.00980392156862745
sF0.038
F0.0196078431372549
sF0.006
F0.0196078431372549
sF0.034999999999999996
F0.0196078431372549
sF0.024
F0.029411764705882353
sF0.023
F0.0196078431372549
sF0.008
F0.0196078431372549
sF0.9999999999999999
I0
sa(dp258
F0.0
F1.0
sF0.034
I0
sF0.1
I0
sF0.066
I0
sF0.011
I0
sF0.333
I0
sF0.020999999999999998
I0
sF0.007
I0
sF0.03
I0
sF0.013999999999999999
I0
sF0.054
I0
sF0.04
I0
sF0.051
I0
sF0.031
I0
sF0.026
I0
sF0.033
I0
sF0.024
I0
sF0.065
I0
sF0.038
I0
sF0.003
I0
sF0.087
I0
sF0.049
I0
sF0.015
I0
sF0.022
I0
sF0.013000000000000001
I0
sF0.009999999999999998
I0
sF0.166
I0
sF0.047
I0
sF0.028999999999999998
I0
sF0.032
I0
sF0.018
I0
sF0.016999999999999998
I0
sF0.045
I0
sF0.008
I0
sF0.028
I0
sF0.016
I0
sF0.004
I0
sF0.043
I0
sF0.027
I0
sF0.057999999999999996
I0
sF0.041
I0
sF0.052
I0
sF0.036
I0
sF0.064
I0
sF0.005
I0
sF0.039
I0
sF0.049999999999999996
I0
sF0.024999999999999998
I0
sF0.02
I0
sF0.046
I0
sF0.009000000000000001
I0
sF0.012
I0
sF0.041999999999999996
I0
sF0.133
I0
sF0.044
I0
sF0.019
I0
sF0.034999999999999996
I0
sF0.006
I0
sF0.023
I0
sF0.9999999999999999
I0
sa(dp259
I0
I0
sI1
I0
sI2
I0
sI3
I0
sI4
I0
sI5
I0
sI6
I0
sI7
I0
sI8
I0
sI9
I0
sI10
F0.00980392156862745
sI11
F0.00980392156862745
sI12
I0
sI13
F0.029411764705882353
sI14
F0.0392156862745098
sI15
F0.0392156862745098
sI16
F0.0784313725490196
sI17
F0.049019607843137254
sI18
F0.09803921568627451
sI19
F0.09803921568627451
sI20
F0.058823529411764705
sI21
F0.06862745098039216
sI22
F0.08823529411764706
sI23
F0.0784313725490196
sI24
F0.049019607843137254
sI25
F0.029411764705882353
sI26
F0.058823529411764705
sI27
F0.029411764705882353
sI28
F0.0392156862745098
sI29
F0.029411764705882353
sI30
I0
sI31
I0
sI32
I0
sI34
F0.00980392156862745
sI35
F0.00980392156862745
sa(dp260
I0
I0
sI1
F0.14705882352941177
sI2
F0.6274509803921569
sI3
F0.12745098039215685
sI4
F0.0784313725490196
sI5
F0.0196078431372549
sI6
I0
sI7
I0
sI8
I0
sI9
I0
sI10
I0
sI11
I0
sI12
I0
sI13
I0
sI14
I0
sI15
I0
sI16
I0
sI17
I0
sI18
I0
sI19
I0
sI20
I0
sI21
I0
sI22
I0
sI23
I0
sI24
I0
sI25
I0
sI26
I0
sI27
I0
sI28
I0
sI29
I0
sI30
I0
sI31
I0
sI32
I0
sI34
I0
sI35
I0
sa(dp261
I0
I0
sI1
F0.038245000970685304
sI2
F0.3356629780625121
sI3
F0.6249271986022131
sI4
F0.0011648223645894002
sI5
I0
sI6
I0
sI7
I0
sI8
I0
sI9
I0
sI10
I0
sI11
I0
sI12
I0
sI13
I0
sI14
I0
sI15
I0
sI16
I0
sI17
I0
sI18
I0
sI19
I0
sI20
I0
sI21
I0
sI22
I0
sI23
I0
sI24
I0
sI25
I0
sI26
I0
sI27
I0
sI28
I0
sI29
I0
sI30
I0
sI31
I0
sI32
I0
sI33
I0
sI34
I0
sI35
I0
sI36
I0
sI37
I0
sI38
I0
sI39
I0
sI40
I0
sI41
I0
sI42
I0
sI43
I0
sI44
I0
sI45
I0
sI46
I0
sI47
I0
sI48
I0
sI49
I0
sI50
I0
sI51
I0
sI52
I0
sI53
I0
sI54
I0
sI55
I0
sI56
I0
sI57
I0
sI58
I0
sI59
I0
sI60
I0
sI61
I0
sI62
I0
sI63
I0
sI64
I0
sI65
I0
sa(dp262
I0
I0
sI1
F0.0217433508056688
sI2
F0.033197437390797904
sI3
F0.047369442826635605
sI4
F0.0681421083284799
sI5
F0.093185789167152
sI6
F0.11124053581828772
sI7
F0.1267715006794797
sI8
F0.12774218598330422
sI9
F0.11259949524364202
sI10
F0.0924092409240924
sI11
F0.0654241894777713
sI12
F0.041351193942923706
sI13
F0.026790914385556204
sI14
F0.016113376043486703
sI15
F0.0091244418559503
sI16
F0.0044651523975927
sI17
F0.0017472335468841002
sI18
F0.0005824111822947001
sI19
I0
sI20
I0
sI21
I0
sI22
I0
sI23
I0
sI24
I0
sI25
I0
sI26
I0
sI27
I0
sI28
I0
sI29
I0
sI30
I0
sI31
I0
sI32
I0
sI33
I0
sI34
I0
sI35
I0
sI36
I0
sI37
I0
sI38
I0
sI39
I0
sI40
I0
sI41
I0
sI42
I0
sI43
I0
sI44
I0
sI45
I0
sI46
I0
sI47
I0
sI48
I0
sI49
I0
sI50
I0
sI51
I0
sI52
I0
sI53
I0
sI54
I0
sI55
I0
sI56
I0
sI57
I0
sI58
I0
sI59
I0
sI60
I0
sI61
I0
sI62
I0
sI63
I0
sI64
I0
sI65
I0
satp263
ba(lp264
g12
(g13
(I0
tp265
g15
tp266
Rp267
((I1
(I3
tp268
g22
I00
(lp269
g26
ag27
ag28
atp270
(Ntp271
tp272
ba(dp273
g66
(dp274
g68
g234
sg69
(lp275
(dp276
g72
g73
(I0
I3
I1
tp277
Rp278
sg76
g254
sasstp279
bbsI2
g3
(g4
g5
Ntp280
Rp281
g3
(g8
g5
Ntp282
Rp283
((lp284
g12
(g13
(I0
tp285
g15
tp286
Rp287
((I1
(I3
tp288
g22
I00
(lp289
g26
ag27
ag28
atp290
(Ntp291
tp292
bag12
(g13
(I0
tp293
g15
tp294
Rp295
((I1
(I2
tp296
g22
I00
(lp297
g37
ag38
atp298
(Ntp299
tp300
ba(lp301
g12
(g43
(I0
tp302
g15
tp303
Rp304
(I1
(I3
I2
tp305
g22
I00
(lp306
(dp307
F0.0
F0.0297029702970297
sF0.034
F0.009900990099009901
sF0.1
I0
sF0.066
F0.009900990099009901
sF0.011
F0.0297029702970297
sF0.052
I0
sF0.333
I0
sF0.020999999999999998
F0.07920792079207921
sF0.007
F0.009900990099009901
sF0.03
I0
sF0.064
I0
sF0.013999999999999999
F0.019801980198019802
sF0.054
I0
sF0.005
F0.0297029702970297
sF0.051
I0
sF0.031
F0.0297029702970297
sF0.026
F0.019801980198019802
sF0.033
F0.009900990099009901
sF0.012
F0.019801980198019802
sF0.065
I0
sF0.019
F0.04950495049504951
sF0.023
F0.04950495049504951
sF0.087
I0
sF0.049
I0
sF0.015
F0.009900990099009901
sF0.022
F0.019801980198019802
sF0.018
F0.039603960396039604
sF0.166
I0
sF0.047
F0.009900990099009901
sF0.028999999999999998
F0.06930693069306931
sF0.036
F0.0297029702970297
sF0.016999999999999998
F0.04950495049504951
sF0.045
I0
sF0.032
F0.009900990099009901
sF0.028
F0.04950495049504951
sF0.008
F0.019801980198019802
sF0.016
F0.009900990099009901
sF0.043
I0
sF0.027
F0.039603960396039604
sF0.009999999999999998
F0.0594059405940594
sF0.003
I0
sF0.057999999999999996
I0
sF0.041
I0
sF0.013000000000000001
F0.0297029702970297
sF0.004
F0.009900990099009901
sF0.04
F0.0297029702970297
sF0.039
F0.009900990099009901
sF0.049999999999999996
I0
sF0.024999999999999998
F0.009900990099009901
sF0.02
F0.009900990099009901
sF0.009000000000000001
F0.019801980198019802
sF0.024
F0.019801980198019802
sF0.041999999999999996
F0.009900990099009901
sF0.133
I0
sF0.044
F0.009900990099009901
sF0.038
I0
sF0.034999999999999996
I0
sF0.006
F0.009900990099009901
sF0.046
F0.019801980198019802
sF0.9999999999999999
I0
sa(dp308
F0.0
F1.0
sF0.034
I0
sF0.1
I0
sF0.066
I0
sF0.011
I0
sF0.333
I0
sF0.020999999999999998
I0
sF0.007
I0
sF0.03
I0
sF0.013999999999999999
I0
sF0.054
I0
sF0.04
I0
sF0.051
I0
sF0.031
I0
sF0.026
I0
sF0.033
I0
sF0.024
I0
sF0.065
I0
sF0.038
I0
sF0.003
I0
sF0.087
I0
sF0.049
I0
sF0.015
I0
sF0.022
I0
sF0.013000000000000001
I0
sF0.009999999999999998
I0
sF0.166
I0
sF0.047
I0
sF0.028999999999999998
I0
sF0.032
I0
sF0.018
I0
sF0.016999999999999998
I0
sF0.045
I0
sF0.008
I0
sF0.028
I0
sF0.016
I0
sF0.004
I0
sF0.043
I0
sF0.027
I0
sF0.057999999999999996
I0
sF0.041
I0
sF0.052
I0
sF0.036
I0
sF0.064
I0
sF0.005
I0
sF0.039
I0
sF0.049999999999999996
I0
sF0.024999999999999998
I0
sF0.02
I0
sF0.046
I0
sF0.009000000000000001
I0
sF0.012
I0
sF0.041999999999999996
I0
sF0.133
I0
sF0.044
I0
sF0.019
I0
sF0.034999999999999996
I0
sF0.006
I0
sF0.023
I0
sF0.9999999999999999
I0
sa(dp309
I0
I0
sI1
I0
sI2
I0
sI3
I0
sI4
I0
sI5
I0
sI6
I0
sI7
I0
sI8
I0
sI9
I0
sI10
I0
sI11
I0
sI12
F0.019801980198019802
sI13
F0.0297029702970297
sI14
F0.019801980198019802
sI15
F0.0297029702970297
sI16
F0.0297029702970297
sI17
F0.04950495049504951
sI18
F0.04950495049504951
sI19
F0.12871287128712872
sI20
F0.0594059405940594
sI21
F0.06930693069306931
sI22
F0.07920792079207921
sI23
F0.0891089108910891
sI24
F0.12871287128712872
sI25
F0.0594059405940594
sI26
F0.0297029702970297
sI27
F0.04950495049504951
sI28
F0.039603960396039604
sI29
F0.019801980198019802
sI30
I0
sI31
F0.009900990099009901
sI32
F0.009900990099009901
sI34
I0
sI35
I0
sa(dp310
I0
I0
sI1
F0.13861386138613863
sI2
F0.6633663366336634
sI3
F0.13861386138613863
sI4
F0.039603960396039604
sI5
F0.019801980198019802
sI6
I0
sI7
I0
sI8
I0
sI9
I0
sI10
I0
sI11
I0
sI12
I0
sI13
I0
sI14
I0
sI15
I0
sI16
I0
sI17
I0
sI18
I0
sI19
I0
sI20
I0
sI21
I0
sI22
I0
sI23
I0
sI24
I0
sI25
I0
sI26
I0
sI27
I0
sI28
I0
sI29
I0
sI30
I0
sI31
I0
sI32
I0
sI34
I0
sI35
I0
sa(dp311
I0
I0
sI1
F0.03881188118811881
sI2
F0.36277227722772276
sI3
F0.5976237623762376
sI4
F0.0007920792079207921
sI5
I0
sI6
I0
sI7
I0
sI8
I0
sI9
I0
sI10
I0
sI11
I0
sI12
I0
sI13
I0
sI14
I0
sI15
I0
sI16
I0
sI17
I0
sI18
I0
sI19
I0
sI20
I0
sI21
I0
sI22
I0
sI23
I0
sI24
I0
sI25
I0
sI26
I0
sI27
I0
sI28
I0
sI29
I0
sI30
I0
sI31
I0
sI32
I0
sI33
I0
sI34
I0
sI35
I0
sI36
I0
sI37
I0
sI38
I0
sI39
I0
sI40
I0
sI41
I0
sI42
I0
sI43
I0
sI44
I0
sI45
I0
sI46
I0
sI47
I0
sI48
I0
sI49
I0
sI50
I0
sI51
I0
sI52
I0
sI53
I0
sI54
I0
sI55
I0
sI56
I0
sI57
I0
sI58
I0
sI59
I0
sI60
I0
sI61
I0
sI62
I0
sI63
I0
sI64
I0
sI65
I0
sa(dp312
I0
I0
sI1
F0.021386138613861388
sI2
F0.030297029702970296
sI3
F0.04099009900990099
sI4
F0.05465346534653465
sI5
F0.0702970297029703
sI6
F0.08534653465346535
sI7
F0.10178217821782178
sI8
F0.11148514851485149
sI9
F0.10613861386138614
sI10
F0.09960396039603961
sI11
F0.08198019801980198
sI12
F0.06396039603960396
sI13
F0.048712871287128715
sI14
F0.03504950495049505
sI15
F0.02198019801980198
sI16
F0.013465346534653465
sI17
F0.007326732673267326
sI18
F0.0033663366336633663
sI19
F0.001386138613861386
sI20
F0.000594059405940594
sI21
F0.00019801980198019803
sI22
I0
sI23
I0
sI24
I0
sI25
I0
sI26
I0
sI27
I0
sI28
I0
sI29
I0
sI30
I0
sI31
I0
sI32
I0
sI33
I0
sI34
I0
sI35
I0
sI36
I0
sI37
I0
sI38
I0
sI39
I0
sI40
I0
sI41
I0
sI42
I0
sI43
I0
sI44
I0
sI45
I0
sI46
I0
sI47
I0
sI48
I0
sI49
I0
sI50
I0
sI51
I0
sI52
I0
sI53
I0
sI54
I0
sI55
I0
sI56
I0
sI57
I0
sI58
I0
sI59
I0
sI60
I0
sI61
I0
sI62
I0
sI63
I0
sI64
I0
sI65
I0
satp313
ba(lp314
g12
(g13
(I0
tp315
g15
tp316
Rp317
((I1
(I3
tp318
g22
I00
(lp319
g26
ag27
ag28
atp320
(Ntp321
tp322
ba(dp323
g66
(dp324
g68
g284
sg69
(lp325
(dp326
g72
g73
(I0
I3
I1
tp327
Rp328
sg76
g304
sasstp329
bbssS'Random Edge Sampling'
p330
(dp331
I0
g3
(g4
g5
Ntp332
Rp333
g3
(g8
g5
Ntp334
Rp335
((lp336
g12
(g13
(I0
tp337
g15
tp338
Rp339
((I1
(I3
tp340
g22
I00
(lp341
g26
ag27
ag28
atp342
(Ntp343
tp344
bag12
(g13
(I0
tp345
g15
tp346
Rp347
((I1
(I2
tp348
g22
I00
(lp349
g37
ag38
atp350
(Ntp351
tp352
ba(lp353
g12
(g43
(I0
tp354
g15
tp355
Rp356
(I1
(I3
I2
tp357
g22
I00
(lp358
(dp359
F0.0
F0.019801980198019802
sF0.016999999999999998
F0.019801980198019802
sF0.1
I0
sF0.013999999999999999
F0.0594059405940594
sF0.033
F0.009900990099009901
sF0.011
F0.019801980198019802
sF0.04
I0
sF0.052
I0
sF0.020999999999999998
F0.06930693069306931
sF0.03
F0.019801980198019802
sF0.007
F0.0297029702970297
sF0.054
I0
sF0.009999999999999998
F0.06930693069306931
sF0.051
I0
sF0.031
F0.04950495049504951
sF0.026
F0.039603960396039604
sF0.066
I0
sF0.012
F0.019801980198019802
sF0.065
I0
sF0.019
F0.09900990099009901
sF0.087
F0.009900990099009901
sF0.049
I0
sF0.015
F0.0297029702970297
sF0.022
F0.009900990099009901
sF0.036
F0.009900990099009901
sF0.166
I0
sF0.047
I0
sF0.028999999999999998
F0.009900990099009901
sF0.009000000000000001
F0.019801980198019802
sF0.034
F0.019801980198019802
sF0.045
I0
sF0.004
F0.019801980198019802
sF0.028
F0.0594059405940594
sF0.032
F0.009900990099009901
sF0.008
F0.0297029702970297
sF0.016
F0.009900990099009901
sF0.043
I0
sF0.027
I0
sF0.057999999999999996
I0
sF0.041
I0
sF0.013000000000000001
F0.039603960396039604
sF0.018
I0
sF0.064
I0
sF0.005
F0.039603960396039604
sF0.039
F0.009900990099009901
sF0.049999999999999996
I0
sF0.024999999999999998
F0.019801980198019802
sF0.02
I0
sF0.046
I0
sF0.333
I0
sF0.003
F0.009900990099009901
sF0.041999999999999996
I0
sF0.133
I0
sF0.044
I0
sF0.038
F0.019801980198019802
sF0.006
F0.019801980198019802
sF0.034999999999999996
F0.019801980198019802
sF0.024
F0.009900990099009901
sF0.023
F0.04950495049504951
sF0.9999999999999999
I0
sa(dp360
F0.0
F1.0
sF0.034
I0
sF0.1
I0
sF0.033
I0
sF0.011
I0
sF0.020999999999999998
I0
sF0.007
I0
sF0.03
I0
sF0.013999999999999999
I0
sF0.054
I0
sF0.04
I0
sF0.051
I0
sF0.031
I0
sF0.026
I0
sF0.066
I0
sF0.024
I0
sF0.065
I0
sF0.038
I0
sF0.003
I0
sF0.087
I0
sF0.049
I0
sF0.015
I0
sF0.022
I0
sF0.013000000000000001
I0
sF0.009000000000000001
I0
sF0.166
I0
sF0.047
I0
sF0.028999999999999998
I0
sF0.032
I0
sF0.018
I0
sF0.016999999999999998
I0
sF0.045
I0
sF0.008
I0
sF0.028
I0
sF0.016
I0
sF0.004
I0
sF0.043
I0
sF0.027
I0
sF0.009999999999999998
I0
sF0.057999999999999996
I0
sF0.041
I0
sF0.052
I0
sF0.036
I0
sF0.064
I0
sF0.005
I0
sF0.039
I0
sF0.049999999999999996
I0
sF0.024999999999999998
I0
sF0.02
I0
sF0.046
I0
sF0.333
I0
sF0.012
I0
sF0.041999999999999996
I0
sF0.133
I0
sF0.044
I0
sF0.019
I0
sF0.034999999999999996
I0
sF0.006
I0
sF0.023
I0
sF0.9999999999999999
I0
sa(dp361
I0
I0
sI1
I0
sI2
I0
sI3
I0
sI4
I0
sI5
I0
sI6
I0
sI7
I0
sI8
I0
sI9
I0
sI10
I0
sI11
F0.009900990099009901
sI12
F0.009900990099009901
sI13
F0.009900990099009901
sI14
F0.019801980198019802
sI15
F0.04950495049504951
sI16
F0.039603960396039604
sI17
F0.04950495049504951
sI18
F0.06930693069306931
sI19
F0.06930693069306931
sI20
F0.0891089108910891
sI21
F0.10891089108910891
sI22
F0.06930693069306931
sI23
F0.09900990099009901
sI24
F0.07920792079207921
sI25
F0.0594059405940594
sI26
F0.019801980198019802
sI27
F0.039603960396039604
sI28
F0.04950495049504951
sI29
F0.0297029702970297
sI30
I0
sI31
F0.009900990099009901
sI32
I0
sI34
F0.009900990099009901
sI35
F0.009900990099009901
sa(dp362
I0
I0
sI1
F0.9405940594059405
sI2
F0.04950495049504951
sI3
F0.009900990099009901
sI4
I0
sI5
I0
sI6
I0
sI7
I0
sI8
I0
sI9
I0
sI10
I0
sI11
I0
sI12
I0
sI13
I0
sI14
I0
sI15
I0
sI16
I0
sI17
I0
sI18
I0
sI19
I0
sI20
I0
sI21
I0
sI22
I0
sI23
I0
sI24
I0
sI25
I0
sI26
I0
sI27
I0
sI28
I0
sI29
I0
sI30
I0
sI31
I0
sI32
I0
sI34
I0
sI35
I0
sa(dp363
I0
I0
sI1
F0.0297029702970297
sI2
F0.3613861386138614
sI3
F0.6081188118811881
sI4
F0.0007920792079207921
sI5
I0
sI6
I0
sI7
I0
sI8
I0
sI9
I0
sI10
I0
sI11
I0
sI12
I0
sI13
I0
sI14
I0
sI15
I0
sI16
I0
sI17
I0
sI18
I0
sI19
I0
sI20
I0
sI21
I0
sI22
I0
sI23
I0
sI24
I0
sI25
I0
sI26
I0
sI27
I0
sI28
I0
sI29
I0
sI30
I0
sI31
I0
sI32
I0
sI33
I0
sI34
I0
sI35
I0
sI36
I0
sI37
I0
sI38
I0
sI39
I0
sI40
I0
sI41
I0
sI42
I0
sI43
I0
sI44
I0
sI45
I0
sI46
I0
sI47
I0
sI48
I0
sI49
I0
sI50
I0
sI51
I0
sI52
I0
sI53
I0
sI54
I0
sI55
I0
sI56
I0
sI57
I0
sI58
I0
sI59
I0
sI60
I0
sI61
I0
sI62
I0
sI63
I0
sI64
I0
sI65
I0
sa(dp364
I0
I0
sI1
F0.8571428571428571
sI2
F0.12698412698412698
sI3
F0.015873015873015872
sI4
I0
sI5
I0
sI6
I0
sI7
I0
sI8
I0
sI9
I0
sI10
I0
sI11
I0
sI12
I0
sI13
I0
sI14
I0
sI15
I0
sI16
I0
sI17
I0
sI18
I0
sI19
I0
sI20
I0
sI21
I0
sI22
I0
sI23
I0
sI24
I0
sI25
I0
sI26
I0
sI27
I0
sI28
I0
sI29
I0
sI30
I0
sI31
I0
sI32
I0
sI33
I0
sI34
I0
sI35
I0
sI36
I0
sI37
I0
sI38
I0
sI39
I0
sI40
I0
sI41
I0
sI42
I0
sI43
I0
sI44
I0
sI45
I0
sI46
I0
sI47
I0
sI48
I0
sI49
I0
sI50
I0
sI51
I0
sI52
I0
sI53
I0
sI54
I0
sI55
I0
sI56
I0
sI57
I0
sI58
I0
sI59
I0
sI60
I0
sI61
I0
sI62
I0
sI63
I0
sI64
I0
sI65
I0
satp365
ba(lp366
g12
(g13
(I0
tp367
g15
tp368
Rp369
((I1
(I3
tp370
g22
I00
(lp371
g26
ag27
ag28
atp372
(Ntp373
tp374
ba(dp375
g66
(dp376
g68
g336
sg69
(lp377
(dp378
g72
g73
(I0
I3
I1
tp379
Rp380
sg76
g356
sasstp381
bbsI1
g3
(g4
g5
Ntp382
Rp383
g3
(g8
g5
Ntp384
Rp385
((lp386
g12
(g13
(I0
tp387
g15
tp388
Rp389
((I1
(I3
tp390
g22
I00
(lp391
g26
ag27
ag28
atp392
(Ntp393
tp394
bag12
(g13
(I0
tp395
g15
tp396
Rp397
((I1
(I2
tp398
g22
I00
(lp399
g37
ag38
atp400
(Ntp401
tp402
ba(lp403
g12
(g43
(I0
tp404
g15
tp405
Rp406
(I1
(I3
I2
tp407
g22
I00
(lp408
(dp409
F0.0
F0.01
sF0.034
F0.01
sF0.1
I0
sF0.066
I0
sF0.011
F0.04
sF0.020999999999999998
F0.05
sF0.028
F0.04
sF0.03
F0.02
sF0.013999999999999999
F0.05
sF0.054
I0
sF0.005
F0.06
sF0.051
F0.01
sF0.031
F0.01
sF0.052
I0
sF0.033
I0
sF0.012
F0.03
sF0.065
I0
sF0.019
F0.07
sF0.003
I0
sF0.087
I0
sF0.049
I0
sF0.015
F0.03
sF0.022
F0.02
sF0.013000000000000001
I0
sF0.009000000000000001
F0.04
sF0.166
I0
sF0.047
I0
sF0.028999999999999998
F0.01
sF0.018
I0
sF0.016999999999999998
F0.05
sF0.045
F0.01
sF0.008
F0.03
sF0.007
F0.06
sF0.004
F0.02
sF0.032
F0.02
sF0.016
I0
sF0.043
I0
sF0.027
F0.02
sF0.009999999999999998
F0.04
sF0.057999999999999996
I0
sF0.041
F0.01
sF0.026
F0.03
sF0.036
I0
sF0.064
I0
sF0.04
F0.01
sF0.039
F0.02
sF0.049999999999999996
I0
sF0.024999999999999998
F0.03
sF0.02
I0
sF0.046
I0
sF0.333
I0
sF0.006
F0.04
sF0.041999999999999996
I0
sF0.133
I0
sF0.044
F0.01
sF0.038
F0.01
sF0.034999999999999996
F0.03
sF0.024
F0.02
sF0.023
F0.04
sF0.9999999999999999
I0
sa(dp410
F0.0
F1.0
sF0.034
I0
sF0.1
I0
sF0.033
I0
sF0.011
I0
sF0.020999999999999998
I0
sF0.007
I0
sF0.03
I0
sF0.013999999999999999
I0
sF0.054
I0
sF0.04
I0
sF0.051
I0
sF0.031
I0
sF0.026
I0
sF0.066
I0
sF0.024
I0
sF0.065
I0
sF0.038
I0
sF0.003
I0
sF0.087
I0
sF0.049
I0
sF0.015
I0
sF0.022
I0
sF0.013000000000000001
I0
sF0.009000000000000001
I0
sF0.166
I0
sF0.047
I0
sF0.028999999999999998
I0
sF0.032
I0
sF0.018
I0
sF0.016999999999999998
I0
sF0.045
I0
sF0.008
I0
sF0.028
I0
sF0.016
I0
sF0.004
I0
sF0.043
I0
sF0.027
I0
sF0.009999999999999998
I0
sF0.057999999999999996
I0
sF0.041
I0
sF0.052
I0
sF0.036
I0
sF0.064
I0
sF0.005
I0
sF0.039
I0
sF0.049999999999999996
I0
sF0.024999999999999998
I0
sF0.02
I0
sF0.046
I0
sF0.333
I0
sF0.012
I0
sF0.041999999999999996
I0
sF0.133
I0
sF0.044
I0
sF0.019
I0
sF0.034999999999999996
I0
sF0.006
I0
sF0.023
I0
sF0.9999999999999999
I0
sa(dp411
I0
I0
sI1
I0
sI2
I0
sI3
I0
sI4
I0
sI5
I0
sI6
I0
sI7
I0
sI8
I0
sI9
I0
sI10
I0
sI11
I0
sI12
F0.02
sI13
F0.01
sI14
F0.01
sI15
F0.04
sI16
F0.04
sI17
F0.07
sI18
F0.08
sI19
F0.11
sI20
F0.08
sI21
F0.1
sI22
F0.07
sI23
F0.14
sI24
F0.04
sI25
F0.03
sI26
F0.07
sI27
F0.03
sI28
F0.03
sI29
F0.01
sI30
F0.01
sI31
I0
sI32
I0
sI34
F0.01
sI35
I0
sa(dp412
I0
I0
sI1
F0.94
sI2
F0.06
sI3
I0
sI4
I0
sI5
I0
sI6
I0
sI7
I0
sI8
I0
sI9
I0
sI10
I0
sI11
I0
sI12
I0
sI13
I0
sI14
I0
sI15
I0
sI16
I0
sI17
I0
sI18
I0
sI19
I0
sI20
I0
sI21
I0
sI22
I0
sI23
I0
sI24
I0
sI25
I0
sI26
I0
sI27
I0
sI28
I0
sI29
I0
sI30
I0
sI31
I0
sI32
I0
sI34
I0
sI35
I0
sa(dp413
I0
I0
sI1
F0.02707070707070707
sI2
F0.3484848484848485
sI3
F0.6236363636363637
sI4
F0.0008080808080808081
sI5
I0
sI6
I0
sI7
I0
sI8
I0
sI9
I0
sI10
I0
sI11
I0
sI12
I0
sI13
I0
sI14
I0
sI15
I0
sI16
I0
sI17
I0
sI18
I0
sI19
I0
sI20
I0
sI21
I0
sI22
I0
sI23
I0
sI24
I0
sI25
I0
sI26
I0
sI27
I0
sI28
I0
sI29
I0
sI30
I0
sI31
I0
sI32
I0
sI33
I0
sI34
I0
sI35
I0
sI36
I0
sI37
I0
sI38
I0
sI39
I0
sI40
I0
sI41
I0
sI42
I0
sI43
I0
sI44
I0
sI45
I0
sI46
I0
sI47
I0
sI48
I0
sI49
I0
sI50
I0
sI51
I0
sI52
I0
sI53
I0
sI54
I0
sI55
I0
sI56
I0
sI57
I0
sI58
I0
sI59
I0
sI60
I0
sI61
I0
sI62
I0
sI63
I0
sI64
I0
sI65
I0
sa(dp414
I0
I0
sI1
F0.8688524590163934
sI2
F0.09836065573770492
sI3
F0.03278688524590164
sI4
I0
sI5
I0
sI6
I0
sI7
I0
sI8
I0
sI9
I0
sI10
I0
sI11
I0
sI12
I0
sI13
I0
sI14
I0
sI15
I0
sI16
I0
sI17
I0
sI18
I0
sI19
I0
sI20
I0
sI21
I0
sI22
I0
sI23
I0
sI24
I0
sI25
I0
sI26
I0
sI27
I0
sI28
I0
sI29
I0
sI30
I0
sI31
I0
sI32
I0
sI33
I0
sI34
I0
sI35
I0
sI36
I0
sI37
I0
sI38
I0
sI39
I0
sI40
I0
sI41
I0
sI42
I0
sI43
I0
sI44
I0
sI45
I0
sI46
I0
sI47
I0
sI48
I0
sI49
I0
sI50
I0
sI51
I0
sI52
I0
sI53
I0
sI54
I0
sI55
I0
sI56
I0
sI57
I0
sI58
I0
sI59
I0
sI60
I0
sI61
I0
sI62
I0
sI63
I0
sI64
I0
sI65
I0
satp415
ba(lp416
g12
(g13
(I0
tp417
g15
tp418
Rp419
((I1
(I3
tp420
g22
I00
(lp421
g26
ag27
ag28
atp422
(Ntp423
tp424
ba(dp425
g66
(dp426
g68
g386
sg69
(lp427
(dp428
g72
g73
(I0
I3
I1
tp429
Rp430
sg76
g406
sasstp431
bbsI2
g3
(g4
g5
Ntp432
Rp433
g3
(g8
g5
Ntp434
Rp435
((lp436
g12
(g13
(I0
tp437
g15
tp438
Rp439
((I1
(I3
tp440
g22
I00
(lp441
g26
ag27
ag28
atp442
(Ntp443
tp444
bag12
(g13
(I0
tp445
g15
tp446
Rp447
((I1
(I2
tp448
g22
I00
(lp449
g37
ag38
atp450
(Ntp451
tp452
ba(lp453
g12
(g43
(I0
tp454
g15
tp455
Rp456
(I1
(I3
I2
tp457
g22
I00
(lp458
(dp459
F0.0
F0.02
sF0.016999999999999998
F0.05
sF0.1
I0
sF0.013999999999999999
F0.06
sF0.033
F0.02
sF0.036
I0
sF0.011
F0.02
sF0.052
I0
sF0.020999999999999998
F0.06
sF0.03
F0.01
sF0.028
F0.03
sF0.054
I0
sF0.009999999999999998
F0.04
sF0.051
I0
sF0.031
F0.01
sF0.026
F0.04
sF0.066
I0
sF0.003
F0.01
sF0.065
F0.01
sF0.019
F0.04
sF0.087
I0
sF0.049
I0
sF0.015
F0.1
sF0.022
F0.02
sF0.04
F0.01
sF0.166
I0
sF0.047
F0.01
sF0.028999999999999998
F0.03
sF0.009000000000000001
F0.01
sF0.034
F0.02
sF0.045
I0
sF0.008
F0.06
sF0.007
F0.04
sF0.032
F0.01
sF0.004
F0.01
sF0.016
F0.02
sF0.043
I0
sF0.027
I0
sF0.057999999999999996
I0
sF0.041
I0
sF0.013000000000000001
F0.03
sF0.018
F0.03
sF0.064
I0
sF0.005
F0.02
sF0.039
F0.01
sF0.049999999999999996
I0
sF0.024999999999999998
F0.01
sF0.02
I0
sF0.046
I0
sF0.333
I0
sF0.012
F0.06
sF0.041999999999999996
F0.01
sF0.133
I0
sF0.044
I0
sF0.038
F0.02
sF0.006
I0
sF0.034999999999999996
I0
sF0.024
I0
sF0.023
F0.05
sF0.9999999999999999
I0
sa(dp460
F0.0
F1.0
sF0.034
I0
sF0.1
I0
sF0.033
I0
sF0.011
I0
sF0.020999999999999998
I0
sF0.007
I0
sF0.03
I0
sF0.013999999999999999
I0
sF0.054
I0
sF0.04
I0
sF0.051
I0
sF0.031
I0
sF0.026
I0
sF0.066
I0
sF0.024
I0
sF0.065
I0
sF0.038
I0
sF0.003
I0
sF0.087
I0
sF0.049
I0
sF0.015
I0
sF0.022
I0
sF0.013000000000000001
I0
sF0.009000000000000001
I0
sF0.166
I0
sF0.047
I0
sF0.028999999999999998
I0
sF0.032
I0
sF0.018
I0
sF0.016999999999999998
I0
sF0.045
I0
sF0.008
I0
sF0.028
I0
sF0.016
I0
sF0.004
I0
sF0.043
I0
sF0.027
I0
sF0.009999999999999998
I0
sF0.057999999999999996
I0
sF0.041
I0
sF0.052
I0
sF0.036
I0
sF0.064
I0
sF0.005
I0
sF0.039
I0
sF0.049999999999999996
I0
sF0.024999999999999998
I0
sF0.02
I0
sF0.046
I0
sF0.333
I0
sF0.012
I0
sF0.041999999999999996
I0
sF0.133
I0
sF0.044
I0
sF0.019
I0
sF0.034999999999999996
I0
sF0.006
I0
sF0.023
I0
sF0.9999999999999999
I0
sa(dp461
I0
I0
sI1
I0
sI2
I0
sI3
I0
sI4
I0
sI5
I0
sI6
I0
sI7
I0
sI8
I0
sI9
I0
sI10
I0
sI11
I0
sI12
F0.01
sI13
F0.03
sI14
F0.01
sI15
F0.02
sI16
F0.04
sI17
F0.06
sI18
F0.06
sI19
F0.06
sI20
F0.09
sI21
F0.09
sI22
F0.11
sI23
F0.08
sI24
F0.08
sI25
F0.05
sI26
F0.05
sI27
F0.06
sI28
F0.03
sI29
F0.02
sI30
I0
sI31
F0.03
sI32
F0.01
sI34
I0
sI35
F0.01
sa(dp462
I0
I0
sI1
F0.92
sI2
F0.08
sI3
I0
sI4
I0
sI5
I0
sI6
I0
sI7
I0
sI8
I0
sI9
I0
sI10
I0
sI11
I0
sI12
I0
sI13
I0
sI14
I0
sI15
I0
sI16
I0
sI17
I0
sI18
I0
sI19
I0
sI20
I0
sI21
I0
sI22
I0
sI23
I0
sI24
I0
sI25
I0
sI26
I0
sI27
I0
sI28
I0
sI29
I0
sI30
I0
sI31
I0
sI32
I0
sI34
I0
sI35
I0
sa(dp463
I0
I0
sI1
F0.03191919191919192
sI2
F0.3622222222222222
sI3
F0.6046464646464647
sI4
F0.0012121212121212121
sI5
I0
sI6
I0
sI7
I0
sI8
I0
sI9
I0
sI10
I0
sI11
I0
sI12
I0
sI13
I0
sI14
I0
sI15
I0
sI16
I0
sI17
I0
sI18
I0
sI19
I0
sI20
I0
sI21
I0
sI22
I0
sI23
I0
sI24
I0
sI25
I0
sI26
I0
sI27
I0
sI28
I0
sI29
I0
sI30
I0
sI31
I0
sI32
I0
sI33
I0
sI34
I0
sI35
I0
sI36
I0
sI37
I0
sI38
I0
sI39
I0
sI40
I0
sI41
I0
sI42
I0
sI43
I0
sI44
I0
sI45
I0
sI46
I0
sI47
I0
sI48
I0
sI49
I0
sI50
I0
sI51
I0
sI52
I0
sI53
I0
sI54
I0
sI55
I0
sI56
I0
sI57
I0
sI58
I0
sI59
I0
sI60
I0
sI61
I0
sI62
I0
sI63
I0
sI64
I0
sI65
I0
sa(dp464
I0
I0
sI1
F0.84375
sI2
F0.125
sI3
F0.03125
sI4
I0
sI5
I0
sI6
I0
sI7
I0
sI8
I0
sI9
I0
sI10
I0
sI11
I0
sI12
I0
sI13
I0
sI14
I0
sI15
I0
sI16
I0
sI17
I0
sI18
I0
sI19
I0
sI20
I0
sI21
I0
sI22
I0
sI23
I0
sI24
I0
sI25
I0
sI26
I0
sI27
I0
sI28
I0
sI29
I0
sI30
I0
sI31
I0
sI32
I0
sI33
I0
sI34
I0
sI35
I0
sI36
I0
sI37
I0
sI38
I0
sI39
I0
sI40
I0
sI41
I0
sI42
I0
sI43
I0
sI44
I0
sI45
I0
sI46
I0
sI47
I0
sI48
I0
sI49
I0
sI50
I0
sI51
I0
sI52
I0
sI53
I0
sI54
I0
sI55
I0
sI56
I0
sI57
I0
sI58
I0
sI59
I0
sI60
I0
sI61
I0
sI62
I0
sI63
I0
sI64
I0
sI65
I0
satp465
ba(lp466
g12
(g13
(I0
tp467
g15
tp468
Rp469
((I1
(I3
tp470
g22
I00
(lp471
g26
ag27
ag28
atp472
(Ntp473
tp474
ba(dp475
g66
(dp476
g68
g436
sg69
(lp477
(dp478
g72
g73
(I0
I3
I1
tp479
Rp480
sg76
g456
sasstp481
bbssS'Random Walk Sampling'
p482
(dp483
I0
g3
(g4
g5
Ntp484
Rp485
g3
(g8
g5
Ntp486
Rp487
((lp488
g12
(g13
(I0
tp489
g15
tp490
Rp491
((I1
(I3
tp492
g22
I00
(lp493
g26
ag27
ag28
atp494
(Ntp495
tp496
bag12
(g13
(I0
tp497
g15
tp498
Rp499
((I1
(I2
tp500
g22
I00
(lp501
g37
ag38
atp502
(Ntp503
tp504
ba(lp505
g12
(g43
(I0
tp506
g15
tp507
Rp508
(I1
(I3
I2
tp509
g22
I00
(lp510
(dp511
F0.0
F0.02
sF0.034
F0.01
sF0.1
I0
sF0.033
I0
sF0.022
F0.03
sF0.02
I0
sF0.052
I0
sF0.012
I0
sF0.020999999999999998
F0.05
sF0.028
F0.02
sF0.03
F0.01
sF0.064
I0
sF0.007
F0.02
sF0.054
I0
sF0.04
F0.01
sF0.051
I0
sF0.031
F0.01
sF0.026
F0.04
sF0.066
I0
sF0.006
F0.02
sF0.065
I0
sF0.019
F0.12
sF0.087
I0
sF0.049
I0
sF0.015
F0.02
sF0.011
F0.03
sF0.018
F0.02
sF0.166
I0
sF0.047
I0
sF0.028999999999999998
F0.03
sF0.036
F0.02
sF0.016999999999999998
F0.07
sF0.045
I0
sF0.016
F0.02
sF0.013999999999999999
F0.04
sF0.008
F0.04
sF0.032
F0.05
sF0.043
I0
sF0.027
F0.02
sF0.009999999999999998
F0.03
sF0.057999999999999996
I0
sF0.041
I0
sF0.013000000000000001
F0.05
sF0.333
I0
sF0.004
F0.01
sF0.005
I0
sF0.039
F0.01
sF0.049999999999999996
I0
sF0.024999999999999998
F0.02
sF0.023
F0.04
sF0.009000000000000001
F0.03
sF0.003
F0.02
sF0.041999999999999996
F0.01
sF0.133
I0
sF0.044
F0.02
sF0.038
F0.01
sF0.034999999999999996
F0.01
sF0.024
F0.01
sF0.046
F0.01
sF0.9999999999999999
I0
sa(dp512
F0.0
F1.0
sF0.034
I0
sF0.1
I0
sF0.066
I0
sF0.011
I0
sF0.333
I0
sF0.020999999999999998
I0
sF0.007
I0
sF0.03
I0
sF0.013999999999999999
I0
sF0.054
I0
sF0.04
I0
sF0.051
I0
sF0.031
I0
sF0.026
I0
sF0.033
I0
sF0.024
I0
sF0.065
I0
sF0.038
I0
sF0.003
I0
sF0.087
I0
sF0.049
I0
sF0.015
I0
sF0.022
I0
sF0.013000000000000001
I0
sF0.009999999999999998
I0
sF0.166
I0
sF0.047
I0
sF0.028999999999999998
I0
sF0.032
I0
sF0.018
I0
sF0.016999999999999998
I0
sF0.045
I0
sF0.008
I0
sF0.028
I0
sF0.016
I0
sF0.004
I0
sF0.043
I0
sF0.027
I0
sF0.057999999999999996
I0
sF0.041
I0
sF0.052
I0
sF0.036
I0
sF0.064
I0
sF0.005
I0
sF0.039
I0
sF0.049999999999999996
I0
sF0.024999999999999998
I0
sF0.02
I0
sF0.046
I0
sF0.009000000000000001
I0
sF0.012
I0
sF0.041999999999999996
I0
sF0.133
I0
sF0.044
I0
sF0.019
I0
sF0.034999999999999996
I0
sF0.006
I0
sF0.023
I0
sF0.9999999999999999
I0
sa(dp513
I0
I0
sI1
I0
sI2
I0
sI3
I0
sI4
I0
sI5
I0
sI6
I0
sI7
I0
sI8
I0
sI9
I0
sI10
I0
sI11
I0
sI12
I0
sI13
I0
sI14
F0.01
sI15
F0.05
sI16
F0.06
sI17
F0.09
sI18
F0.08
sI19
F0.12
sI20
F0.1
sI21
F0.13
sI22
F0.07
sI23
F0.06
sI24
F0.04
sI25
F0.05
sI26
F0.07
sI27
F0.03
sI28
F0.03
sI29
I0
sI30
F0.01
sI31
I0
sI32
I0
sI34
I0
sI35
I0
sa(dp514
I0
I0
sI1
F0.1
sI2
F0.8
sI3
F0.07
sI4
F0.02
sI5
F0.01
sI6
I0
sI7
I0
sI8
I0
sI9
I0
sI10
I0
sI11
I0
sI12
I0
sI13
I0
sI14
I0
sI15
I0
sI16
I0
sI17
I0
sI18
I0
sI19
I0
sI20
I0
sI21
I0
sI22
I0
sI23
I0
sI24
I0
sI25
I0
sI26
I0
sI27
I0
sI28
I0
sI29
I0
sI30
I0
sI31
I0
sI32
I0
sI34
I0
sI35
I0
sa(dp515
I0
I0
sI1
F0.04
sI2
F0.3511111111111111
sI3
F0.6082828282828283
sI4
F0.0006060606060606061
sI5
I0
sI6
I0
sI7
I0
sI8
I0
sI9
I0
sI10
I0
sI11
I0
sI12
I0
sI13
I0
sI14
I0
sI15
I0
sI16
I0
sI17
I0
sI18
I0
sI19
I0
sI20
I0
sI21
I0
sI22
I0
sI23
I0
sI24
I0
sI25
I0
sI26
I0
sI27
I0
sI28
I0
sI29
I0
sI30
I0
sI31
I0
sI32
I0
sI33
I0
sI34
I0
sI35
I0
sI36
I0
sI37
I0
sI38
I0
sI39
I0
sI40
I0
sI41
I0
sI42
I0
sI43
I0
sI44
I0
sI45
I0
sI46
I0
sI47
I0
sI48
I0
sI49
I0
sI50
I0
sI51
I0
sI52
I0
sI53
I0
sI54
I0
sI55
I0
sI56
I0
sI57
I0
sI58
I0
sI59
I0
sI60
I0
sI61
I0
sI62
I0
sI63
I0
sI64
I0
sI65
I0
sa(dp516
I0
I0
sI1
F0.020606060606060607
sI2
F0.02484848484848485
sI3
F0.026868686868686868
sI4
F0.029696969696969697
sI5
F0.03111111111111111
sI6
F0.03333333333333333
sI7
F0.03616161616161616
sI8
F0.03878787878787879
sI9
F0.042828282828282827
sI10
F0.04363636363636364
sI11
F0.04424242424242424
sI12
F0.044848484848484846
sI13
F0.04666666666666667
sI14
F0.04626262626262626
sI15
F0.04323232323232323
sI16
F0.04323232323232323
sI17
F0.042828282828282827
sI18
F0.037171717171717175
sI19
F0.03111111111111111
sI20
F0.028484848484848484
sI21
F0.026060606060606062
sI22
F0.023434343434343436
sI23
F0.02202020202020202
sI24
F0.020606060606060607
sI25
F0.01919191919191919
sI26
F0.016565656565656565
sI27
F0.014545454545454545
sI28
F0.014545454545454545
sI29
F0.014141414141414142
sI30
F0.013131313131313131
sI31
F0.013535353535353536
sI32
F0.012323232323232323
sI33
F0.011111111111111112
sI34
F0.009292929292929294
sI35
F0.00787878787878788
sI36
F0.007474747474747475
sI37
F0.006060606060606061
sI38
F0.0044444444444444444
sI39
F0.0026262626262626263
sI40
F0.00202020202020202
sI41
F0.0016161616161616162
sI42
F0.00101010101010101
sI43
F0.00040404040404040404
sI44
I0
sI45
I0
sI46
I0
sI47
I0
sI48
I0
sI49
I0
sI50
I0
sI51
I0
sI52
I0
sI53
I0
sI54
I0
sI55
I0
sI56
I0
sI57
I0
sI58
I0
sI59
I0
sI60
I0
sI61
I0
sI62
I0
sI63
I0
sI64
I0
sI65
I0
satp517
ba(lp518
g12
(g13
(I0
tp519
g15
tp520
Rp521
((I1
(I3
tp522
g22
I00
(lp523
g26
ag27
ag28
atp524
(Ntp525
tp526
ba(dp527
g66
(dp528
g68
g488
sg69
(lp529
(dp530
g72
g73
(I0
I3
I1
tp531
Rp532
sg76
g508
sasstp533
bbsI1
g3
(g4
g5
Ntp534
Rp535
g3
(g8
g5
Ntp536
Rp537
((lp538
g12
(g13
(I0
tp539
g15
tp540
Rp541
((I1
(I3
tp542
g22
I00
(lp543
g26
ag27
ag28
atp544
(Ntp545
tp546
bag12
(g13
(I0
tp547
g15
tp548
Rp549
((I1
(I2
tp550
g22
I00
(lp551
g37
ag38
atp552
(Ntp553
tp554
ba(lp555
g12
(g43
(I0
tp556
g15
tp557
Rp558
(I1
(I3
I2
tp559
g22
I00
(lp560
(dp561
F0.0
F0.04
sF0.034
F0.01
sF0.1
I0
sF0.033
I0
sF0.011
F0.06
sF0.04
I0
sF0.052
F0.01
sF0.333
I0
sF0.020999999999999998
F0.05
sF0.028
F0.02
sF0.03
F0.02
sF0.007
F0.03
sF0.054
I0
sF0.009999999999999998
F0.03
sF0.051
I0
sF0.031
F0.01
sF0.026
F0.03
sF0.066
I0
sF0.006
F0.01
sF0.065
I0
sF0.019
F0.05
sF0.003
I0
sF0.087
I0
sF0.049
I0
sF0.015
F0.1
sF0.022
F0.03
sF0.018
F0.02
sF0.166
I0
sF0.047
F0.01
sF0.028999999999999998
F0.02
sF0.036
F0.04
sF0.016999999999999998
F0.04
sF0.045
I0
sF0.004
F0.02
sF0.013999999999999999
F0.05
sF0.016
F0.02
sF0.032
F0.03
sF0.043
I0
sF0.027
I0
sF0.057999999999999996
I0
sF0.041
I0
sF0.013000000000000001
F0.01
sF0.064
I0
sF0.005
F0.02
sF0.039
I0
sF0.049999999999999996
I0
sF0.024999999999999998
F0.08
sF0.02
I0
sF0.046
I0
sF0.009000000000000001
F0.03
sF0.012
F0.03
sF0.041999999999999996
I0
sF0.133
I0
sF0.044
I0
sF0.038
F0.01
sF0.034999999999999996
F0.01
sF0.024
F0.01
sF0.023
F0.01
sF0.008
F0.04
sF0.9999999999999999
I0
sa(dp562
F0.0
F1.0
sF0.034
I0
sF0.1
I0
sF0.066
I0
sF0.011
I0
sF0.333
I0
sF0.020999999999999998
I0
sF0.007
I0
sF0.03
I0
sF0.013999999999999999
I0
sF0.054
I0
sF0.04
I0
sF0.051
I0
sF0.031
I0
sF0.026
I0
sF0.033
I0
sF0.024
I0
sF0.065
I0
sF0.038
I0
sF0.003
I0
sF0.087
I0
sF0.049
I0
sF0.015
I0
sF0.022
I0
sF0.013000000000000001
I0
sF0.009999999999999998
I0
sF0.166
I0
sF0.047
I0
sF0.028999999999999998
I0
sF0.032
I0
sF0.018
I0
sF0.016999999999999998
I0
sF0.045
I0
sF0.008
I0
sF0.028
I0
sF0.016
I0
sF0.004
I0
sF0.043
I0
sF0.027
I0
sF0.057999999999999996
I0
sF0.041
I0
sF0.052
I0
sF0.036
I0
sF0.064
I0
sF0.005
I0
sF0.039
I0
sF0.049999999999999996
I0
sF0.024999999999999998
I0
sF0.02
I0
sF0.046
I0
sF0.009000000000000001
I0
sF0.012
I0
sF0.041999999999999996
I0
sF0.133
I0
sF0.044
I0
sF0.019
I0
sF0.034999999999999996
I0
sF0.006
I0
sF0.023
I0
sF0.9999999999999999
I0
sa(dp563
I0
I0
sI1
I0
sI2
I0
sI3
I0
sI4
I0
sI5
I0
sI6
I0
sI7
I0
sI8
F0.01
sI9
I0
sI10
F0.01
sI11
F0.01
sI12
F0.02
sI13
F0.03
sI14
F0.01
sI15
F0.03
sI16
F0.06
sI17
F0.09
sI18
F0.06
sI19
F0.09
sI20
F0.11
sI21
F0.07
sI22
F0.07
sI23
F0.08
sI24
F0.06
sI25
F0.05
sI26
F0.04
sI27
F0.03
sI28
F0.03
sI29
F0.02
sI30
F0.01
sI31
F0.01
sI32
I0
sI34
I0
sI35
I0
sa(dp564
I0
I0
sI1
F0.06
sI2
F0.84
sI3
F0.04
sI4
F0.06
sI5
I0
sI6
I0
sI7
I0
sI8
I0
sI9
I0
sI10
I0
sI11
I0
sI12
I0
sI13
I0
sI14
I0
sI15
I0
sI16
I0
sI17
I0
sI18
I0
sI19
I0
sI20
I0
sI21
I0
sI22
I0
sI23
I0
sI24
I0
sI25
I0
sI26
I0
sI27
I0
sI28
I0
sI29
I0
sI30
I0
sI31
I0
sI32
I0
sI34
I0
sI35
I0
sa(dp565
I0
I0
sI1
F0.03898989898989899
sI2
F0.3335353535353535
sI3
F0.6254545454545455
sI4
F0.00202020202020202
sI5
I0
sI6
I0
sI7
I0
sI8
I0
sI9
I0
sI10
I0
sI11
I0
sI12
I0
sI13
I0
sI14
I0
sI15
I0
sI16
I0
sI17
I0
sI18
I0
sI19
I0
sI20
I0
sI21
I0
sI22
I0
sI23
I0
sI24
I0
sI25
I0
sI26
I0
sI27
I0
sI28
I0
sI29
I0
sI30
I0
sI31
I0
sI32
I0
sI33
I0
sI34
I0
sI35
I0
sI36
I0
sI37
I0
sI38
I0
sI39
I0
sI40
I0
sI41
I0
sI42
I0
sI43
I0
sI44
I0
sI45
I0
sI46
I0
sI47
I0
sI48
I0
sI49
I0
sI50
I0
sI51
I0
sI52
I0
sI53
I0
sI54
I0
sI55
I0
sI56
I0
sI57
I0
sI58
I0
sI59
I0
sI60
I0
sI61
I0
sI62
I0
sI63
I0
sI64
I0
sI65
I0
sa(dp566
I0
I0
sI1
F0.021212121212121213
sI2
F0.02666666666666667
sI3
F0.03272727272727273
sI4
F0.03737373737373737
sI5
F0.04181818181818182
sI6
F0.04626262626262626
sI7
F0.05090909090909091
sI8
F0.055353535353535356
sI9
F0.06060606060606061
sI10
F0.06282828282828283
sI11
F0.060404040404040404
sI12
F0.06222222222222222
sI13
F0.0595959595959596
sI14
F0.05333333333333334
sI15
F0.04242424242424243
sI16
F0.03575757575757576
sI17
F0.03212121212121212
sI18
F0.026262626262626262
sI19
F0.02404040404040404
sI20
F0.023232323232323233
sI21
F0.022222222222222223
sI22
F0.020202020202020204
sI23
F0.017777777777777778
sI24
F0.015555555555555555
sI25
F0.013131313131313131
sI26
F0.011111111111111112
sI27
F0.009494949494949495
sI28
F0.00787878787878788
sI29
F0.007070707070707071
sI30
F0.006262626262626263
sI31
F0.005050505050505051
sI32
F0.0036363636363636364
sI33
F0.0026262626262626263
sI34
F0.0016161616161616162
sI35
F0.0008080808080808081
sI36
F0.00040404040404040404
sI37
I0
sI38
I0
sI39
I0
sI40
I0
sI41
I0
sI42
I0
sI43
I0
sI44
I0
sI45
I0
sI46
I0
sI47
I0
sI48
I0
sI49
I0
sI50
I0
sI51
I0
sI52
I0
sI53
I0
sI54
I0
sI55
I0
sI56
I0
sI57
I0
sI58
I0
sI59
I0
sI60
I0
sI61
I0
sI62
I0
sI63
I0
sI64
I0
sI65
I0
satp567
ba(lp568
g12
(g13
(I0
tp569
g15
tp570
Rp571
((I1
(I3
tp572
g22
I00
(lp573
g26
ag27
ag28
atp574
(Ntp575
tp576
ba(dp577
g66
(dp578
g68
g538
sg69
(lp579
(dp580
g72
g73
(I0
I3
I1
tp581
Rp582
sg76
g558
sasstp583
bbsI2
g3
(g4
g5
Ntp584
Rp585
g3
(g8
g5
Ntp586
Rp587
((lp588
g12
(g13
(I0
tp589
g15
tp590
Rp591
((I1
(I3
tp592
g22
I00
(lp593
g26
ag27
ag28
atp594
(Ntp595
tp596
bag12
(g13
(I0
tp597
g15
tp598
Rp599
((I1
(I2
tp600
g22
I00
(lp601
g37
ag38
atp602
(Ntp603
tp604
ba(lp605
g12
(g43
(I0
tp606
g15
tp607
Rp608
(I1
(I3
I2
tp609
g22
I00
(lp610
(dp611
F0.0
I0
sF0.016999999999999998
F0.02
sF0.1
I0
sF0.013999999999999999
F0.03
sF0.033
F0.02
sF0.022
F0.04
sF0.052
I0
sF0.333
I0
sF0.020999999999999998
F0.08
sF0.064
I0
sF0.03
F0.01
sF0.007
F0.04
sF0.054
I0
sF0.04
F0.02
sF0.051
I0
sF0.031
F0.02
sF0.013000000000000001
F0.01
sF0.066
I0
sF0.024
F0.01
sF0.065
I0
sF0.038
F0.03
sF0.003
I0
sF0.087
I0
sF0.049
I0
sF0.015
F0.06
sF0.011
F0.02
sF0.018
F0.03
sF0.166
I0
sF0.047
I0
sF0.028999999999999998
F0.05
sF0.036
F0.01
sF0.034
F0.02
sF0.045
I0
sF0.016
F0.02
sF0.028
F0.04
sF0.008
F0.02
sF0.032
F0.01
sF0.043
I0
sF0.027
I0
sF0.009999999999999998
F0.03
sF0.057999999999999996
I0
sF0.041
F0.01
sF0.026
F0.05
sF0.004
I0
sF0.005
F0.04
sF0.039
F0.01
sF0.049999999999999996
I0
sF0.024999999999999998
F0.03
sF0.02
F0.01
sF0.046
I0
sF0.009000000000000001
F0.04
sF0.012
F0.03
sF0.041999999999999996
F0.02
sF0.133
I0
sF0.044
I0
sF0.019
F0.05
sF0.034999999999999996
I0
sF0.006
F0.04
sF0.023
F0.03
sF0.9999999999999999
I0
sa(dp612
F0.0
F1.0
sF0.034
I0
sF0.1
I0
sF0.066
I0
sF0.011
I0
sF0.333
I0
sF0.020999999999999998
I0
sF0.007
I0
sF0.03
I0
sF0.013999999999999999
I0
sF0.054
I0
sF0.04
I0
sF0.051
I0
sF0.031
I0
sF0.026
I0
sF0.033
I0
sF0.024
I0
sF0.065
I0
sF0.038
I0
sF0.003
I0
sF0.087
I0
sF0.049
I0
sF0.015
I0
sF0.022
I0
sF0.013000000000000001
I0
sF0.009999999999999998
I0
sF0.166
I0
sF0.047
I0
sF0.028999999999999998
I0
sF0.032
I0
sF0.018
I0
sF0.016999999999999998
I0
sF0.045
I0
sF0.008
I0
sF0.028
I0
sF0.016
I0
sF0.004
I0
sF0.043
I0
sF0.027
I0
sF0.057999999999999996
I0
sF0.041
I0
sF0.052
I0
sF0.036
I0
sF0.064
I0
sF0.005
I0
sF0.039
I0
sF0.049999999999999996
I0
sF0.024999999999999998
I0
sF0.02
I0
sF0.046
I0
sF0.009000000000000001
I0
sF0.012
I0
sF0.041999999999999996
I0
sF0.133
I0
sF0.044
I0
sF0.019
I0
sF0.034999999999999996
I0
sF0.006
I0
sF0.023
I0
sF0.9999999999999999
I0
sa(dp613
I0
I0
sI1
I0
sI2
I0
sI3
I0
sI4
I0
sI5
I0
sI6
I0
sI7
I0
sI8
I0
sI9
I0
sI10
I0
sI11
I0
sI12
I0
sI13
F0.01
sI14
F0.01
sI15
F0.05
sI16
F0.05
sI17
F0.06
sI18
F0.09
sI19
F0.1
sI20
F0.15
sI21
F0.07
sI22
F0.06
sI23
F0.07
sI24
F0.1
sI25
F0.05
sI26
F0.02
sI27
F0.03
sI28
F0.01
sI29
F0.04
sI30
F0.03
sI31
I0
sI32
I0
sI34
I0
sI35
I0
sa(dp614
I0
I0
sI1
F0.05
sI2
F0.91
sI3
F0.03
sI4
F0.01
sI5
I0
sI6
I0
sI7
I0
sI8
I0
sI9
I0
sI10
I0
sI11
I0
sI12
I0
sI13
I0
sI14
I0
sI15
I0
sI16
I0
sI17
I0
sI18
I0
sI19
I0
sI20
I0
sI21
I0
sI22
I0
sI23
I0
sI24
I0
sI25
I0
sI26
I0
sI27
I0
sI28
I0
sI29
I0
sI30
I0
sI31
I0
sI32
I0
sI34
I0
sI35
I0
sa(dp615
I0
I0
sI1
F0.040202020202020204
sI2
F0.36262626262626263
sI3
F0.5963636363636363
sI4
F0.0008080808080808081
sI5
I0
sI6
I0
sI7
I0
sI8
I0
sI9
I0
sI10
I0
sI11
I0
sI12
I0
sI13
I0
sI14
I0
sI15
I0
sI16
I0
sI17
I0
sI18
I0
sI19
I0
sI20
I0
sI21
I0
sI22
I0
sI23
I0
sI24
I0
sI25
I0
sI26
I0
sI27
I0
sI28
I0
sI29
I0
sI30
I0
sI31
I0
sI32
I0
sI33
I0
sI34
I0
sI35
I0
sI36
I0
sI37
I0
sI38
I0
sI39
I0
sI40
I0
sI41
I0
sI42
I0
sI43
I0
sI44
I0
sI45
I0
sI46
I0
sI47
I0
sI48
I0
sI49
I0
sI50
I0
sI51
I0
sI52
I0
sI53
I0
sI54
I0
sI55
I0
sI56
I0
sI57
I0
sI58
I0
sI59
I0
sI60
I0
sI61
I0
sI62
I0
sI63
I0
sI64
I0
sI65
I0
sa(dp616
I0
I0
sI1
F0.020202020202020204
sI2
F0.021414141414141413
sI3
F0.022424242424242423
sI4
F0.02303030303030303
sI5
F0.023636363636363636
sI6
F0.02383838383838384
sI7
F0.02383838383838384
sI8
F0.02404040404040404
sI9
F0.024242424242424242
sI10
F0.024444444444444446
sI11
F0.024646464646464646
sI12
F0.02484848484848485
sI13
F0.025050505050505052
sI14
F0.02484848484848485
sI15
F0.024444444444444446
sI16
F0.024242424242424242
sI17
F0.024444444444444446
sI18
F0.024646464646464646
sI19
F0.024444444444444446
sI20
F0.024646464646464646
sI21
F0.024646464646464646
sI22
F0.024646464646464646
sI23
F0.024646464646464646
sI24
F0.024646464646464646
sI25
F0.024444444444444446
sI26
F0.024444444444444446
sI27
F0.024444444444444446
sI28
F0.024444444444444446
sI29
F0.024242424242424242
sI30
F0.024242424242424242
sI31
F0.024242424242424242
sI32
F0.024242424242424242
sI33
F0.02404040404040404
sI34
F0.02404040404040404
sI35
F0.02404040404040404
sI36
F0.024242424242424242
sI37
F0.02404040404040404
sI38
F0.02404040404040404
sI39
F0.02404040404040404
sI40
F0.02404040404040404
sI41
F0.007676767676767677
sI42
F0.0056565656565656566
sI43
F0.0048484848484848485
sI44
F0.00404040404040404
sI45
F0.0032323232323232323
sI46
F0.0028282828282828283
sI47
F0.0024242424242424242
sI48
F0.00202020202020202
sI49
F0.0016161616161616162
sI50
F0.0012121212121212121
sI51
F0.0008080808080808081
sI52
F0.00040404040404040404
sI53
I0
sI54
I0
sI55
I0
sI56
I0
sI57
I0
sI58
I0
sI59
I0
sI60
I0
sI61
I0
sI62
I0
sI63
I0
sI64
I0
sI65
I0
satp617
ba(lp618
g12
(g13
(I0
tp619
g15
tp620
Rp621
((I1
(I3
tp622
g22
I00
(lp623
g26
ag27
ag28
atp624
(Ntp625
tp626
ba(dp627
g66
(dp628
g68
g588
sg69
(lp629
(dp630
g72
g73
(I0
I3
I1
tp631
Rp632
sg76
g608
sasstp633
bbssS'KM Path Sampling'
p634
(dp635
I0
g3
(g4
g5
Ntp636
Rp637
g3
(g8
g5
Ntp638
Rp639
((lp640
g12
(g13
(I0
tp641
g15
tp642
Rp643
((I1
(I3
tp644
g22
I00
(lp645
g26
ag27
ag28
atp646
(Ntp647
tp648
bag12
(g13
(I0
tp649
g15
tp650
Rp651
((I1
(I2
tp652
g22
I00
(lp653
g37
ag38
atp654
(Ntp655
tp656
ba(lp657
g12
(g43
(I0
tp658
g15
tp659
Rp660
(I1
(I3
I2
tp661
g22
I00
(lp662
(dp663
F0.0
F0.009900990099009901
sF0.034
I0
sF0.1
I0
sF0.033
F0.009900990099009901
sF0.022
F0.019801980198019802
sF0.04
I0
sF0.004
I0
sF0.052
I0
sF0.020999999999999998
F0.07920792079207921
sF0.007
F0.0297029702970297
sF0.03
F0.009900990099009901
sF0.028
F0.0297029702970297
sF0.054
I0
sF0.005
F0.0297029702970297
sF0.051
I0
sF0.031
F0.019801980198019802
sF0.026
F0.06930693069306931
sF0.066
I0
sF0.012
F0.0594059405940594
sF0.065
I0
sF0.019
F0.0297029702970297
sF0.003
I0
sF0.087
I0
sF0.049
I0
sF0.015
F0.039603960396039604
sF0.011
F0.06930693069306931
sF0.018
F0.019801980198019802
sF0.166
I0
sF0.047
I0
sF0.028999999999999998
F0.0297029702970297
sF0.009000000000000001
F0.04950495049504951
sF0.016999999999999998
F0.0297029702970297
sF0.045
F0.009900990099009901
sF0.016
F0.019801980198019802
sF0.013999999999999999
F0.039603960396039604
sF0.032
F0.009900990099009901
sF0.008
F0.0297029702970297
sF0.043
I0
sF0.027
F0.0297029702970297
sF0.009999999999999998
F0.0594059405940594
sF0.057999999999999996
I0
sF0.041
F0.009900990099009901
sF0.013000000000000001
F0.0297029702970297
sF0.036
I0
sF0.064
F0.009900990099009901
sF0.02
F0.009900990099009901
sF0.039
F0.009900990099009901
sF0.049999999999999996
F0.009900990099009901
sF0.024999999999999998
F0.019801980198019802
sF0.046
I0
sF0.333
I0
sF0.024
F0.009900990099009901
sF0.041999999999999996
I0
sF0.133
I0
sF0.044
I0
sF0.038
I0
sF0.034999999999999996
F0.009900990099009901
sF0.006
F0.009900990099009901
sF0.023
F0.039603960396039604
sF0.9999999999999999
I0
sa(dp664
F0.0
F1.0
sF0.034
I0
sF0.1
I0
sF0.066
I0
sF0.011
I0
sF0.333
I0
sF0.020999999999999998
I0
sF0.007
I0
sF0.03
I0
sF0.013999999999999999
I0
sF0.054
I0
sF0.04
I0
sF0.051
I0
sF0.031
I0
sF0.026
I0
sF0.033
I0
sF0.024
I0
sF0.065
I0
sF0.038
I0
sF0.003
I0
sF0.087
I0
sF0.049
I0
sF0.015
I0
sF0.022
I0
sF0.013000000000000001
I0
sF0.009999999999999998
I0
sF0.166
I0
sF0.047
I0
sF0.028999999999999998
I0
sF0.032
I0
sF0.018
I0
sF0.016999999999999998
I0
sF0.045
I0
sF0.008
I0
sF0.028
I0
sF0.016
I0
sF0.004
I0
sF0.043
I0
sF0.027
I0
sF0.057999999999999996
I0
sF0.041
I0
sF0.052
I0
sF0.036
I0
sF0.064
I0
sF0.005
I0
sF0.039
I0
sF0.049999999999999996
I0
sF0.024999999999999998
I0
sF0.02
I0
sF0.046
I0
sF0.009000000000000001
I0
sF0.012
I0
sF0.041999999999999996
I0
sF0.133
I0
sF0.044
I0
sF0.019
I0
sF0.034999999999999996
I0
sF0.006
I0
sF0.023
I0
sF0.9999999999999999
I0
sa(dp665
I0
I0
sI1
I0
sI2
I0
sI3
I0
sI4
I0
sI5
I0
sI6
I0
sI7
I0
sI8
I0
sI9
I0
sI10
I0
sI11
F0.009900990099009901
sI12
F0.009900990099009901
sI13
F0.0297029702970297
sI14
F0.0297029702970297
sI15
F0.06930693069306931
sI16
F0.06930693069306931
sI17
F0.07920792079207921
sI18
F0.04950495049504951
sI19
F0.10891089108910891
sI20
F0.1188118811881188
sI21
F0.039603960396039604
sI22
F0.09900990099009901
sI23
F0.10891089108910891
sI24
F0.009900990099009901
sI25
F0.04950495049504951
sI26
F0.0594059405940594
sI27
F0.019801980198019802
sI28
F0.019801980198019802
sI29
F0.009900990099009901
sI30
I0
sI31
F0.009900990099009901
sI32
I0
sI34
I0
sI35
I0
sa(dp666
I0
I0
sI1
F0.24752475247524752
sI2
F0.6732673267326733
sI3
F0.06930693069306931
sI4
F0.009900990099009901
sI5
I0
sI6
I0
sI7
I0
sI8
I0
sI9
I0
sI10
I0
sI11
I0
sI12
I0
sI13
I0
sI14
I0
sI15
I0
sI16
I0
sI17
I0
sI18
I0
sI19
I0
sI20
I0
sI21
I0
sI22
I0
sI23
I0
sI24
I0
sI25
I0
sI26
I0
sI27
I0
sI28
I0
sI29
I0
sI30
I0
sI31
I0
sI32
I0
sI34
I0
sI35
I0
sa(dp667
I0
I0
sI1
F0.03346534653465347
sI2
F0.3310891089108911
sI3
F0.6340594059405941
sI4
F0.001386138613861386
sI5
I0
sI6
I0
sI7
I0
sI8
I0
sI9
I0
sI10
I0
sI11
I0
sI12
I0
sI13
I0
sI14
I0
sI15
I0
sI16
I0
sI17
I0
sI18
I0
sI19
I0
sI20
I0
sI21
I0
sI22
I0
sI23
I0
sI24
I0
sI25
I0
sI26
I0
sI27
I0
sI28
I0
sI29
I0
sI30
I0
sI31
I0
sI32
I0
sI33
I0
sI34
I0
sI35
I0
sI36
I0
sI37
I0
sI38
I0
sI39
I0
sI40
I0
sI41
I0
sI42
I0
sI43
I0
sI44
I0
sI45
I0
sI46
I0
sI47
I0
sI48
I0
sI49
I0
sI50
I0
sI51
I0
sI52
I0
sI53
I0
sI54
I0
sI55
I0
sI56
I0
sI57
I0
sI58
I0
sI59
I0
sI60
I0
sI61
I0
sI62
I0
sI63
I0
sI64
I0
sI65
I0
sa(dp668
I0
I0
sI1
F0.09627329192546584
sI2
F0.09834368530020704
sI3
F0.09834368530020704
sI4
F0.09316770186335403
sI5
F0.08592132505175984
sI6
F0.07763975155279502
sI7
F0.06832298136645963
sI8
F0.061076604554865424
sI9
F0.051759834368530024
sI10
F0.049689440993788817
sI11
F0.045548654244306416
sI12
F0.041407867494824016
sI13
F0.036231884057971016
sI14
F0.028985507246376812
sI15
F0.023809523809523808
sI16
F0.018633540372670808
sI17
F0.012422360248447204
sI18
F0.008281573498964804
sI19
F0.004140786749482402
sI20
I0
sI21
I0
sI22
I0
sI23
I0
sI24
I0
sI25
I0
sI26
I0
sI27
I0
sI28
I0
sI29
I0
sI30
I0
sI31
I0
sI32
I0
sI33
I0
sI34
I0
sI35
I0
sI36
I0
sI37
I0
sI38
I0
sI39
I0
sI40
I0
sI41
I0
sI42
I0
sI43
I0
sI44
I0
sI45
I0
sI46
I0
sI47
I0
sI48
I0
sI49
I0
sI50
I0
sI51
I0
sI52
I0
sI53
I0
sI54
I0
sI55
I0
sI56
I0
sI57
I0
sI58
I0
sI59
I0
sI60
I0
sI61
I0
sI62
I0
sI63
I0
sI64
I0
sI65
I0
satp669
ba(lp670
g12
(g13
(I0
tp671
g15
tp672
Rp673
((I1
(I3
tp674
g22
I00
(lp675
g26
ag27
ag28
atp676
(Ntp677
tp678
ba(dp679
g66
(dp680
g68
g640
sg69
(lp681
(dp682
g72
g73
(I0
I3
I1
tp683
Rp684
sg76
g660
sasstp685
bbsI1
g3
(g4
g5
Ntp686
Rp687
g3
(g8
g5
Ntp688
Rp689
((lp690
g12
(g13
(I0
tp691
g15
tp692
Rp693
((I1
(I3
tp694
g22
I00
(lp695
g26
ag27
ag28
atp696
(Ntp697
tp698
bag12
(g13
(I0
tp699
g15
tp700
Rp701
((I1
(I2
tp702
g22
I00
(lp703
g37
ag38
atp704
(Ntp705
tp706
ba(lp707
g12
(g43
(I0
tp708
g15
tp709
Rp710
(I1
(I3
I2
tp711
g22
I00
(lp712
(dp713
F0.0
F0.0297029702970297
sF0.016999999999999998
F0.009900990099009901
sF0.1
I0
sF0.033
F0.009900990099009901
sF0.036
I0
sF0.011
F0.039603960396039604
sF0.04
I0
sF0.045
I0
sF0.052
I0
sF0.020999999999999998
F0.06930693069306931
sF0.007
F0.009900990099009901
sF0.03
F0.009900990099009901
sF0.028
F0.0297029702970297
sF0.009999999999999998
F0.0594059405940594
sF0.051
I0
sF0.031
F0.009900990099009901
sF0.026
F0.04950495049504951
sF0.066
I0
sF0.003
F0.009900990099009901
sF0.065
I0
sF0.019
F0.07920792079207921
sF0.087
I0
sF0.049
I0
sF0.015
F0.04950495049504951
sF0.024
I0
sF0.022
F0.009900990099009901
sF0.005
F0.04950495049504951
sF0.166
I0
sF0.047
F0.019801980198019802
sF0.028999999999999998
F0.019801980198019802
sF0.009000000000000001
F0.0297029702970297
sF0.034
F0.019801980198019802
sF0.054
F0.009900990099009901
sF0.032
F0.009900990099009901
sF0.013999999999999999
F0.039603960396039604
sF0.016
F0.009900990099009901
sF0.064
F0.009900990099009901
sF0.043
I0
sF0.027
F0.009900990099009901
sF0.057999999999999996
I0
sF0.041
I0
sF0.013000000000000001
F0.039603960396039604
sF0.018
F0.009900990099009901
sF0.004
I0
sF0.02
F0.009900990099009901
sF0.039
I0
sF0.049999999999999996
I0
sF0.024999999999999998
F0.0297029702970297
sF0.023
F0.0594059405940594
sF0.333
I0
sF0.012
F0.039603960396039604
sF0.041999999999999996
F0.009900990099009901
sF0.133
I0
sF0.044
I0
sF0.038
F0.0297029702970297
sF0.034999999999999996
F0.0297029702970297
sF0.006
F0.019801980198019802
sF0.046
F0.009900990099009901
sF0.008
F0.009900990099009901
sF0.9999999999999999
I0
sa(dp714
F0.0
F1.0
sF0.034
I0
sF0.1
I0
sF0.066
I0
sF0.011
I0
sF0.333
I0
sF0.020999999999999998
I0
sF0.007
I0
sF0.03
I0
sF0.013999999999999999
I0
sF0.054
I0
sF0.04
I0
sF0.051
I0
sF0.031
I0
sF0.026
I0
sF0.033
I0
sF0.024
I0
sF0.065
I0
sF0.038
I0
sF0.003
I0
sF0.087
I0
sF0.049
I0
sF0.015
I0
sF0.022
I0
sF0.013000000000000001
I0
sF0.009999999999999998
I0
sF0.166
I0
sF0.047
I0
sF0.028999999999999998
I0
sF0.032
I0
sF0.018
I0
sF0.016999999999999998
I0
sF0.045
I0
sF0.008
I0
sF0.028
I0
sF0.016
I0
sF0.004
I0
sF0.043
I0
sF0.027
I0
sF0.057999999999999996
I0
sF0.041
I0
sF0.052
I0
sF0.036
I0
sF0.064
I0
sF0.005
I0
sF0.039
I0
sF0.049999999999999996
I0
sF0.024999999999999998
I0
sF0.02
I0
sF0.046
I0
sF0.009000000000000001
I0
sF0.012
I0
sF0.041999999999999996
I0
sF0.133
I0
sF0.044
I0
sF0.019
I0
sF0.034999999999999996
I0
sF0.006
I0
sF0.023
I0
sF0.9999999999999999
I0
sa(dp715
I0
I0
sI1
I0
sI2
I0
sI3
I0
sI4
I0
sI5
I0
sI6
I0
sI7
I0
sI8
I0
sI9
I0
sI10
I0
sI11
F0.019801980198019802
sI12
I0
sI13
F0.0297029702970297
sI14
F0.009900990099009901
sI15
F0.04950495049504951
sI16
F0.039603960396039604
sI17
F0.039603960396039604
sI18
F0.10891089108910891
sI19
F0.07920792079207921
sI20
F0.15841584158415842
sI21
F0.06930693069306931
sI22
F0.10891089108910891
sI23
F0.0594059405940594
sI24
F0.019801980198019802
sI25
F0.0594059405940594
sI26
F0.07920792079207921
sI27
F0.019801980198019802
sI28
F0.0297029702970297
sI29
F0.009900990099009901
sI30
I0
sI31
I0
sI32
I0
sI34
I0
sI35
F0.009900990099009901
sa(dp716
I0
I0
sI1
F0.3465346534653465
sI2
F0.5742574257425742
sI3
F0.0297029702970297
sI4
F0.04950495049504951
sI5
I0
sI6
I0
sI7
I0
sI8
I0
sI9
I0
sI10
I0
sI11
I0
sI12
I0
sI13
I0
sI14
I0
sI15
I0
sI16
I0
sI17
I0
sI18
I0
sI19
I0
sI20
I0
sI21
I0
sI22
I0
sI23
I0
sI24
I0
sI25
I0
sI26
I0
sI27
I0
sI28
I0
sI29
I0
sI30
I0
sI31
I0
sI32
I0
sI34
I0
sI35
I0
sa(dp717
I0
I0
sI1
F0.034851485148514855
sI2
F0.33782178217821784
sI3
F0.6253465346534653
sI4
F0.0019801980198019802
sI5
I0
sI6
I0
sI7
I0
sI8
I0
sI9
I0
sI10
I0
sI11
I0
sI12
I0
sI13
I0
sI14
I0
sI15
I0
sI16
I0
sI17
I0
sI18
I0
sI19
I0
sI20
I0
sI21
I0
sI22
I0
sI23
I0
sI24
I0
sI25
I0
sI26
I0
sI27
I0
sI28
I0
sI29
I0
sI30
I0
sI31
I0
sI32
I0
sI33
I0
sI34
I0
sI35
I0
sI36
I0
sI37
I0
sI38
I0
sI39
I0
sI40
I0
sI41
I0
sI42
I0
sI43
I0
sI44
I0
sI45
I0
sI46
I0
sI47
I0
sI48
I0
sI49
I0
sI50
I0
sI51
I0
sI52
I0
sI53
I0
sI54
I0
sI55
I0
sI56
I0
sI57
I0
sI58
I0
sI59
I0
sI60
I0
sI61
I0
sI62
I0
sI63
I0
sI64
I0
sI65
I0
sa(dp718
I0
I0
sI1
F0.07772020725388601
sI2
F0.08376511226252159
sI3
F0.08721934369602763
sI4
F0.0846286701208981
sI5
F0.07858376511226252
sI6
F0.06649395509499137
sI7
F0.05699481865284974
sI8
F0.05872193436960276
sI9
F0.05872193436960276
sI10
F0.05613126079447323
sI11
F0.05094991364421416
sI12
F0.046632124352331605
sI13
F0.037996545768566495
sI14
F0.03195164075993091
sI15
F0.02677029360967185
sI16
F0.02158894645941278
sI17
F0.018998272884283247
sI18
F0.017271157167530225
sI19
F0.01468048359240069
sI20
F0.011226252158894647
sI21
F0.007772020725388601
sI22
F0.004317789291882556
sI23
F0.0008635578583765112
sI24
I0
sI25
I0
sI26
I0
sI27
I0
sI28
I0
sI29
I0
sI30
I0
sI31
I0
sI32
I0
sI33
I0
sI34
I0
sI35
I0
sI36
I0
sI37
I0
sI38
I0
sI39
I0
sI40
I0
sI41
I0
sI42
I0
sI43
I0
sI44
I0
sI45
I0
sI46
I0
sI47
I0
sI48
I0
sI49
I0
sI50
I0
sI51
I0
sI52
I0
sI53
I0
sI54
I0
sI55
I0
sI56
I0
sI57
I0
sI58
I0
sI59
I0
sI60
I0
sI61
I0
sI62
I0
sI63
I0
sI64
I0
sI65
I0
satp719
ba(lp720
g12
(g13
(I0
tp721
g15
tp722
Rp723
((I1
(I3
tp724
g22
I00
(lp725
g26
ag27
ag28
atp726
(Ntp727
tp728
ba(dp729
g66
(dp730
g68
g690
sg69
(lp731
(dp732
g72
g73
(I0
I3
I1
tp733
Rp734
sg76
g710
sasstp735
bbsI2
g3
(g4
g5
Ntp736
Rp737
g3
(g8
g5
Ntp738
Rp739
((lp740
g12
(g13
(I0
tp741
g15
tp742
Rp743
((I1
(I3
tp744
g22
I00
(lp745
g26
ag27
ag28
atp746
(Ntp747
tp748
bag12
(g13
(I0
tp749
g15
tp750
Rp751
((I1
(I2
tp752
g22
I00
(lp753
g37
ag38
atp754
(Ntp755
tp756
ba(lp757
g12
(g43
(I0
tp758
g15
tp759
Rp760
(I1
(I3
I2
tp761
g22
I00
(lp762
(dp763
F0.0
F0.0392156862745098
sF0.016999999999999998
F0.00980392156862745
sF0.1
I0
sF0.013999999999999999
F0.029411764705882353
sF0.033
F0.0196078431372549
sF0.022
F0.0392156862745098
sF0.012
F0.0392156862745098
sF0.020999999999999998
F0.0784313725490196
sF0.03
F0.0392156862745098
sF0.007
F0.00980392156862745
sF0.054
I0
sF0.009999999999999998
F0.0196078431372549
sF0.051
I0
sF0.031
F0.00980392156862745
sF0.052
F0.00980392156862745
sF0.066
I0
sF0.003
F0.00980392156862745
sF0.065
I0
sF0.038
F0.0196078431372549
sF0.087
I0
sF0.049
I0
sF0.015
F0.0392156862745098
sF0.011
F0.029411764705882353
sF0.013000000000000001
I0
sF0.018
F0.0392156862745098
sF0.166
I0
sF0.047
I0
sF0.028999999999999998
F0.0392156862745098
sF0.036
F0.0196078431372549
sF0.034
F0.029411764705882353
sF0.045
I0
sF0.032
F0.0196078431372549
sF0.028
F0.0392156862745098
sF0.016
F0.0196078431372549
sF0.004
F0.00980392156862745
sF0.043
F0.00980392156862745
sF0.027
F0.0392156862745098
sF0.057999999999999996
I0
sF0.041
I0
sF0.026
F0.00980392156862745
sF0.333
I0
sF0.064
I0
sF0.04
F0.00980392156862745
sF0.039
F0.00980392156862745
sF0.049999999999999996
I0
sF0.024999999999999998
F0.0196078431372549
sF0.02
F0.00980392156862745
sF0.046
I0
sF0.009000000000000001
F0.029411764705882353
sF0.005
I0
sF0.024
F0.0196078431372549
sF0.041999999999999996
F0.00980392156862745
sF0.133
I0
sF0.044
I0
sF0.019
F0.0392156862745098
sF0.034999999999999996
F0.0196078431372549
sF0.006
F0.029411764705882353
sF0.023
F0.049019607843137254
sF0.008
F0.0392156862745098
sF0.9999999999999999
I0
sa(dp764
F0.0
F1.0
sF0.034
I0
sF0.1
I0
sF0.066
I0
sF0.011
I0
sF0.333
I0
sF0.020999999999999998
I0
sF0.007
I0
sF0.03
I0
sF0.013999999999999999
I0
sF0.054
I0
sF0.04
I0
sF0.051
I0
sF0.031
I0
sF0.026
I0
sF0.033
I0
sF0.024
I0
sF0.065
I0
sF0.038
I0
sF0.003
I0
sF0.087
I0
sF0.049
I0
sF0.015
I0
sF0.022
I0
sF0.013000000000000001
I0
sF0.009999999999999998
I0
sF0.166
I0
sF0.047
I0
sF0.028999999999999998
I0
sF0.032
I0
sF0.018
I0
sF0.016999999999999998
I0
sF0.045
I0
sF0.008
I0
sF0.028
I0
sF0.016
I0
sF0.004
I0
sF0.043
I0
sF0.027
I0
sF0.057999999999999996
I0
sF0.041
I0
sF0.052
I0
sF0.036
I0
sF0.064
I0
sF0.005
I0
sF0.039
I0
sF0.049999999999999996
I0
sF0.024999999999999998
I0
sF0.02
I0
sF0.046
I0
sF0.009000000000000001
I0
sF0.012
I0
sF0.041999999999999996
I0
sF0.133
I0
sF0.044
I0
sF0.019
I0
sF0.034999999999999996
I0
sF0.006
I0
sF0.023
I0
sF0.9999999999999999
I0
sa(dp765
I0
I0
sI1
I0
sI2
I0
sI3
I0
sI4
I0
sI5
I0
sI6
I0
sI7
I0
sI8
I0
sI9
F0.00980392156862745
sI10
F0.00980392156862745
sI11
F0.00980392156862745
sI12
F0.00980392156862745
sI13
F0.0392156862745098
sI14
F0.0196078431372549
sI15
F0.029411764705882353
sI16
F0.0392156862745098
sI17
F0.09803921568627451
sI18
F0.0784313725490196
sI19
F0.049019607843137254
sI20
F0.09803921568627451
sI21
F0.0392156862745098
sI22
F0.09803921568627451
sI23
F0.08823529411764706
sI24
F0.06862745098039216
sI25
F0.049019607843137254
sI26
F0.08823529411764706
sI27
F0.029411764705882353
sI28
F0.00980392156862745
sI29
I0
sI30
F0.0196078431372549
sI31
I0
sI32
F0.00980392156862745
sI34
F0.00980392156862745
sI35
I0
sa(dp766
I0
I0
sI1
F0.38235294117647056
sI2
F0.5294117647058824
sI3
F0.06862745098039216
sI4
F0.0196078431372549
sI5
I0
sI6
I0
sI7
I0
sI8
I0
sI9
I0
sI10
I0
sI11
I0
sI12
I0
sI13
I0
sI14
I0
sI15
I0
sI16
I0
sI17
I0
sI18
I0
sI19
I0
sI20
I0
sI21
I0
sI22
I0
sI23
I0
sI24
I0
sI25
I0
sI26
I0
sI27
I0
sI28
I0
sI29
I0
sI30
I0
sI31
I0
sI32
I0
sI34
I0
sI35
I0
sa(dp767
I0
I0
sI1
F0.036886041545331004
sI2
F0.36090079596194913
sI3
F0.6002717918850708
sI4
F0.0019413706076490001
sI5
I0
sI6
I0
sI7
I0
sI8
I0
sI9
I0
sI10
I0
sI11
I0
sI12
I0
sI13
I0
sI14
I0
sI15
I0
sI16
I0
sI17
I0
sI18
I0
sI19
I0
sI20
I0
sI21
I0
sI22
I0
sI23
I0
sI24
I0
sI25
I0
sI26
I0
sI27
I0
sI28
I0
sI29
I0
sI30
I0
sI31
I0
sI32
I0
sI33
I0
sI34
I0
sI35
I0
sI36
I0
sI37
I0
sI38
I0
sI39
I0
sI40
I0
sI41
I0
sI42
I0
sI43
I0
sI44
I0
sI45
I0
sI46
I0
sI47
I0
sI48
I0
sI49
I0
sI50
I0
sI51
I0
sI52
I0
sI53
I0
sI54
I0
sI55
I0
sI56
I0
sI57
I0
sI58
I0
sI59
I0
sI60
I0
sI61
I0
sI62
I0
sI63
I0
sI64
I0
sI65
I0
sa(dp768
I0
I0
sI1
F0.17054263565891473
sI2
F0.1686046511627907
sI3
F0.1511627906976744
sI4
F0.12015503875968993
sI5
F0.09689922480620156
sI6
F0.07364341085271318
sI7
F0.05232558139534884
sI8
F0.03682170542635659
sI9
F0.03488372093023256
sI10
F0.031007751937984496
sI11
F0.027131782945736434
sI12
F0.02131782945736434
sI13
F0.011627906976744186
sI14
F0.003875968992248062
sI15
I0
sI16
I0
sI17
I0
sI18
I0
sI19
I0
sI20
I0
sI21
I0
sI22
I0
sI23
I0
sI24
I0
sI25
I0
sI26
I0
sI27
I0
sI28
I0
sI29
I0
sI30
I0
sI31
I0
sI32
I0
sI33
I0
sI34
I0
sI35
I0
sI36
I0
sI37
I0
sI38
I0
sI39
I0
sI40
I0
sI41
I0
sI42
I0
sI43
I0
sI44
I0
sI45
I0
sI46
I0
sI47
I0
sI48
I0
sI49
I0
sI50
I0
sI51
I0
sI52
I0
sI53
I0
sI54
I0
sI55
I0
sI56
I0
sI57
I0
sI58
I0
sI59
I0
sI60
I0
sI61
I0
sI62
I0
sI63
I0
sI64
I0
sI65
I0
satp769
ba(lp770
g12
(g13
(I0
tp771
g15
tp772
Rp773
((I1
(I3
tp774
g22
I00
(lp775
g26
ag27
ag28
atp776
(Ntp777
tp778
ba(dp779
g66
(dp780
g68
g740
sg69
(lp781
(dp782
g72
g73
(I0
I3
I1
tp783
Rp784
sg76
g760
sasstp785
bbssS'Random Path Sampling'
p786
(dp787
I0
g3
(g4
g5
Ntp788
Rp789
g3
(g8
g5
Ntp790
Rp791
((lp792
g12
(g13
(I0
tp793
g15
tp794
Rp795
((I1
(I3
tp796
g22
I00
(lp797
g26
ag27
ag28
atp798
(Ntp799
tp800
bag12
(g13
(I0
tp801
g15
tp802
Rp803
((I1
(I2
tp804
g22
I00
(lp805
g37
ag38
atp806
(Ntp807
tp808
ba(lp809
g12
(g43
(I0
tp810
g15
tp811
Rp812
(I1
(I3
I2
tp813
g22
I00
(lp814
(dp815
F0.0
F0.019801980198019802
sF0.034
I0
sF0.1
I0
sF0.033
F0.009900990099009901
sF0.022
F0.0297029702970297
sF0.04
I0
sF0.052
I0
sF0.333
I0
sF0.020999999999999998
F0.09900990099009901
sF0.007
F0.039603960396039604
sF0.015
F0.0297029702970297
sF0.028
F0.0594059405940594
sF0.054
I0
sF0.005
F0.009900990099009901
sF0.051
I0
sF0.031
I0
sF0.026
F0.0297029702970297
sF0.066
I0
sF0.003
F0.009900990099009901
sF0.065
I0
sF0.019
F0.0891089108910891
sF0.087
I0
sF0.049
I0
sF0.03
F0.019801980198019802
sF0.024
I0
sF0.011
F0.039603960396039604
sF0.018
F0.019801980198019802
sF0.166
I0
sF0.047
I0
sF0.028999999999999998
F0.019801980198019802
sF0.032
I0
sF0.036
F0.009900990099009901
sF0.016999999999999998
F0.019801980198019802
sF0.045
I0
sF0.064
F0.009900990099009901
sF0.013999999999999999
F0.07920792079207921
sF0.008
F0.039603960396039604
sF0.016
F0.009900990099009901
sF0.043
I0
sF0.027
F0.009900990099009901
sF0.009999999999999998
F0.06930693069306931
sF0.057999999999999996
I0
sF0.041
F0.009900990099009901
sF0.013000000000000001
F0.019801980198019802
sF0.004
F0.009900990099009901
sF0.02
F0.009900990099009901
sF0.039
I0
sF0.049999999999999996
F0.009900990099009901
sF0.024999999999999998
F0.019801980198019802
sF0.046
I0
sF0.009000000000000001
F0.0297029702970297
sF0.006
F0.009900990099009901
sF0.041999999999999996
I0
sF0.133
I0
sF0.044
I0
sF0.038
F0.009900990099009901
sF0.034999999999999996
F0.019801980198019802
sF0.012
F0.019801980198019802
sF0.023
F0.0594059405940594
sF0.9999999999999999
I0
sa(dp816
F0.0
F1.0
sF0.034
I0
sF0.1
I0
sF0.066
I0
sF0.011
I0
sF0.333
I0
sF0.020999999999999998
I0
sF0.007
I0
sF0.03
I0
sF0.013999999999999999
I0
sF0.054
I0
sF0.04
I0
sF0.051
I0
sF0.031
I0
sF0.026
I0
sF0.033
I0
sF0.024
I0
sF0.065
I0
sF0.038
I0
sF0.003
I0
sF0.087
I0
sF0.049
I0
sF0.015
I0
sF0.022
I0
sF0.013000000000000001
I0
sF0.009999999999999998
I0
sF0.166
I0
sF0.047
I0
sF0.028999999999999998
I0
sF0.032
I0
sF0.018
I0
sF0.016999999999999998
I0
sF0.045
I0
sF0.008
I0
sF0.028
I0
sF0.016
I0
sF0.004
I0
sF0.043
I0
sF0.027
I0
sF0.057999999999999996
I0
sF0.041
I0
sF0.052
I0
sF0.036
I0
sF0.064
I0
sF0.005
I0
sF0.039
I0
sF0.049999999999999996
I0
sF0.024999999999999998
I0
sF0.02
I0
sF0.046
I0
sF0.009000000000000001
I0
sF0.012
I0
sF0.041999999999999996
I0
sF0.133
I0
sF0.044
I0
sF0.019
I0
sF0.034999999999999996
I0
sF0.006
I0
sF0.023
I0
sF0.9999999999999999
I0
sa(dp817
I0
I0
sI1
I0
sI2
I0
sI3
I0
sI4
I0
sI5
I0
sI6
I0
sI7
I0
sI8
I0
sI9
I0
sI10
F0.019801980198019802
sI11
I0
sI12
F0.009900990099009901
sI13
F0.0297029702970297
sI14
F0.019801980198019802
sI15
F0.06930693069306931
sI16
F0.04950495049504951
sI17
F0.07920792079207921
sI18
F0.0594059405940594
sI19
F0.07920792079207921
sI20
F0.09900990099009901
sI21
F0.06930693069306931
sI22
F0.0891089108910891
sI23
F0.07920792079207921
sI24
F0.09900990099009901
sI25
F0.039603960396039604
sI26
F0.019801980198019802
sI27
F0.0297029702970297
sI28
F0.039603960396039604
sI29
F0.009900990099009901
sI30
F0.009900990099009901
sI31
I0
sI32
I0
sI34
I0
sI35
I0
sa(dp818
I0
I0
sI1
F0.5247524752475248
sI2
F0.42574257425742573
sI3
F0.0297029702970297
sI4
F0.009900990099009901
sI5
I0
sI6
F0.009900990099009901
sI7
I0
sI8
I0
sI9
I0
sI10
I0
sI11
I0
sI12
I0
sI13
I0
sI14
I0
sI15
I0
sI16
I0
sI17
I0
sI18
I0
sI19
I0
sI20
I0
sI21
I0
sI22
I0
sI23
I0
sI24
I0
sI25
I0
sI26
I0
sI27
I0
sI28
I0
sI29
I0
sI30
I0
sI31
I0
sI32
I0
sI34
I0
sI35
I0
sa(dp819
I0
I0
sI1
F0.029504950495049503
sI2
F0.3211881188118812
sI3
F0.6483168316831683
sI4
F0.0009900990099009901
sI5
I0
sI6
I0
sI7
I0
sI8
I0
sI9
I0
sI10
I0
sI11
I0
sI12
I0
sI13
I0
sI14
I0
sI15
I0
sI16
I0
sI17
I0
sI18
I0
sI19
I0
sI20
I0
sI21
I0
sI22
I0
sI23
I0
sI24
I0
sI25
I0
sI26
I0
sI27
I0
sI28
I0
sI29
I0
sI30
I0
sI31
I0
sI32
I0
sI33
I0
sI34
I0
sI35
I0
sI36
I0
sI37
I0
sI38
I0
sI39
I0
sI40
I0
sI41
I0
sI42
I0
sI43
I0
sI44
I0
sI45
I0
sI46
I0
sI47
I0
sI48
I0
sI49
I0
sI50
I0
sI51
I0
sI52
I0
sI53
I0
sI54
I0
sI55
I0
sI56
I0
sI57
I0
sI58
I0
sI59
I0
sI60
I0
sI61
I0
sI62
I0
sI63
I0
sI64
I0
sI65
I0
sa(dp820
I0
I0
sI1
F0.206266318537859
sI2
F0.1906005221932115
sI3
F0.15926892950391644
sI4
F0.13577023498694518
sI5
F0.13315926892950392
sI6
F0.08877284595300261
sI7
F0.05483028720626632
sI8
F0.02610966057441253
sI9
F0.005221932114882507
sI10
I0
sI11
I0
sI12
I0
sI13
I0
sI14
I0
sI15
I0
sI16
I0
sI17
I0
sI18
I0
sI19
I0
sI20
I0
sI21
I0
sI22
I0
sI23
I0
sI24
I0
sI25
I0
sI26
I0
sI27
I0
sI28
I0
sI29
I0
sI30
I0
sI31
I0
sI32
I0
sI33
I0
sI34
I0
sI35
I0
sI36
I0
sI37
I0
sI38
I0
sI39
I0
sI40
I0
sI41
I0
sI42
I0
sI43
I0
sI44
I0
sI45
I0
sI46
I0
sI47
I0
sI48
I0
sI49
I0
sI50
I0
sI51
I0
sI52
I0
sI53
I0
sI54
I0
sI55
I0
sI56
I0
sI57
I0
sI58
I0
sI59
I0
sI60
I0
sI61
I0
sI62
I0
sI63
I0
sI64
I0
sI65
I0
satp821
ba(lp822
g12
(g13
(I0
tp823
g15
tp824
Rp825
((I1
(I3
tp826
g22
I00
(lp827
g26
ag27
ag28
atp828
(Ntp829
tp830
ba(dp831
g66
(dp832
g68
g792
sg69
(lp833
(dp834
g72
g73
(I0
I3
I1
tp835
Rp836
sg76
g812
sasstp837
bbsI1
g3
(g4
g5
Ntp838
Rp839
g3
(g8
g5
Ntp840
Rp841
((lp842
g12
(g13
(I0
tp843
g15
tp844
Rp845
((I1
(I3
tp846
g22
I00
(lp847
g26
ag27
ag28
atp848
(Ntp849
tp850
bag12
(g13
(I0
tp851
g15
tp852
Rp853
((I1
(I2
tp854
g22
I00
(lp855
g37
ag38
atp856
(Ntp857
tp858
ba(lp859
g12
(g43
(I0
tp860
g15
tp861
Rp862
(I1
(I3
I2
tp863
g22
I00
(lp864
(dp865
F0.0
F0.058823529411764705
sF0.034
F0.029411764705882353
sF0.1
I0
sF0.013999999999999999
I0
sF0.033
I0
sF0.011
F0.0392156862745098
sF0.052
I0
sF0.333
I0
sF0.020999999999999998
F0.09803921568627451
sF0.03
F0.029411764705882353
sF0.028
F0.0392156862745098
sF0.054
I0
sF0.009999999999999998
F0.0392156862745098
sF0.051
I0
sF0.031
F0.00980392156862745
sF0.026
F0.0196078431372549
sF0.066
I0
sF0.006
F0.00980392156862745
sF0.065
I0
sF0.019
F0.10784313725490197
sF0.003
I0
sF0.087
I0
sF0.049
I0
sF0.015
F0.049019607843137254
sF0.022
F0.058823529411764705
sF0.04
F0.00980392156862745
sF0.166
I0
sF0.047
F0.00980392156862745
sF0.028999999999999998
F0.00980392156862745
sF0.036
F0.00980392156862745
sF0.016999999999999998
F0.0196078431372549
sF0.045
I0
sF0.016
F0.0196078431372549
sF0.007
F0.0392156862745098
sF0.004
F0.0196078431372549
sF0.032
F0.029411764705882353
sF0.043
I0
sF0.027
I0
sF0.057999999999999996
I0
sF0.041
F0.00980392156862745
sF0.013000000000000001
F0.00980392156862745
sF0.018
F0.00980392156862745
sF0.064
I0
sF0.005
F0.0196078431372549
sF0.039
I0
sF0.049999999999999996
I0
sF0.024999999999999998
F0.0196078431372549
sF0.02
I0
sF0.046
I0
sF0.009000000000000001
F0.049019607843137254
sF0.012
F0.0392156862745098
sF0.041999999999999996
I0
sF0.133
I0
sF0.044
F0.0196078431372549
sF0.038
I0
sF0.034999999999999996
F0.00980392156862745
sF0.024
I0
sF0.023
F0.049019607843137254
sF0.008
F0.00980392156862745
sF0.9999999999999999
I0
sa(dp866
F0.0
F1.0
sF0.034
I0
sF0.1
I0
sF0.066
I0
sF0.011
I0
sF0.333
I0
sF0.020999999999999998
I0
sF0.007
I0
sF0.03
I0
sF0.013999999999999999
I0
sF0.054
I0
sF0.04
I0
sF0.051
I0
sF0.031
I0
sF0.026
I0
sF0.033
I0
sF0.024
I0
sF0.065
I0
sF0.038
I0
sF0.003
I0
sF0.087
I0
sF0.049
I0
sF0.015
I0
sF0.022
I0
sF0.013000000000000001
I0
sF0.009999999999999998
I0
sF0.166
I0
sF0.047
I0
sF0.028999999999999998
I0
sF0.032
I0
sF0.018
I0
sF0.016999999999999998
I0
sF0.045
I0
sF0.008
I0
sF0.028
I0
sF0.016
I0
sF0.004
I0
sF0.043
I0
sF0.027
I0
sF0.057999999999999996
I0
sF0.041
I0
sF0.052
I0
sF0.036
I0
sF0.064
I0
sF0.005
I0
sF0.039
I0
sF0.049999999999999996
I0
sF0.024999999999999998
I0
sF0.02
I0
sF0.046
I0
sF0.009000000000000001
I0
sF0.012
I0
sF0.041999999999999996
I0
sF0.133
I0
sF0.044
I0
sF0.019
I0
sF0.034999999999999996
I0
sF0.006
I0
sF0.023
I0
sF0.9999999999999999
I0
sa(dp867
I0
I0
sI1
I0
sI2
I0
sI3
I0
sI4
I0
sI5
I0
sI6
I0
sI7
I0
sI8
I0
sI9
I0
sI10
F0.00980392156862745
sI11
I0
sI12
F0.029411764705882353
sI13
F0.029411764705882353
sI14
F0.0392156862745098
sI15
F0.049019607843137254
sI16
F0.0392156862745098
sI17
F0.0784313725490196
sI18
F0.058823529411764705
sI19
F0.09803921568627451
sI20
F0.09803921568627451
sI21
F0.09803921568627451
sI22
F0.08823529411764706
sI23
F0.0784313725490196
sI24
F0.0196078431372549
sI25
F0.0392156862745098
sI26
F0.049019607843137254
sI27
F0.0196078431372549
sI28
F0.0196078431372549
sI29
F0.049019607843137254
sI30
F0.00980392156862745
sI31
I0
sI32
I0
sI34
I0
sI35
I0
sa(dp868
I0
I0
sI1
F0.5196078431372549
sI2
F0.4215686274509804
sI3
F0.049019607843137254
sI4
F0.00980392156862745
sI5
I0
sI6
I0
sI7
I0
sI8
I0
sI9
I0
sI10
I0
sI11
I0
sI12
I0
sI13
I0
sI14
I0
sI15
I0
sI16
I0
sI17
I0
sI18
I0
sI19
I0
sI20
I0
sI21
I0
sI22
I0
sI23
I0
sI24
I0
sI25
I0
sI26
I0
sI27
I0
sI28
I0
sI29
I0
sI30
I0
sI31
I0
sI32
I0
sI34
I0
sI35
I0
sa(dp869
I0
I0
sI1
F0.0328091632692681
sI2
F0.32906231799650554
sI3
F0.6359930110658125
sI4
F0.0021355076684139
sI5
I0
sI6
I0
sI7
I0
sI8
I0
sI9
I0
sI10
I0
sI11
I0
sI12
I0
sI13
I0
sI14
I0
sI15
I0
sI16
I0
sI17
I0
sI18
I0
sI19
I0
sI20
I0
sI21
I0
sI22
I0
sI23
I0
sI24
I0
sI25
I0
sI26
I0
sI27
I0
sI28
I0
sI29
I0
sI30
I0
sI31
I0
sI32
I0
sI33
I0
sI34
I0
sI35
I0
sI36
I0
sI37
I0
sI38
I0
sI39
I0
sI40
I0
sI41
I0
sI42
I0
sI43
I0
sI44
I0
sI45
I0
sI46
I0
sI47
I0
sI48
I0
sI49
I0
sI50
I0
sI51
I0
sI52
I0
sI53
I0
sI54
I0
sI55
I0
sI56
I0
sI57
I0
sI58
I0
sI59
I0
sI60
I0
sI61
I0
sI62
I0
sI63
I0
sI64
I0
sI65
I0
sa(dp870
I0
I0
sI1
F0.25483870967741934
sI2
F0.2064516129032258
sI3
F0.13870967741935483
sI4
F0.07419354838709677
sI5
F0.06451612903225806
sI6
F0.06129032258064516
sI7
F0.04838709677419355
sI8
F0.03870967741935484
sI9
F0.035483870967741936
sI10
F0.035483870967741936
sI11
F0.025806451612903226
sI12
F0.012903225806451613
sI13
F0.0032258064516129032
sI14
I0
sI15
I0
sI16
I0
sI17
I0
sI18
I0
sI19
I0
sI20
I0
sI21
I0
sI22
I0
sI23
I0
sI24
I0
sI25
I0
sI26
I0
sI27
I0
sI28
I0
sI29
I0
sI30
I0
sI31
I0
sI32
I0
sI33
I0
sI34
I0
sI35
I0
sI36
I0
sI37
I0
sI38
I0
sI39
I0
sI40
I0
sI41
I0
sI42
I0
sI43
I0
sI44
I0
sI45
I0
sI46
I0
sI47
I0
sI48
I0
sI49
I0
sI50
I0
sI51
I0
sI52
I0
sI53
I0
sI54
I0
sI55
I0
sI56
I0
sI57
I0
sI58
I0
sI59
I0
sI60
I0
sI61
I0
sI62
I0
sI63
I0
sI64
I0
sI65
I0
satp871
ba(lp872
g12
(g13
(I0
tp873
g15
tp874
Rp875
((I1
(I3
tp876
g22
I00
(lp877
g26
ag27
ag28
atp878
(Ntp879
tp880
ba(dp881
g66
(dp882
g68
g842
sg69
(lp883
(dp884
g72
g73
(I0
I3
I1
tp885
Rp886
sg76
g862
sasstp887
bbsI2
g3
(g4
g5
Ntp888
Rp889
g3
(g8
g5
Ntp890
Rp891
((lp892
g12
(g13
(I0
tp893
g15
tp894
Rp895
((I1
(I3
tp896
g22
I00
(lp897
g26
ag27
ag28
atp898
(Ntp899
tp900
bag12
(g13
(I0
tp901
g15
tp902
Rp903
((I1
(I2
tp904
g22
I00
(lp905
g37
ag38
atp906
(Ntp907
tp908
ba(lp909
g12
(g43
(I0
tp910
g15
tp911
Rp912
(I1
(I3
I2
tp913
g22
I00
(lp914
(dp915
F0.0
F0.02
sF0.034
F0.02
sF0.1
I0
sF0.033
F0.03
sF0.011
F0.04
sF0.052
I0
sF0.020999999999999998
F0.05
sF0.028
F0.01
sF0.03
F0.01
sF0.064
I0
sF0.007
F0.02
sF0.054
I0
sF0.04
F0.02
sF0.051
I0
sF0.031
I0
sF0.013000000000000001
F0.02
sF0.066
I0
sF0.012
F0.05
sF0.065
I0
sF0.019
F0.08
sF0.003
I0
sF0.087
I0
sF0.049
I0
sF0.015
F0.06
sF0.022
F0.04
sF0.009000000000000001
F0.03
sF0.166
I0
sF0.047
F0.02
sF0.028999999999999998
F0.02
sF0.036
F0.01
sF0.016999999999999998
F0.07
sF0.045
I0
sF0.008
F0.01
sF0.013999999999999999
F0.04
sF0.016
F0.05
sF0.032
F0.03
sF0.043
F0.01
sF0.027
F0.01
sF0.009999999999999998
F0.06
sF0.057999999999999996
I0
sF0.041
I0
sF0.026
F0.02
sF0.018
F0.01
sF0.004
F0.01
sF0.02
F0.01
sF0.039
F0.01
sF0.049999999999999996
F0.01
sF0.024999999999999998
F0.02
sF0.046
I0
sF0.333
I0
sF0.005
F0.01
sF0.024
F0.03
sF0.041999999999999996
F0.01
sF0.133
I0
sF0.044
I0
sF0.038
I0
sF0.034999999999999996
I0
sF0.006
F0.01
sF0.023
F0.02
sF0.9999999999999999
I0
sa(dp916
F0.0
F1.0
sF0.034
I0
sF0.1
I0
sF0.066
I0
sF0.011
I0
sF0.333
I0
sF0.020999999999999998
I0
sF0.007
I0
sF0.03
I0
sF0.013999999999999999
I0
sF0.054
I0
sF0.04
I0
sF0.051
I0
sF0.031
I0
sF0.026
I0
sF0.033
I0
sF0.024
I0
sF0.065
I0
sF0.038
I0
sF0.003
I0
sF0.087
I0
sF0.049
I0
sF0.015
I0
sF0.022
I0
sF0.013000000000000001
I0
sF0.009999999999999998
I0
sF0.166
I0
sF0.047
I0
sF0.028999999999999998
I0
sF0.032
I0
sF0.018
I0
sF0.016999999999999998
I0
sF0.045
I0
sF0.008
I0
sF0.028
I0
sF0.016
I0
sF0.004
I0
sF0.043
I0
sF0.027
I0
sF0.057999999999999996
I0
sF0.041
I0
sF0.052
I0
sF0.036
I0
sF0.064
I0
sF0.005
I0
sF0.039
I0
sF0.049999999999999996
I0
sF0.024999999999999998
I0
sF0.02
I0
sF0.046
I0
sF0.009000000000000001
I0
sF0.012
I0
sF0.041999999999999996
I0
sF0.133
I0
sF0.044
I0
sF0.019
I0
sF0.034999999999999996
I0
sF0.006
I0
sF0.023
I0
sF0.9999999999999999
I0
sa(dp917
I0
I0
sI1
I0
sI2
I0
sI3
I0
sI4
I0
sI5
I0
sI6
I0
sI7
I0
sI8
F0.01
sI9
I0
sI10
I0
sI11
I0
sI12
F0.01
sI13
F0.01
sI14
F0.02
sI15
F0.03
sI16
F0.07
sI17
F0.07
sI18
F0.08
sI19
F0.12
sI20
F0.11
sI21
F0.05
sI22
F0.05
sI23
F0.04
sI24
F0.11
sI25
F0.06
sI26
F0.05
sI27
F0.02
sI28
F0.03
sI29
F0.02
sI30
F0.03
sI31
I0
sI32
I0
sI34
I0
sI35
F0.01
sa(dp918
I0
I0
sI1
F0.54
sI2
F0.44
sI3
F0.02
sI4
I0
sI5
I0
sI6
I0
sI7
I0
sI8
I0
sI9
I0
sI10
I0
sI11
I0
sI12
I0
sI13
I0
sI14
I0
sI15
I0
sI16
I0
sI17
I0
sI18
I0
sI19
I0
sI20
I0
sI21
I0
sI22
I0
sI23
I0
sI24
I0
sI25
I0
sI26
I0
sI27
I0
sI28
I0
sI29
I0
sI30
I0
sI31
I0
sI32
I0
sI34
I0
sI35
I0
sa(dp919
I0
I0
sI1
F0.03393939393939394
sI2
F0.34363636363636363
sI3
F0.621010101010101
sI4
F0.0014141414141414141
sI5
I0
sI6
I0
sI7
I0
sI8
I0
sI9
I0
sI10
I0
sI11
I0
sI12
I0
sI13
I0
sI14
I0
sI15
I0
sI16
I0
sI17
I0
sI18
I0
sI19
I0
sI20
I0
sI21
I0
sI22
I0
sI23
I0
sI24
I0
sI25
I0
sI26
I0
sI27
I0
sI28
I0
sI29
I0
sI30
I0
sI31
I0
sI32
I0
sI33
I0
sI34
I0
sI35
I0
sI36
I0
sI37
I0
sI38
I0
sI39
I0
sI40
I0
sI41
I0
sI42
I0
sI43
I0
sI44
I0
sI45
I0
sI46
I0
sI47
I0
sI48
I0
sI49
I0
sI50
I0
sI51
I0
sI52
I0
sI53
I0
sI54
I0
sI55
I0
sI56
I0
sI57
I0
sI58
I0
sI59
I0
sI60
I0
sI61
I0
sI62
I0
sI63
I0
sI64
I0
sI65
I0
sa(dp920
I0
I0
sI1
F0.4805194805194805
sI2
F0.3246753246753247
sI3
F0.15584415584415584
sI4
F0.032467532467532464
sI5
F0.006493506493506494
sI6
I0
sI7
I0
sI8
I0
sI9
I0
sI10
I0
sI11
I0
sI12
I0
sI13
I0
sI14
I0
sI15
I0
sI16
I0
sI17
I0
sI18
I0
sI19
I0
sI20
I0
sI21
I0
sI22
I0
sI23
I0
sI24
I0
sI25
I0
sI26
I0
sI27
I0
sI28
I0
sI29
I0
sI30
I0
sI31
I0
sI32
I0
sI33
I0
sI34
I0
sI35
I0
sI36
I0
sI37
I0
sI38
I0
sI39
I0
sI40
I0
sI41
I0
sI42
I0
sI43
I0
sI44
I0
sI45
I0
sI46
I0
sI47
I0
sI48
I0
sI49
I0
sI50
I0
sI51
I0
sI52
I0
sI53
I0
sI54
I0
sI55
I0
sI56
I0
sI57
I0
sI58
I0
sI59
I0
sI60
I0
sI61
I0
sI62
I0
sI63
I0
sI64
I0
sI65
I0
satp921
ba(lp922
g12
(g13
(I0
tp923
g15
tp924
Rp925
((I1
(I3
tp926
g22
I00
(lp927
g26
ag27
ag28
atp928
(Ntp929
tp930
ba(dp931
g66
(dp932
g68
g892
sg69
(lp933
(dp934
g72
g73
(I0
I3
I1
tp935
Rp936
sg76
g912
sasstp937
bbssS'Metropolized Random Walk Sampling'
p938
(dp939
I0
g3
(g4
g5
Ntp940
Rp941
g3
(g8
g5
Ntp942
Rp943
((lp944
g12
(g13
(I0
tp945
g15
tp946
Rp947
((I1
(I3
tp948
g22
I00
(lp949
g26
ag27
ag28
atp950
(Ntp951
tp952
bag12
(g13
(I0
tp953
g15
tp954
Rp955
((I1
(I2
tp956
g22
I00
(lp957
g37
ag38
atp958
(Ntp959
tp960
ba(lp961
g12
(g43
(I0
tp962
g15
tp963
Rp964
(I1
(I3
I2
tp965
g22
I00
(lp966
(dp967
F0.0
F0.03
sF0.016999999999999998
F0.01
sF0.1
I0
sF0.033
F0.01
sF0.011
F0.08
sF0.04
I0
sF0.052
I0
sF0.020999999999999998
F0.07
sF0.028
F0.02
sF0.03
F0.01
sF0.064
I0
sF0.013999999999999999
F0.06
sF0.054
I0
sF0.009999999999999998
F0.02
sF0.051
I0
sF0.031
F0.01
sF0.026
F0.01
sF0.066
I0
sF0.003
F0.01
sF0.065
I0
sF0.038
F0.02
sF0.087
I0
sF0.049
F0.01
sF0.015
F0.03
sF0.024
F0.01
sF0.044
F0.01
sF0.009000000000000001
F0.04
sF0.166
I0
sF0.047
I0
sF0.028999999999999998
F0.01
sF0.036
F0.02
sF0.034
F0.01
sF0.045
F0.01
sF0.008
F0.01
sF0.007
F0.02
sF0.032
F0.04
sF0.016
F0.02
sF0.043
I0
sF0.027
F0.01
sF0.057999999999999996
I0
sF0.041
I0
sF0.013000000000000001
F0.04
sF0.018
F0.02
sF0.004
F0.01
sF0.02
F0.01
sF0.039
F0.01
sF0.049999999999999996
I0
sF0.024999999999999998
F0.08
sF0.046
I0
sF0.333
I0
sF0.005
F0.01
sF0.006
F0.01
sF0.041999999999999996
F0.01
sF0.133
I0
sF0.022
F0.01
sF0.019
F0.09
sF0.034999999999999996
F0.02
sF0.012
F0.04
sF0.023
F0.03
sF0.9999999999999999
I0
sa(dp968
F0.0
F1.0
sF0.034
I0
sF0.1
I0
sF0.066
I0
sF0.011
I0
sF0.333
I0
sF0.020999999999999998
I0
sF0.007
I0
sF0.03
I0
sF0.013999999999999999
I0
sF0.054
I0
sF0.04
I0
sF0.051
I0
sF0.031
I0
sF0.026
I0
sF0.033
I0
sF0.024
I0
sF0.065
I0
sF0.038
I0
sF0.003
I0
sF0.087
I0
sF0.049
I0
sF0.015
I0
sF0.022
I0
sF0.013000000000000001
I0
sF0.009999999999999998
I0
sF0.166
I0
sF0.047
I0
sF0.028999999999999998
I0
sF0.032
I0
sF0.018
I0
sF0.016999999999999998
I0
sF0.045
I0
sF0.008
I0
sF0.028
I0
sF0.016
I0
sF0.004
I0
sF0.043
I0
sF0.027
I0
sF0.057999999999999996
I0
sF0.041
I0
sF0.052
I0
sF0.036
I0
sF0.064
I0
sF0.005
I0
sF0.039
I0
sF0.049999999999999996
I0
sF0.024999999999999998
I0
sF0.02
I0
sF0.046
I0
sF0.009000000000000001
I0
sF0.012
I0
sF0.041999999999999996
I0
sF0.133
I0
sF0.044
I0
sF0.019
I0
sF0.034999999999999996
I0
sF0.006
I0
sF0.023
I0
sF0.9999999999999999
I0
sa(dp969
I0
I0
sI1
I0
sI2
I0
sI3
I0
sI4
I0
sI5
I0
sI6
I0
sI7
I0
sI8
I0
sI9
I0
sI10
I0
sI11
F0.01
sI12
F0.01
sI13
F0.02
sI14
F0.02
sI15
F0.06
sI16
F0.06
sI17
F0.05
sI18
F0.11
sI19
F0.08
sI20
F0.1
sI21
F0.11
sI22
F0.07
sI23
F0.08
sI24
F0.1
sI25
F0.03
sI26
F0.03
sI27
F0.02
sI28
F0.01
sI29
F0.01
sI30
F0.02
sI31
I0
sI32
I0
sI34
I0
sI35
I0
sa(dp970
I0
I0
sI1
F0.05
sI2
F0.88
sI3
F0.03
sI4
F0.04
sI5
I0
sI6
I0
sI7
I0
sI8
I0
sI9
I0
sI10
I0
sI11
I0
sI12
I0
sI13
I0
sI14
I0
sI15
I0
sI16
I0
sI17
I0
sI18
I0
sI19
I0
sI20
I0
sI21
I0
sI22
I0
sI23
I0
sI24
I0
sI25
I0
sI26
I0
sI27
I0
sI28
I0
sI29
I0
sI30
I0
sI31
I0
sI32
I0
sI34
I0
sI35
I0
sa(dp971
I0
I0
sI1
F0.035555555555555556
sI2
F0.3335353535353535
sI3
F0.6296969696969696
sI4
F0.0012121212121212121
sI5
I0
sI6
I0
sI7
I0
sI8
I0
sI9
I0
sI10
I0
sI11
I0
sI12
I0
sI13
I0
sI14
I0
sI15
I0
sI16
I0
sI17
I0
sI18
I0
sI19
I0
sI20
I0
sI21
I0
sI22
I0
sI23
I0
sI24
I0
sI25
I0
sI26
I0
sI27
I0
sI28
I0
sI29
I0
sI30
I0
sI31
I0
sI32
I0
sI33
I0
sI34
I0
sI35
I0
sI36
I0
sI37
I0
sI38
I0
sI39
I0
sI40
I0
sI41
I0
sI42
I0
sI43
I0
sI44
I0
sI45
I0
sI46
I0
sI47
I0
sI48
I0
sI49
I0
sI50
I0
sI51
I0
sI52
I0
sI53
I0
sI54
I0
sI55
I0
sI56
I0
sI57
I0
sI58
I0
sI59
I0
sI60
I0
sI61
I0
sI62
I0
sI63
I0
sI64
I0
sI65
I0
sa(dp972
I0
I0
sI1
F0.020808080808080807
sI2
F0.024444444444444446
sI3
F0.028282828282828285
sI4
F0.031313131313131314
sI5
F0.032929292929292926
sI6
F0.03535353535353535
sI7
F0.039191919191919194
sI8
F0.043434343434343436
sI9
F0.046464646464646465
sI10
F0.048484848484848485
sI11
F0.04707070707070707
sI12
F0.0498989898989899
sI13
F0.04666666666666667
sI14
F0.047474747474747475
sI15
F0.04828282828282828
sI16
F0.04787878787878788
sI17
F0.04727272727272727
sI18
F0.0397979797979798
sI19
F0.03696969696969697
sI20
F0.03373737373737374
sI21
F0.0301010101010101
sI22
F0.027474747474747475
sI23
F0.02484848484848485
sI24
F0.022424242424242423
sI25
F0.019595959595959597
sI26
F0.01696969696969697
sI27
F0.014141414141414142
sI28
F0.012121212121212121
sI29
F0.010303030303030303
sI30
F0.00808080808080808
sI31
F0.006464646464646465
sI32
F0.0048484848484848485
sI33
F0.0032323232323232323
sI34
F0.00202020202020202
sI35
F0.0012121212121212121
sI36
F0.00040404040404040404
sI37
I0
sI38
I0
sI39
I0
sI40
I0
sI41
I0
sI42
I0
sI43
I0
sI44
I0
sI45
I0
sI46
I0
sI47
I0
sI48
I0
sI49
I0
sI50
I0
sI51
I0
sI52
I0
sI53
I0
sI54
I0
sI55
I0
sI56
I0
sI57
I0
sI58
I0
sI59
I0
sI60
I0
sI61
I0
sI62
I0
sI63
I0
sI64
I0
sI65
I0
satp973
ba(lp974
g12
(g13
(I0
tp975
g15
tp976
Rp977
((I1
(I3
tp978
g22
I00
(lp979
g26
ag27
ag28
atp980
(Ntp981
tp982
ba(dp983
g66
(dp984
g68
g944
sg69
(lp985
(dp986
g72
g73
(I0
I3
I1
tp987
Rp988
sg76
g964
sasstp989
bbsI1
g3
(g4
g5
Ntp990
Rp991
g3
(g8
g5
Ntp992
Rp993
((lp994
g12
(g13
(I0
tp995
g15
tp996
Rp997
((I1
(I3
tp998
g22
I00
(lp999
g26
ag27
ag28
atp1000
(Ntp1001
tp1002
bag12
(g13
(I0
tp1003
g15
tp1004
Rp1005
((I1
(I2
tp1006
g22
I00
(lp1007
g37
ag38
atp1008
(Ntp1009
tp1010
ba(lp1011
g12
(g43
(I0
tp1012
g15
tp1013
Rp1014
(I1
(I3
I2
tp1015
g22
I00
(lp1016
(dp1017
F0.0
F0.04
sF0.016999999999999998
F0.03
sF0.1
I0
sF0.033
F0.01
sF0.036
I0
sF0.022
F0.03
sF0.02
I0
sF0.052
I0
sF0.020999999999999998
F0.1
sF0.028
F0.02
sF0.03
F0.01
sF0.064
I0
sF0.013999999999999999
F0.03
sF0.054
I0
sF0.04
F0.02
sF0.051
I0
sF0.031
F0.01
sF0.026
F0.01
sF0.066
I0
sF0.012
F0.03
sF0.065
I0
sF0.019
F0.04
sF0.087
I0
sF0.049
I0
sF0.015
F0.06
sF0.024
I0
sF0.011
F0.02
sF0.009999999999999998
F0.03
sF0.166
I0
sF0.047
F0.01
sF0.028999999999999998
F0.02
sF0.009000000000000001
F0.03
sF0.034
F0.02
sF0.045
F0.01
sF0.016
F0.04
sF0.007
F0.04
sF0.032
F0.01
sF0.008
F0.05
sF0.043
F0.01
sF0.027
F0.02
sF0.057999999999999996
I0
sF0.041
F0.01
sF0.013000000000000001
F0.01
sF0.018
F0.01
sF0.004
F0.03
sF0.005
F0.01
sF0.039
I0
sF0.049999999999999996
I0
sF0.024999999999999998
F0.02
sF0.023
F0.05
sF0.333
I0
sF0.003
F0.03
sF0.041999999999999996
F0.01
sF0.133
I0
sF0.044
I0
sF0.038
I0
sF0.034999999999999996
F0.02
sF0.006
F0.04
sF0.046
F0.01
sF0.9999999999999999
I0
sa(dp1018
F0.0
F1.0
sF0.034
I0
sF0.1
I0
sF0.066
I0
sF0.011
I0
sF0.333
I0
sF0.020999999999999998
I0
sF0.007
I0
sF0.03
I0
sF0.013999999999999999
I0
sF0.054
I0
sF0.04
I0
sF0.051
I0
sF0.031
I0
sF0.026
I0
sF0.033
I0
sF0.024
I0
sF0.065
I0
sF0.038
I0
sF0.003
I0
sF0.087
I0
sF0.049
I0
sF0.015
I0
sF0.022
I0
sF0.013000000000000001
I0
sF0.009999999999999998
I0
sF0.166
I0
sF0.047
I0
sF0.028999999999999998
I0
sF0.032
I0
sF0.018
I0
sF0.016999999999999998
I0
sF0.045
I0
sF0.008
I0
sF0.028
I0
sF0.016
I0
sF0.004
I0
sF0.043
I0
sF0.027
I0
sF0.057999999999999996
I0
sF0.041
I0
sF0.052
I0
sF0.036
I0
sF0.064
I0
sF0.005
I0
sF0.039
I0
sF0.049999999999999996
I0
sF0.024999999999999998
I0
sF0.02
I0
sF0.046
I0
sF0.009000000000000001
I0
sF0.012
I0
sF0.041999999999999996
I0
sF0.133
I0
sF0.044
I0
sF0.019
I0
sF0.034999999999999996
I0
sF0.006
I0
sF0.023
I0
sF0.9999999999999999
I0
sa(dp1019
I0
I0
sI1
I0
sI2
I0
sI3
I0
sI4
I0
sI5
I0
sI6
I0
sI7
I0
sI8
I0
sI9
I0
sI10
F0.01
sI11
I0
sI12
F0.03
sI13
F0.03
sI14
F0.04
sI15
F0.06
sI16
F0.08
sI17
F0.04
sI18
F0.07
sI19
F0.11
sI20
F0.06
sI21
F0.07
sI22
F0.09
sI23
F0.1
sI24
F0.05
sI25
F0.01
sI26
F0.03
sI27
F0.05
sI28
F0.01
sI29
F0.03
sI30
F0.02
sI31
F0.01
sI32
I0
sI34
I0
sI35
I0
sa(dp1020
I0
I0
sI1
F0.1
sI2
F0.77
sI3
F0.1
sI4
F0.03
sI5
I0
sI6
I0
sI7
I0
sI8
I0
sI9
I0
sI10
I0
sI11
I0
sI12
I0
sI13
I0
sI14
I0
sI15
I0
sI16
I0
sI17
I0
sI18
I0
sI19
I0
sI20
I0
sI21
I0
sI22
I0
sI23
I0
sI24
I0
sI25
I0
sI26
I0
sI27
I0
sI28
I0
sI29
I0
sI30
I0
sI31
I0
sI32
I0
sI34
I0
sI35
I0
sa(dp1021
I0
I0
sI1
F0.040202020202020204
sI2
F0.3416161616161616
sI3
F0.616969696969697
sI4
F0.0012121212121212121
sI5
I0
sI6
I0
sI7
I0
sI8
I0
sI9
I0
sI10
I0
sI11
I0
sI12
I0
sI13
I0
sI14
I0
sI15
I0
sI16
I0
sI17
I0
sI18
I0
sI19
I0
sI20
I0
sI21
I0
sI22
I0
sI23
I0
sI24
I0
sI25
I0
sI26
I0
sI27
I0
sI28
I0
sI29
I0
sI30
I0
sI31
I0
sI32
I0
sI33
I0
sI34
I0
sI35
I0
sI36
I0
sI37
I0
sI38
I0
sI39
I0
sI40
I0
sI41
I0
sI42
I0
sI43
I0
sI44
I0
sI45
I0
sI46
I0
sI47
I0
sI48
I0
sI49
I0
sI50
I0
sI51
I0
sI52
I0
sI53
I0
sI54
I0
sI55
I0
sI56
I0
sI57
I0
sI58
I0
sI59
I0
sI60
I0
sI61
I0
sI62
I0
sI63
I0
sI64
I0
sI65
I0
sa(dp1022
I0
I0
sI1
F0.020808080808080807
sI2
F0.025252525252525252
sI3
F0.028888888888888888
sI4
F0.032525252525252527
sI5
F0.03595959595959596
sI6
F0.03878787878787879
sI7
F0.041212121212121214
sI8
F0.040606060606060604
sI9
F0.04262626262626262
sI10
F0.04707070707070707
sI11
F0.05171717171717172
sI12
F0.05454545454545454
sI13
F0.05757575757575758
sI14
F0.05898989898989899
sI15
F0.05818181818181818
sI16
F0.05797979797979798
sI17
F0.05656565656565657
sI18
F0.04787878787878788
sI19
F0.04101010101010101
sI20
F0.03595959595959596
sI21
F0.027474747474747475
sI22
F0.022424242424242423
sI23
F0.018383838383838384
sI24
F0.015151515151515152
sI25
F0.012525252525252526
sI26
F0.010101010101010102
sI27
F0.007474747474747475
sI28
F0.005454545454545455
sI29
F0.0034343434343434343
sI30
F0.00202020202020202
sI31
F0.00101010101010101
sI32
F0.00040404040404040404
sI33
I0
sI34
I0
sI35
I0
sI36
I0
sI37
I0
sI38
I0
sI39
I0
sI40
I0
sI41
I0
sI42
I0
sI43
I0
sI44
I0
sI45
I0
sI46
I0
sI47
I0
sI48
I0
sI49
I0
sI50
I0
sI51
I0
sI52
I0
sI53
I0
sI54
I0
sI55
I0
sI56
I0
sI57
I0
sI58
I0
sI59
I0
sI60
I0
sI61
I0
sI62
I0
sI63
I0
sI64
I0
sI65
I0
satp1023
ba(lp1024
g12
(g13
(I0
tp1025
g15
tp1026
Rp1027
((I1
(I3
tp1028
g22
I00
(lp1029
g26
ag27
ag28
atp1030
(Ntp1031
tp1032
ba(dp1033
g66
(dp1034
g68
g994
sg69
(lp1035
(dp1036
g72
g73
(I0
I3
I1
tp1037
Rp1038
sg76
g1014
sasstp1039
bbsI2
g3
(g4
g5
Ntp1040
Rp1041
g3
(g8
g5
Ntp1042
Rp1043
((lp1044
g12
(g13
(I0
tp1045
g15
tp1046
Rp1047
((I1
(I3
tp1048
g22
I00
(lp1049
g26
ag27
ag28
atp1050
(Ntp1051
tp1052
bag12
(g13
(I0
tp1053
g15
tp1054
Rp1055
((I1
(I2
tp1056
g22
I00
(lp1057
g37
ag38
atp1058
(Ntp1059
tp1060
ba(lp1061
g12
(g43
(I0
tp1062
g15
tp1063
Rp1064
(I1
(I3
I2
tp1065
g22
I00
(lp1066
(dp1067
F0.0
F0.03
sF0.034
F0.01
sF0.1
I0
sF0.033
I0
sF0.011
F0.03
sF0.04
I0
sF0.052
I0
sF0.333
I0
sF0.020999999999999998
F0.07
sF0.007
F0.02
sF0.015
I0
sF0.013999999999999999
F0.05
sF0.054
I0
sF0.009999999999999998
F0.02
sF0.051
I0
sF0.031
F0.01
sF0.013000000000000001
F0.01
sF0.066
I0
sF0.012
F0.02
sF0.065
I0
sF0.019
F0.09
sF0.087
I0
sF0.049
I0
sF0.03
F0.01
sF0.024
F0.03
sF0.044
F0.02
sF0.036
F0.02
sF0.166
I0
sF0.047
F0.02
sF0.028999999999999998
F0.05
sF0.018
F0.03
sF0.016999999999999998
F0.06
sF0.045
I0
sF0.004
F0.01
sF0.028
F0.04
sF0.032
F0.01
sF0.008
F0.01
sF0.016
F0.02
sF0.043
I0
sF0.027
F0.05
sF0.057999999999999996
I0
sF0.041
I0
sF0.026
F0.02
sF0.064
F0.01
sF0.005
F0.01
sF0.039
I0
sF0.049999999999999996
I0
sF0.024999999999999998
F0.07
sF0.02
I0
sF0.046
I0
sF0.009000000000000001
I0
sF0.003
F0.01
sF0.041999999999999996
F0.01
sF0.133
I0
sF0.022
I0
sF0.038
F0.03
sF0.034999999999999996
F0.03
sF0.006
F0.03
sF0.023
F0.04
sF0.9999999999999999
I0
sa(dp1068
F0.0
F1.0
sF0.034
I0
sF0.1
I0
sF0.066
I0
sF0.011
I0
sF0.333
I0
sF0.020999999999999998
I0
sF0.007
I0
sF0.03
I0
sF0.013999999999999999
I0
sF0.054
I0
sF0.04
I0
sF0.051
I0
sF0.031
I0
sF0.026
I0
sF0.033
I0
sF0.024
I0
sF0.065
I0
sF0.038
I0
sF0.003
I0
sF0.087
I0
sF0.049
I0
sF0.015
I0
sF0.022
I0
sF0.013000000000000001
I0
sF0.009999999999999998
I0
sF0.166
I0
sF0.047
I0
sF0.028999999999999998
I0
sF0.032
I0
sF0.018
I0
sF0.016999999999999998
I0
sF0.045
I0
sF0.008
I0
sF0.028
I0
sF0.016
I0
sF0.004
I0
sF0.043
I0
sF0.027
I0
sF0.057999999999999996
I0
sF0.041
I0
sF0.052
I0
sF0.036
I0
sF0.064
I0
sF0.005
I0
sF0.039
I0
sF0.049999999999999996
I0
sF0.024999999999999998
I0
sF0.02
I0
sF0.046
I0
sF0.009000000000000001
I0
sF0.012
I0
sF0.041999999999999996
I0
sF0.133
I0
sF0.044
I0
sF0.019
I0
sF0.034999999999999996
I0
sF0.006
I0
sF0.023
I0
sF0.9999999999999999
I0
sa(dp1069
I0
I0
sI1
I0
sI2
I0
sI3
I0
sI4
I0
sI5
I0
sI6
I0
sI7
I0
sI8
I0
sI9
I0
sI10
I0
sI11
F0.01
sI12
I0
sI13
F0.05
sI14
F0.02
sI15
F0.02
sI16
F0.03
sI17
F0.08
sI18
F0.08
sI19
F0.09
sI20
F0.06
sI21
F0.11
sI22
F0.11
sI23
F0.1
sI24
F0.09
sI25
F0.02
sI26
F0.06
sI27
F0.03
sI28
F0.01
sI29
F0.01
sI30
F0.01
sI31
F0.01
sI32
I0
sI34
I0
sI35
I0
sa(dp1070
I0
I0
sI1
F0.06
sI2
F0.87
sI3
F0.06
sI4
F0.01
sI5
I0
sI6
I0
sI7
I0
sI8
I0
sI9
I0
sI10
I0
sI11
I0
sI12
I0
sI13
I0
sI14
I0
sI15
I0
sI16
I0
sI17
I0
sI18
I0
sI19
I0
sI20
I0
sI21
I0
sI22
I0
sI23
I0
sI24
I0
sI25
I0
sI26
I0
sI27
I0
sI28
I0
sI29
I0
sI30
I0
sI31
I0
sI32
I0
sI34
I0
sI35
I0
sa(dp1071
I0
I0
sI1
F0.04040404040404041
sI2
F0.3595959595959596
sI3
F0.5993939393939394
sI4
F0.0006060606060606061
sI5
I0
sI6
I0
sI7
I0
sI8
I0
sI9
I0
sI10
I0
sI11
I0
sI12
I0
sI13
I0
sI14
I0
sI15
I0
sI16
I0
sI17
I0
sI18
I0
sI19
I0
sI20
I0
sI21
I0
sI22
I0
sI23
I0
sI24
I0
sI25
I0
sI26
I0
sI27
I0
sI28
I0
sI29
I0
sI30
I0
sI31
I0
sI32
I0
sI33
I0
sI34
I0
sI35
I0
sI36
I0
sI37
I0
sI38
I0
sI39
I0
sI40
I0
sI41
I0
sI42
I0
sI43
I0
sI44
I0
sI45
I0
sI46
I0
sI47
I0
sI48
I0
sI49
I0
sI50
I0
sI51
I0
sI52
I0
sI53
I0
sI54
I0
sI55
I0
sI56
I0
sI57
I0
sI58
I0
sI59
I0
sI60
I0
sI61
I0
sI62
I0
sI63
I0
sI64
I0
sI65
I0
sa(dp1072
I0
I0
sI1
F0.020404040404040404
sI2
F0.022424242424242423
sI3
F0.02404040404040404
sI4
F0.025454545454545455
sI5
F0.026262626262626262
sI6
F0.02666666666666667
sI7
F0.02707070707070707
sI8
F0.027676767676767678
sI9
F0.02808080808080808
sI10
F0.028282828282828285
sI11
F0.02909090909090909
sI12
F0.0301010101010101
sI13
F0.03090909090909091
sI14
F0.03212121212121212
sI15
F0.032929292929292926
sI16
F0.029696969696969697
sI17
F0.025252525252525252
sI18
F0.022424242424242423
sI19
F0.020404040404040404
sI20
F0.018585858585858588
sI21
F0.017373737373737375
sI22
F0.016363636363636365
sI23
F0.01595959595959596
sI24
F0.01616161616161616
sI25
F0.01595959595959596
sI26
F0.01575757575757576
sI27
F0.01575757575757576
sI28
F0.015151515151515152
sI29
F0.014545454545454545
sI30
F0.014141414141414142
sI31
F0.013939393939393939
sI32
F0.013737373737373737
sI33
F0.013535353535353536
sI34
F0.013333333333333334
sI35
F0.013131313131313131
sI36
F0.01292929292929293
sI37
F0.012727272727272728
sI38
F0.012525252525252526
sI39
F0.012121212121212121
sI40
F0.01191919191919192
sI41
F0.011717171717171718
sI42
F0.011515151515151515
sI43
F0.011313131313131313
sI44
F0.011111111111111112
sI45
F0.01090909090909091
sI46
F0.010707070707070707
sI47
F0.010505050505050505
sI48
F0.010303030303030303
sI49
F0.010101010101010102
sI50
F0.009898989898989899
sI51
F0.009494949494949495
sI52
F0.008888888888888889
sI53
F0.008282828282828282
sI54
F0.007676767676767677
sI55
F0.007070707070707071
sI56
F0.006464646464646465
sI57
F0.006060606060606061
sI58
F0.0052525252525252525
sI59
F0.004646464646464647
sI60
F0.004242424242424243
sI61
F0.0034343434343434343
sI62
F0.0026262626262626263
sI63
F0.0018181818181818182
sI64
F0.0008080808080808081
sI65
F0.00020202020202020202
satp1073
ba(lp1074
g12
(g13
(I0
tp1075
g15
tp1076
Rp1077
((I1
(I3
tp1078
g22
I00
(lp1079
g26
ag27
ag28
atp1080
(Ntp1081
tp1082
ba(dp1083
g66
(dp1084
g68
g1044
sg69
(lp1085
(dp1086
g72
g73
(I0
I3
I1
tp1087
Rp1088
sg76
g1064
sasstp1089
bbssS'Induced Random Vertex Sampling'
p1090
(dp1091
I0
g3
(g4
g5
Ntp1092
Rp1093
g3
(g8
g5
Ntp1094
Rp1095
((lp1096
g12
(g13
(I0
tp1097
g15
tp1098
Rp1099
((I1
(I3
tp1100
g22
I00
(lp1101
g26
ag27
ag28
atp1102
(Ntp1103
tp1104
bag12
(g13
(I0
tp1105
g15
tp1106
Rp1107
((I1
(I2
tp1108
g22
I00
(lp1109
g37
ag38
atp1110
(Ntp1111
tp1112
ba(lp1113
g12
(g43
(I0
tp1114
g15
tp1115
Rp1116
(I1
(I3
I2
tp1117
g22
I00
(lp1118
(dp1119
F0.0
F0.03
sF0.016999999999999998
I0
sF0.1
I0
sF0.033
F0.01
sF0.011
F0.05
sF0.052
I0
sF0.333
I0
sF0.020999999999999998
F0.03
sF0.007
I0
sF0.015
F0.09
sF0.064
I0
sF0.013999999999999999
F0.03
sF0.054
I0
sF0.009999999999999998
F0.05
sF0.051
I0
sF0.031
F0.02
sF0.026
F0.02
sF0.066
I0
sF0.012
F0.02
sF0.065
I0
sF0.038
F0.01
sF0.087
I0
sF0.049
I0
sF0.03
F0.02
sF0.024
I0
sF0.022
F0.05
sF0.04
F0.01
sF0.166
I0
sF0.047
F0.01
sF0.028999999999999998
F0.03
sF0.036
F0.01
sF0.034
F0.04
sF0.045
I0
sF0.016
F0.04
sF0.028
F0.02
sF0.032
F0.01
sF0.008
F0.07
sF0.043
F0.01
sF0.027
F0.02
sF0.057999999999999996
I0
sF0.041
I0
sF0.013000000000000001
F0.04
sF0.018
F0.02
sF0.004
I0
sF0.005
F0.02
sF0.039
F0.01
sF0.049999999999999996
I0
sF0.024999999999999998
F0.05
sF0.02
I0
sF0.046
I0
sF0.009000000000000001
F0.03
sF0.006
F0.02
sF0.041999999999999996
F0.01
sF0.133
I0
sF0.044
F0.01
sF0.019
F0.05
sF0.034999999999999996
F0.02
sF0.003
F0.01
sF0.023
F0.01
sF0.9999999999999999
I0
sa(dp1120
F0.0
F0.97
sF0.034
I0
sF0.033
I0
sF0.011
I0
sF0.020999999999999998
I0
sF0.007
I0
sF0.03
I0
sF0.009000000000000001
I0
sF0.013999999999999999
I0
sF0.054
I0
sF0.04
I0
sF0.051
I0
sF0.031
I0
sF0.026
I0
sF0.066
I0
sF0.024
I0
sF0.065
I0
sF0.038
I0
sF0.003
I0
sF0.087
I0
sF0.049
I0
sF0.015
I0
sF0.022
I0
sF0.013000000000000001
I0
sF0.009999999999999998
I0
sF0.166
I0
sF0.047
I0
sF0.028999999999999998
I0
sF0.049999999999999996
I0
sF0.032
I0
sF0.018
I0
sF0.016999999999999998
I0
sF0.045
I0
sF0.008
I0
sF0.028
I0
sF0.016
I0
sF0.004
I0
sF0.043
I0
sF0.027
I0
sF0.057999999999999996
I0
sF0.041
I0
sF0.052
I0
sF0.036
I0
sF0.064
I0
sF0.005
I0
sF0.039
I0
sF0.024999999999999998
I0
sF0.1
F0.01
sF0.02
I0
sF0.046
I0
sF0.333
F0.01
sF0.012
I0
sF0.041999999999999996
I0
sF0.133
I0
sF0.044
I0
sF0.019
I0
sF0.034999999999999996
F0.01
sF0.006
I0
sF0.023
I0
sF0.9999999999999999
I0
sa(dp1121
I0
I0
sI1
I0
sI2
I0
sI3
I0
sI4
I0
sI5
I0
sI6
I0
sI7
I0
sI8
I0
sI9
I0
sI10
I0
sI11
F0.01
sI12
I0
sI13
F0.03
sI14
F0.04
sI15
F0.04
sI16
F0.1
sI17
F0.03
sI18
F0.07
sI19
F0.07
sI20
F0.14
sI21
F0.1
sI22
F0.09
sI23
F0.1
sI24
F0.05
sI25
F0.02
sI26
F0.03
sI27
I0
sI28
F0.05
sI29
F0.03
sI30
I0
sI31
I0
sI32
I0
sI34
I0
sI35
I0
sa(dp1122
I0
F0.16
sI1
F0.19
sI2
F0.3
sI3
F0.19
sI4
F0.1
sI5
F0.03
sI6
F0.01
sI7
F0.01
sI8
F0.01
sI9
I0
sI10
I0
sI11
I0
sI12
I0
sI13
I0
sI14
I0
sI15
I0
sI16
I0
sI17
I0
sI18
I0
sI19
I0
sI20
I0
sI21
I0
sI22
I0
sI23
I0
sI24
I0
sI25
I0
sI26
I0
sI27
I0
sI28
I0
sI29
I0
sI30
I0
sI31
I0
sI32
I0
sI34
I0
sI35
I0
sa(dp1123
I0
I0
sI1
F0.021414141414141413
sI2
F0.3327272727272727
sI3
F0.6450505050505051
sI4
F0.0008080808080808081
sI5
I0
sI6
I0
sI7
I0
sI8
I0
sI9
I0
sI10
I0
sI11
I0
sI12
I0
sI13
I0
sI14
I0
sI15
I0
sI16
I0
sI17
I0
sI18
I0
sI19
I0
sI20
I0
sI21
I0
sI22
I0
sI23
I0
sI24
I0
sI25
I0
sI26
I0
sI27
I0
sI28
I0
sI29
I0
sI30
I0
sI31
I0
sI32
I0
sI33
I0
sI34
I0
sI35
I0
sI36
I0
sI37
I0
sI38
I0
sI39
I0
sI40
I0
sI41
I0
sI42
I0
sI43
I0
sI44
I0
sI45
I0
sI46
I0
sI47
I0
sI48
I0
sI49
I0
sI50
I0
sI51
I0
sI52
I0
sI53
I0
sI54
I0
sI55
I0
sI56
I0
sI57
I0
sI58
I0
sI59
I0
sI60
I0
sI61
I0
sI62
I0
sI63
I0
sI64
I0
sI65
I0
sa(dp1124
I0
I0
sI1
F0.030407343660355707
sI2
F0.06655192197360872
sI3
F0.1219162363740677
sI4
F0.18961560527825588
sI5
F0.21944922547332185
sI6
F0.178714859437751
sI7
F0.10413080895008606
sI8
F0.04589787722317843
sI9
F0.024670109007458405
sI10
F0.011761331038439472
sI11
F0.004589787722317842
sI12
F0.002008032128514056
sI13
F0.00028686173264486515
sI14
I0
sI15
I0
sI16
I0
sI17
I0
sI18
I0
sI19
I0
sI20
I0
sI21
I0
sI22
I0
sI23
I0
sI24
I0
sI25
I0
sI26
I0
sI27
I0
sI28
I0
sI29
I0
sI30
I0
sI31
I0
sI32
I0
sI33
I0
sI34
I0
sI35
I0
sI36
I0
sI37
I0
sI38
I0
sI39
I0
sI40
I0
sI41
I0
sI42
I0
sI43
I0
sI44
I0
sI45
I0
sI46
I0
sI47
I0
sI48
I0
sI49
I0
sI50
I0
sI51
I0
sI52
I0
sI53
I0
sI54
I0
sI55
I0
sI56
I0
sI57
I0
sI58
I0
sI59
I0
sI60
I0
sI61
I0
sI62
I0
sI63
I0
sI64
I0
sI65
I0
satp1125
ba(lp1126
g12
(g13
(I0
tp1127
g15
tp1128
Rp1129
((I1
(I3
tp1130
g22
I00
(lp1131
g26
ag27
ag28
atp1132
(Ntp1133
tp1134
ba(dp1135
g66
(dp1136
g68
g1096
sg69
(lp1137
(dp1138
g72
g73
(I0
I3
I1
tp1139
Rp1140
sg76
g1116
sasstp1141
bbsI1
g3
(g4
g5
Ntp1142
Rp1143
g3
(g8
g5
Ntp1144
Rp1145
((lp1146
g12
(g13
(I0
tp1147
g15
tp1148
Rp1149
((I1
(I3
tp1150
g22
I00
(lp1151
g26
ag27
ag28
atp1152
(Ntp1153
tp1154
bag12
(g13
(I0
tp1155
g15
tp1156
Rp1157
((I1
(I2
tp1158
g22
I00
(lp1159
g37
ag38
atp1160
(Ntp1161
tp1162
ba(lp1163
g12
(g43
(I0
tp1164
g15
tp1165
Rp1166
(I1
(I3
I2
tp1167
g22
I00
(lp1168
(dp1169
F0.0
F0.03
sF0.016999999999999998
F0.01
sF0.1
I0
sF0.066
F0.01
sF0.011
F0.04
sF0.052
I0
sF0.333
I0
sF0.041999999999999996
F0.02
sF0.007
F0.01
sF0.03
I0
sF0.028
F0.05
sF0.054
I0
sF0.04
F0.01
sF0.051
I0
sF0.031
F0.02
sF0.026
F0.02
sF0.033
F0.01
sF0.012
F0.02
sF0.065
I0
sF0.019
F0.14
sF0.087
I0
sF0.049
I0
sF0.015
F0.06
sF0.024
F0.01
sF0.022
F0.01
sF0.005
F0.01
sF0.166
I0
sF0.047
F0.01
sF0.028999999999999998
F0.03
sF0.036
F0.03
sF0.034
F0.02
sF0.045
F0.01
sF0.032
F0.01
sF0.013999999999999999
F0.06
sF0.016
F0.03
sF0.004
F0.01
sF0.043
I0
sF0.027
F0.03
sF0.009999999999999998
F0.05
sF0.057999999999999996
I0
sF0.041
I0
sF0.013000000000000001
F0.02
sF0.018
F0.03
sF0.064
I0
sF0.02
F0.01
sF0.039
I0
sF0.049999999999999996
I0
sF0.024999999999999998
F0.03
sF0.046
I0
sF0.009000000000000001
F0.03
sF0.003
F0.01
sF0.020999999999999998
F0.03
sF0.133
I0
sF0.044
I0
sF0.038
F0.01
sF0.034999999999999996
F0.01
sF0.006
F0.01
sF0.023
F0.04
sF0.008
I0
sF0.9999999999999999
I0
sa(dp1170
F0.0
F0.97
sF0.034
I0
sF0.066
I0
sF0.011
I0
sF0.020999999999999998
I0
sF0.007
I0
sF0.03
I0
sF0.013999999999999999
I0
sF0.054
I0
sF0.04
I0
sF0.051
I0
sF0.031
I0
sF0.026
I0
sF0.033
I0
sF0.024
I0
sF0.065
I0
sF0.038
I0
sF0.003
I0
sF0.087
I0
sF0.049
I0
sF0.015
I0
sF0.022
I0
sF0.013000000000000001
I0
sF0.009000000000000001
I0
sF0.166
F0.01
sF0.047
I0
sF0.028999999999999998
I0
sF0.049999999999999996
I0
sF0.032
I0
sF0.018
I0
sF0.016999999999999998
I0
sF0.045
I0
sF0.008
I0
sF0.028
I0
sF0.016
I0
sF0.004
I0
sF0.043
I0
sF0.027
I0
sF0.009999999999999998
I0
sF0.057999999999999996
I0
sF0.041
I0
sF0.052
I0
sF0.036
I0
sF0.064
I0
sF0.005
I0
sF0.039
I0
sF0.024999999999999998
I0
sF0.1
F0.01
sF0.02
I0
sF0.046
I0
sF0.333
I0
sF0.012
I0
sF0.041999999999999996
I0
sF0.133
I0
sF0.044
I0
sF0.019
I0
sF0.034999999999999996
I0
sF0.006
I0
sF0.023
I0
sF0.9999999999999999
F0.01
sa(dp1171
I0
I0
sI1
I0
sI2
I0
sI3
I0
sI4
I0
sI5
I0
sI6
I0
sI7
I0
sI8
I0
sI9
I0
sI10
F0.01
sI11
I0
sI12
F0.01
sI13
F0.02
sI14
F0.03
sI15
F0.08
sI16
F0.04
sI17
F0.05
sI18
F0.11
sI19
F0.08
sI20
F0.1
sI21
F0.11
sI22
F0.06
sI23
F0.05
sI24
F0.08
sI25
F0.07
sI26
F0.03
sI27
F0.03
sI28
F0.01
sI29
F0.01
sI30
F0.01
sI31
I0
sI32
I0
sI34
F0.01
sI35
I0
sa(dp1172
I0
F0.13
sI1
F0.3
sI2
F0.29
sI3
F0.15
sI4
F0.11
sI5
F0.01
sI6
F0.01
sI7
I0
sI8
I0
sI9
I0
sI10
I0
sI11
I0
sI12
I0
sI13
I0
sI14
I0
sI15
I0
sI16
I0
sI17
I0
sI18
I0
sI19
I0
sI20
I0
sI21
I0
sI22
I0
sI23
I0
sI24
I0
sI25
I0
sI26
I0
sI27
I0
sI28
I0
sI29
I0
sI30
I0
sI31
I0
sI32
I0
sI34
I0
sI35
I0
sa(dp1173
I0
I0
sI1
F0.01898989898989899
sI2
F0.3327272727272727
sI3
F0.6478787878787878
sI4
F0.00040404040404040404
sI5
I0
sI6
I0
sI7
I0
sI8
I0
sI9
I0
sI10
I0
sI11
I0
sI12
I0
sI13
I0
sI14
I0
sI15
I0
sI16
I0
sI17
I0
sI18
I0
sI19
I0
sI20
I0
sI21
I0
sI22
I0
sI23
I0
sI24
I0
sI25
I0
sI26
I0
sI27
I0
sI28
I0
sI29
I0
sI30
I0
sI31
I0
sI32
I0
sI33
I0
sI34
I0
sI35
I0
sI36
I0
sI37
I0
sI38
I0
sI39
I0
sI40
I0
sI41
I0
sI42
I0
sI43
I0
sI44
I0
sI45
I0
sI46
I0
sI47
I0
sI48
I0
sI49
I0
sI50
I0
sI51
I0
sI52
I0
sI53
I0
sI54
I0
sI55
I0
sI56
I0
sI57
I0
sI58
I0
sI59
I0
sI60
I0
sI61
I0
sI62
I0
sI63
I0
sI64
I0
sI65
I0
sa(dp1174
I0
I0
sI1
F0.028949799815214044
sI2
F0.0486603018170619
sI3
F0.07145056975669849
sI4
F0.09331690791499846
sI5
F0.11610717585463505
sI6
F0.11887896519864491
sI7
F0.11056359716661533
sI8
F0.09824453341546042
sI9
F0.07453033569448722
sI10
F0.05974745919310132
sI11
F0.043424699722821064
sI12
F0.03818909762858023
sI13
F0.03233754234678164
sI14
F0.02525408068986757
sI15
F0.01971050200184786
sI16
F0.01201108715737604
sI17
F0.006159531875577456
sI18
F0.0021558361564521095
sI19
F0.0003079765937788728
sI20
I0
sI21
I0
sI22
I0
sI23
I0
sI24
I0
sI25
I0
sI26
I0
sI27
I0
sI28
I0
sI29
I0
sI30
I0
sI31
I0
sI32
I0
sI33
I0
sI34
I0
sI35
I0
sI36
I0
sI37
I0
sI38
I0
sI39
I0
sI40
I0
sI41
I0
sI42
I0
sI43
I0
sI44
I0
sI45
I0
sI46
I0
sI47
I0
sI48
I0
sI49
I0
sI50
I0
sI51
I0
sI52
I0
sI53
I0
sI54
I0
sI55
I0
sI56
I0
sI57
I0
sI58
I0
sI59
I0
sI60
I0
sI61
I0
sI62
I0
sI63
I0
sI64
I0
sI65
I0
satp1175
ba(lp1176
g12
(g13
(I0
tp1177
g15
tp1178
Rp1179
((I1
(I3
tp1180
g22
I00
(lp1181
g26
ag27
ag28
atp1182
(Ntp1183
tp1184
ba(dp1185
g66
(dp1186
g68
g1146
sg69
(lp1187
(dp1188
g72
g73
(I0
I3
I1
tp1189
Rp1190
sg76
g1166
sasstp1191
bbsI2
g3
(g4
g5
Ntp1192
Rp1193
g3
(g8
g5
Ntp1194
Rp1195
((lp1196
g12
(g13
(I0
tp1197
g15
tp1198
Rp1199
((I1
(I3
tp1200
g22
I00
(lp1201
g26
ag27
ag28
atp1202
(Ntp1203
tp1204
bag12
(g13
(I0
tp1205
g15
tp1206
Rp1207
((I1
(I2
tp1208
g22
I00
(lp1209
g37
ag38
atp1210
(Ntp1211
tp1212
ba(lp1213
g12
(g43
(I0
tp1214
g15
tp1215
Rp1216
(I1
(I3
I2
tp1217
g22
I00
(lp1218
(dp1219
F0.0
F0.03
sF0.034
F0.01
sF0.1
I0
sF0.033
F0.01
sF0.011
F0.04
sF0.064
I0
sF0.333
I0
sF0.020999999999999998
F0.08
sF0.007
F0.02
sF0.03
I0
sF0.013999999999999999
F0.02
sF0.054
I0
sF0.009999999999999998
F0.02
sF0.051
I0
sF0.031
I0
sF0.052
I0
sF0.066
I0
sF0.012
F0.01
sF0.065
I0
sF0.019
F0.07
sF0.003
I0
sF0.087
I0
sF0.049
I0
sF0.015
F0.06
sF0.022
F0.01
sF0.013000000000000001
I0
sF0.005
F0.01
sF0.166
I0
sF0.047
F0.01
sF0.028999999999999998
F0.01
sF0.036
F0.03
sF0.016999999999999998
F0.07
sF0.045
F0.01
sF0.032
F0.01
sF0.028
F0.07
sF0.016
F0.03
sF0.008
F0.03
sF0.043
I0
sF0.027
F0.05
sF0.057999999999999996
I0
sF0.041
I0
sF0.026
F0.05
sF0.018
F0.02
sF0.004
I0
sF0.04
F0.01
sF0.039
F0.01
sF0.049999999999999996
I0
sF0.024999999999999998
F0.05
sF0.02
F0.01
sF0.046
I0
sF0.009000000000000001
F0.03
sF0.006
F0.03
sF0.041999999999999996
F0.01
sF0.133
I0
sF0.044
I0
sF0.038
F0.01
sF0.034999999999999996
F0.02
sF0.024
I0
sF0.023
F0.04
sF0.9999999999999999
I0
sa(dp1220
F0.0
F0.97
sF0.034
I0
sF0.066
F0.01
sF0.011
I0
sF0.020999999999999998
I0
sF0.007
I0
sF0.03
I0
sF0.013999999999999999
I0
sF0.054
I0
sF0.04
I0
sF0.051
I0
sF0.031
I0
sF0.026
I0
sF0.033
I0
sF0.024
I0
sF0.065
I0
sF0.038
I0
sF0.003
I0
sF0.087
I0
sF0.049
I0
sF0.015
I0
sF0.022
I0
sF0.013000000000000001
I0
sF0.009000000000000001
I0
sF0.166
I0
sF0.047
I0
sF0.028999999999999998
I0
sF0.049999999999999996
I0
sF0.032
I0
sF0.018
I0
sF0.016999999999999998
I0
sF0.045
I0
sF0.008
I0
sF0.028
I0
sF0.016
I0
sF0.004
I0
sF0.043
I0
sF0.027
I0
sF0.009999999999999998
I0
sF0.057999999999999996
I0
sF0.041
I0
sF0.052
I0
sF0.036
I0
sF0.064
I0
sF0.005
I0
sF0.039
I0
sF0.024999999999999998
I0
sF0.1
F0.01
sF0.02
I0
sF0.046
I0
sF0.333
F0.01
sF0.012
I0
sF0.041999999999999996
I0
sF0.133
I0
sF0.044
I0
sF0.019
I0
sF0.034999999999999996
I0
sF0.006
I0
sF0.023
I0
sF0.9999999999999999
I0
sa(dp1221
I0
I0
sI1
I0
sI2
I0
sI3
I0
sI4
I0
sI5
I0
sI6
I0
sI7
I0
sI8
I0
sI9
I0
sI10
I0
sI11
I0
sI12
F0.02
sI13
I0
sI14
F0.02
sI15
F0.07
sI16
F0.08
sI17
F0.04
sI18
F0.09
sI19
F0.09
sI20
F0.12
sI21
F0.08
sI22
F0.08
sI23
F0.12
sI24
F0.07
sI25
F0.02
sI26
F0.02
sI27
F0.04
sI28
I0
sI29
F0.01
sI30
F0.02
sI31
I0
sI32
I0
sI34
I0
sI35
F0.01
sa(dp1222
I0
F0.13
sI1
F0.25
sI2
F0.23
sI3
F0.25
sI4
F0.09
sI5
F0.03
sI6
F0.01
sI7
F0.01
sI8
I0
sI9
I0
sI10
I0
sI11
I0
sI12
I0
sI13
I0
sI14
I0
sI15
I0
sI16
I0
sI17
I0
sI18
I0
sI19
I0
sI20
I0
sI21
I0
sI22
I0
sI23
I0
sI24
I0
sI25
I0
sI26
I0
sI27
I0
sI28
I0
sI29
I0
sI30
I0
sI31
I0
sI32
I0
sI34
I0
sI35
I0
sa(dp1223
I0
I0
sI1
F0.021212121212121213
sI2
F0.32565656565656564
sI3
F0.6527272727272727
sI4
F0.00040404040404040404
sI5
I0
sI6
I0
sI7
I0
sI8
I0
sI9
I0
sI10
I0
sI11
I0
sI12
I0
sI13
I0
sI14
I0
sI15
I0
sI16
I0
sI17
I0
sI18
I0
sI19
I0
sI20
I0
sI21
I0
sI22
I0
sI23
I0
sI24
I0
sI25
I0
sI26
I0
sI27
I0
sI28
I0
sI29
I0
sI30
I0
sI31
I0
sI32
I0
sI33
I0
sI34
I0
sI35
I0
sI36
I0
sI37
I0
sI38
I0
sI39
I0
sI40
I0
sI41
I0
sI42
I0
sI43
I0
sI44
I0
sI45
I0
sI46
I0
sI47
I0
sI48
I0
sI49
I0
sI50
I0
sI51
I0
sI52
I0
sI53
I0
sI54
I0
sI55
I0
sI56
I0
sI57
I0
sI58
I0
sI59
I0
sI60
I0
sI61
I0
sI62
I0
sI63
I0
sI64
I0
sI65
I0
sa(dp1224
I0
I0
sI1
F0.032377428307123035
sI2
F0.0625963613937712
sI3
F0.11100832562442182
sI4
F0.1637372802960222
sI5
F0.17699660807893924
sI6
F0.12981806968855997
sI7
F0.09065679925994449
sI8
F0.06598828245451742
sI9
F0.04841196423065063
sI10
F0.03916127042861548
sI11
F0.03145235892691952
sI12
F0.02312673450508788
sI13
F0.013567684242984891
sI14
F0.00585877274128893
sI15
F0.002466851680542707
sI16
F0.001541782300339192
sI17
F0.0009250693802035153
sI18
F0.0003083564600678384
sI19
I0
sI20
I0
sI21
I0
sI22
I0
sI23
I0
sI24
I0
sI25
I0
sI26
I0
sI27
I0
sI28
I0
sI29
I0
sI30
I0
sI31
I0
sI32
I0
sI33
I0
sI34
I0
sI35
I0
sI36
I0
sI37
I0
sI38
I0
sI39
I0
sI40
I0
sI41
I0
sI42
I0
sI43
I0
sI44
I0
sI45
I0
sI46
I0
sI47
I0
sI48
I0
sI49
I0
sI50
I0
sI51
I0
sI52
I0
sI53
I0
sI54
I0
sI55
I0
sI56
I0
sI57
I0
sI58
I0
sI59
I0
sI60
I0
sI61
I0
sI62
I0
sI63
I0
sI64
I0
sI65
I0
satp1225
ba(lp1226
g12
(g13
(I0
tp1227
g15
tp1228
Rp1229
((I1
(I3
tp1230
g22
I00
(lp1231
g26
ag27
ag28
atp1232
(Ntp1233
tp1234
ba(dp1235
g66
(dp1236
g68
g1196
sg69
(lp1237
(dp1238
g72
g73
(I0
I3
I1
tp1239
Rp1240
sg76
g1216
sasstp1241
bbssS'Induced Random Edge Sampling'
p1242
(dp1243
I0
g3
(g4
g5
Ntp1244
Rp1245
g3
(g8
g5
Ntp1246
Rp1247
((lp1248
g12
(g13
(I0
tp1249
g15
tp1250
Rp1251
((I1
(I3
tp1252
g22
I00
(lp1253
g26
ag27
ag28
atp1254
(Ntp1255
tp1256
bag12
(g13
(I0
tp1257
g15
tp1258
Rp1259
((I1
(I2
tp1260
g22
I00
(lp1261
g37
ag38
atp1262
(Ntp1263
tp1264
ba(lp1265
g12
(g43
(I0
tp1266
g15
tp1267
Rp1268
(I1
(I3
I2
tp1269
g22
I00
(lp1270
(dp1271
F0.0
F0.019801980198019802
sF0.016999999999999998
F0.019801980198019802
sF0.1
I0
sF0.013999999999999999
F0.0594059405940594
sF0.033
F0.009900990099009901
sF0.011
F0.019801980198019802
sF0.04
I0
sF0.052
I0
sF0.020999999999999998
F0.06930693069306931
sF0.03
F0.019801980198019802
sF0.007
F0.0297029702970297
sF0.054
I0
sF0.009999999999999998
F0.06930693069306931
sF0.051
I0
sF0.031
F0.04950495049504951
sF0.026
F0.039603960396039604
sF0.066
I0
sF0.012
F0.019801980198019802
sF0.065
I0
sF0.019
F0.09900990099009901
sF0.087
F0.009900990099009901
sF0.049
I0
sF0.015
F0.0297029702970297
sF0.022
F0.009900990099009901
sF0.036
F0.009900990099009901
sF0.166
I0
sF0.047
I0
sF0.028999999999999998
F0.009900990099009901
sF0.009000000000000001
F0.019801980198019802
sF0.034
F0.019801980198019802
sF0.045
I0
sF0.004
F0.019801980198019802
sF0.028
F0.0594059405940594
sF0.032
F0.009900990099009901
sF0.008
F0.0297029702970297
sF0.016
F0.009900990099009901
sF0.043
I0
sF0.027
I0
sF0.057999999999999996
I0
sF0.041
I0
sF0.013000000000000001
F0.039603960396039604
sF0.018
I0
sF0.064
I0
sF0.005
F0.039603960396039604
sF0.039
F0.009900990099009901
sF0.049999999999999996
I0
sF0.024999999999999998
F0.019801980198019802
sF0.02
I0
sF0.046
I0
sF0.333
I0
sF0.003
F0.009900990099009901
sF0.041999999999999996
I0
sF0.133
I0
sF0.044
I0
sF0.038
F0.019801980198019802
sF0.006
F0.019801980198019802
sF0.034999999999999996
F0.019801980198019802
sF0.024
F0.009900990099009901
sF0.023
F0.04950495049504951
sF0.9999999999999999
I0
sa(dp1272
F0.0
F1.0
sF0.034
I0
sF0.1
I0
sF0.033
I0
sF0.011
I0
sF0.020999999999999998
I0
sF0.007
I0
sF0.03
I0
sF0.013999999999999999
I0
sF0.054
I0
sF0.04
I0
sF0.051
I0
sF0.031
I0
sF0.026
I0
sF0.066
I0
sF0.024
I0
sF0.065
I0
sF0.038
I0
sF0.003
I0
sF0.087
I0
sF0.049
I0
sF0.015
I0
sF0.022
I0
sF0.013000000000000001
I0
sF0.009000000000000001
I0
sF0.166
I0
sF0.047
I0
sF0.028999999999999998
I0
sF0.032
I0
sF0.018
I0
sF0.016999999999999998
I0
sF0.045
I0
sF0.008
I0
sF0.028
I0
sF0.016
I0
sF0.004
I0
sF0.043
I0
sF0.027
I0
sF0.009999999999999998
I0
sF0.057999999999999996
I0
sF0.041
I0
sF0.052
I0
sF0.036
I0
sF0.064
I0
sF0.005
I0
sF0.039
I0
sF0.049999999999999996
I0
sF0.024999999999999998
I0
sF0.02
I0
sF0.046
I0
sF0.333
I0
sF0.012
I0
sF0.041999999999999996
I0
sF0.133
I0
sF0.044
I0
sF0.019
I0
sF0.034999999999999996
I0
sF0.006
I0
sF0.023
I0
sF0.9999999999999999
I0
sa(dp1273
I0
I0
sI1
I0
sI2
I0
sI3
I0
sI4
I0
sI5
I0
sI6
I0
sI7
I0
sI8
I0
sI9
I0
sI10
I0
sI11
F0.009900990099009901
sI12
F0.009900990099009901
sI13
F0.009900990099009901
sI14
F0.019801980198019802
sI15
F0.04950495049504951
sI16
F0.039603960396039604
sI17
F0.04950495049504951
sI18
F0.06930693069306931
sI19
F0.06930693069306931
sI20
F0.0891089108910891
sI21
F0.10891089108910891
sI22
F0.06930693069306931
sI23
F0.09900990099009901
sI24
F0.07920792079207921
sI25
F0.0594059405940594
sI26
F0.019801980198019802
sI27
F0.039603960396039604
sI28
F0.04950495049504951
sI29
F0.0297029702970297
sI30
I0
sI31
F0.009900990099009901
sI32
I0
sI34
F0.009900990099009901
sI35
F0.009900990099009901
sa(dp1274
I0
I0
sI1
F0.16831683168316833
sI2
F0.24752475247524752
sI3
F0.2871287128712871
sI4
F0.12871287128712872
sI5
F0.0891089108910891
sI6
F0.06930693069306931
sI7
F0.009900990099009901
sI8
I0
sI9
I0
sI10
I0
sI11
I0
sI12
I0
sI13
I0
sI14
I0
sI15
I0
sI16
I0
sI17
I0
sI18
I0
sI19
I0
sI20
I0
sI21
I0
sI22
I0
sI23
I0
sI24
I0
sI25
I0
sI26
I0
sI27
I0
sI28
I0
sI29
I0
sI30
I0
sI31
I0
sI32
I0
sI34
I0
sI35
I0
sa(dp1275
I0
I0
sI1
F0.0297029702970297
sI2
F0.3613861386138614
sI3
F0.6081188118811881
sI4
F0.0007920792079207921
sI5
I0
sI6
I0
sI7
I0
sI8
I0
sI9
I0
sI10
I0
sI11
I0
sI12
I0
sI13
I0
sI14
I0
sI15
I0
sI16
I0
sI17
I0
sI18
I0
sI19
I0
sI20
I0
sI21
I0
sI22
I0
sI23
I0
sI24
I0
sI25
I0
sI26
I0
sI27
I0
sI28
I0
sI29
I0
sI30
I0
sI31
I0
sI32
I0
sI33
I0
sI34
I0
sI35
I0
sI36
I0
sI37
I0
sI38
I0
sI39
I0
sI40
I0
sI41
I0
sI42
I0
sI43
I0
sI44
I0
sI45
I0
sI46
I0
sI47
I0
sI48
I0
sI49
I0
sI50
I0
sI51
I0
sI52
I0
sI53
I0
sI54
I0
sI55
I0
sI56
I0
sI57
I0
sI58
I0
sI59
I0
sI60
I0
sI61
I0
sI62
I0
sI63
I0
sI64
I0
sI65
I0
sa(dp1276
I0
I0
sI1
F0.030915086562242376
sI2
F0.08182192910140149
sI3
F0.18260511129431162
sI4
F0.27535037098103876
sI5
F0.22877164056059357
sI6
F0.11933223413025557
sI7
F0.04987633965375103
sI8
F0.02122835943940643
sI9
F0.00741962077493817
sI10
F0.002061005770816158
sI11
F0.0006183017312448475
sI12
I0
sI13
I0
sI14
I0
sI15
I0
sI16
I0
sI17
I0
sI18
I0
sI19
I0
sI20
I0
sI21
I0
sI22
I0
sI23
I0
sI24
I0
sI25
I0
sI26
I0
sI27
I0
sI28
I0
sI29
I0
sI30
I0
sI31
I0
sI32
I0
sI33
I0
sI34
I0
sI35
I0
sI36
I0
sI37
I0
sI38
I0
sI39
I0
sI40
I0
sI41
I0
sI42
I0
sI43
I0
sI44
I0
sI45
I0
sI46
I0
sI47
I0
sI48
I0
sI49
I0
sI50
I0
sI51
I0
sI52
I0
sI53
I0
sI54
I0
sI55
I0
sI56
I0
sI57
I0
sI58
I0
sI59
I0
sI60
I0
sI61
I0
sI62
I0
sI63
I0
sI64
I0
sI65
I0
satp1277
ba(lp1278
g12
(g13
(I0
tp1279
g15
tp1280
Rp1281
((I1
(I3
tp1282
g22
I00
(lp1283
g26
ag27
ag28
atp1284
(Ntp1285
tp1286
ba(dp1287
g66
(dp1288
g68
g1248
sg69
(lp1289
(dp1290
g72
g73
(I0
I3
I1
tp1291
Rp1292
sg76
g1268
sasstp1293
bbsI1
g3
(g4
g5
Ntp1294
Rp1295
g3
(g8
g5
Ntp1296
Rp1297
((lp1298
g12
(g13
(I0
tp1299
g15
tp1300
Rp1301
((I1
(I3
tp1302
g22
I00
(lp1303
g26
ag27
ag28
atp1304
(Ntp1305
tp1306
bag12
(g13
(I0
tp1307
g15
tp1308
Rp1309
((I1
(I2
tp1310
g22
I00
(lp1311
g37
ag38
atp1312
(Ntp1313
tp1314
ba(lp1315
g12
(g43
(I0
tp1316
g15
tp1317
Rp1318
(I1
(I3
I2
tp1319
g22
I00
(lp1320
(dp1321
F0.0
F0.01
sF0.034
F0.01
sF0.1
I0
sF0.066
I0
sF0.011
F0.04
sF0.020999999999999998
F0.05
sF0.028
F0.04
sF0.03
F0.02
sF0.013999999999999999
F0.05
sF0.054
I0
sF0.005
F0.06
sF0.051
F0.01
sF0.031
F0.01
sF0.052
I0
sF0.033
I0
sF0.012
F0.03
sF0.065
I0
sF0.019
F0.07
sF0.003
I0
sF0.087
I0
sF0.049
I0
sF0.015
F0.03
sF0.022
F0.02
sF0.013000000000000001
I0
sF0.009000000000000001
F0.04
sF0.166
I0
sF0.047
I0
sF0.028999999999999998
F0.01
sF0.018
I0
sF0.016999999999999998
F0.05
sF0.045
F0.01
sF0.008
F0.03
sF0.007
F0.06
sF0.004
F0.02
sF0.032
F0.02
sF0.016
I0
sF0.043
I0
sF0.027
F0.02
sF0.009999999999999998
F0.04
sF0.057999999999999996
I0
sF0.041
F0.01
sF0.026
F0.03
sF0.036
I0
sF0.064
I0
sF0.04
F0.01
sF0.039
F0.02
sF0.049999999999999996
I0
sF0.024999999999999998
F0.03
sF0.02
I0
sF0.046
I0
sF0.333
I0
sF0.006
F0.04
sF0.041999999999999996
I0
sF0.133
I0
sF0.044
F0.01
sF0.038
F0.01
sF0.034999999999999996
F0.03
sF0.024
F0.02
sF0.023
F0.04
sF0.9999999999999999
I0
sa(dp1322
F0.0
F0.86
sF0.034
I0
sF0.066
F0.01
sF0.011
I0
sF0.020999999999999998
I0
sF0.007
I0
sF0.03
I0
sF0.013999999999999999
I0
sF0.054
I0
sF0.04
I0
sF0.051
I0
sF0.031
I0
sF0.026
I0
sF0.033
I0
sF0.024
I0
sF0.065
I0
sF0.038
I0
sF0.003
I0
sF0.087
I0
sF0.049
I0
sF0.015
I0
sF0.022
I0
sF0.013000000000000001
I0
sF0.009000000000000001
I0
sF0.166
F0.06
sF0.047
I0
sF0.028999999999999998
I0
sF0.049999999999999996
I0
sF0.032
I0
sF0.018
I0
sF0.016999999999999998
I0
sF0.045
I0
sF0.008
I0
sF0.028
I0
sF0.016
I0
sF0.004
I0
sF0.043
I0
sF0.027
I0
sF0.009999999999999998
I0
sF0.057999999999999996
I0
sF0.041
I0
sF0.052
I0
sF0.036
I0
sF0.064
I0
sF0.005
I0
sF0.039
I0
sF0.024999999999999998
I0
sF0.1
F0.01
sF0.02
I0
sF0.046
I0
sF0.333
F0.05
sF0.012
I0
sF0.041999999999999996
I0
sF0.133
F0.01
sF0.044
I0
sF0.019
I0
sF0.034999999999999996
I0
sF0.006
I0
sF0.023
I0
sF0.9999999999999999
I0
sa(dp1323
I0
I0
sI1
I0
sI2
I0
sI3
I0
sI4
I0
sI5
I0
sI6
I0
sI7
I0
sI8
I0
sI9
I0
sI10
I0
sI11
I0
sI12
F0.02
sI13
F0.01
sI14
F0.01
sI15
F0.04
sI16
F0.04
sI17
F0.07
sI18
F0.08
sI19
F0.11
sI20
F0.08
sI21
F0.1
sI22
F0.07
sI23
F0.14
sI24
F0.04
sI25
F0.03
sI26
F0.07
sI27
F0.03
sI28
F0.03
sI29
F0.01
sI30
F0.01
sI31
I0
sI32
I0
sI34
F0.01
sI35
I0
sa(dp1324
I0
I0
sI1
F0.2
sI2
F0.26
sI3
F0.31
sI4
F0.17
sI5
F0.02
sI6
F0.03
sI7
F0.01
sI8
I0
sI9
I0
sI10
I0
sI11
I0
sI12
I0
sI13
I0
sI14
I0
sI15
I0
sI16
I0
sI17
I0
sI18
I0
sI19
I0
sI20
I0
sI21
I0
sI22
I0
sI23
I0
sI24
I0
sI25
I0
sI26
I0
sI27
I0
sI28
I0
sI29
I0
sI30
I0
sI31
I0
sI32
I0
sI34
I0
sI35
I0
sa(dp1325
I0
I0
sI1
F0.02707070707070707
sI2
F0.3484848484848485
sI3
F0.6236363636363637
sI4
F0.0008080808080808081
sI5
I0
sI6
I0
sI7
I0
sI8
I0
sI9
I0
sI10
I0
sI11
I0
sI12
I0
sI13
I0
sI14
I0
sI15
I0
sI16
I0
sI17
I0
sI18
I0
sI19
I0
sI20
I0
sI21
I0
sI22
I0
sI23
I0
sI24
I0
sI25
I0
sI26
I0
sI27
I0
sI28
I0
sI29
I0
sI30
I0
sI31
I0
sI32
I0
sI33
I0
sI34
I0
sI35
I0
sI36
I0
sI37
I0
sI38
I0
sI39
I0
sI40
I0
sI41
I0
sI42
I0
sI43
I0
sI44
I0
sI45
I0
sI46
I0
sI47
I0
sI48
I0
sI49
I0
sI50
I0
sI51
I0
sI52
I0
sI53
I0
sI54
I0
sI55
I0
sI56
I0
sI57
I0
sI58
I0
sI59
I0
sI60
I0
sI61
I0
sI62
I0
sI63
I0
sI64
I0
sI65
I0
sa(dp1326
I0
I0
sI1
F0.029373081981587022
sI2
F0.06225339763261727
sI3
F0.12275317843051294
sI4
F0.19289785181937746
sI5
F0.21942130644454186
sI6
F0.16812801402893468
sI7
F0.10039456378781236
sI8
F0.05501972818939062
sI9
F0.03134590092064884
sI10
F0.014248136782113108
sI11
F0.003726435773783428
sI12
F0.00043840420868040335
sI13
I0
sI14
I0
sI15
I0
sI16
I0
sI17
I0
sI18
I0
sI19
I0
sI20
I0
sI21
I0
sI22
I0
sI23
I0
sI24
I0
sI25
I0
sI26
I0
sI27
I0
sI28
I0
sI29
I0
sI30
I0
sI31
I0
sI32
I0
sI33
I0
sI34
I0
sI35
I0
sI36
I0
sI37
I0
sI38
I0
sI39
I0
sI40
I0
sI41
I0
sI42
I0
sI43
I0
sI44
I0
sI45
I0
sI46
I0
sI47
I0
sI48
I0
sI49
I0
sI50
I0
sI51
I0
sI52
I0
sI53
I0
sI54
I0
sI55
I0
sI56
I0
sI57
I0
sI58
I0
sI59
I0
sI60
I0
sI61
I0
sI62
I0
sI63
I0
sI64
I0
sI65
I0
satp1327
ba(lp1328
g12
(g13
(I0
tp1329
g15
tp1330
Rp1331
((I1
(I3
tp1332
g22
I00
(lp1333
g26
ag27
ag28
atp1334
(Ntp1335
tp1336
ba(dp1337
g66
(dp1338
g68
g1298
sg69
(lp1339
(dp1340
g72
g73
(I0
I3
I1
tp1341
Rp1342
sg76
g1318
sasstp1343
bbsI2
g3
(g4
g5
Ntp1344
Rp1345
g3
(g8
g5
Ntp1346
Rp1347
((lp1348
g12
(g13
(I0
tp1349
g15
tp1350
Rp1351
((I1
(I3
tp1352
g22
I00
(lp1353
g26
ag27
ag28
atp1354
(Ntp1355
tp1356
bag12
(g13
(I0
tp1357
g15
tp1358
Rp1359
((I1
(I2
tp1360
g22
I00
(lp1361
g37
ag38
atp1362
(Ntp1363
tp1364
ba(lp1365
g12
(g43
(I0
tp1366
g15
tp1367
Rp1368
(I1
(I3
I2
tp1369
g22
I00
(lp1370
(dp1371
F0.0
F0.02
sF0.016999999999999998
F0.05
sF0.1
I0
sF0.013999999999999999
F0.06
sF0.033
F0.02
sF0.036
I0
sF0.011
F0.02
sF0.052
I0
sF0.020999999999999998
F0.06
sF0.03
F0.01
sF0.028
F0.03
sF0.054
I0
sF0.009999999999999998
F0.04
sF0.051
I0
sF0.031
F0.01
sF0.026
F0.04
sF0.066
I0
sF0.003
F0.01
sF0.065
F0.01
sF0.019
F0.04
sF0.087
I0
sF0.049
I0
sF0.015
F0.1
sF0.022
F0.02
sF0.04
F0.01
sF0.166
I0
sF0.047
F0.01
sF0.028999999999999998
F0.03
sF0.009000000000000001
F0.01
sF0.034
F0.02
sF0.045
I0
sF0.008
F0.06
sF0.007
F0.04
sF0.032
F0.01
sF0.004
F0.01
sF0.016
F0.02
sF0.043
I0
sF0.027
I0
sF0.057999999999999996
I0
sF0.041
I0
sF0.013000000000000001
F0.03
sF0.018
F0.03
sF0.064
I0
sF0.005
F0.02
sF0.039
F0.01
sF0.049999999999999996
I0
sF0.024999999999999998
F0.01
sF0.02
I0
sF0.046
I0
sF0.333
I0
sF0.012
F0.06
sF0.041999999999999996
F0.01
sF0.133
I0
sF0.044
I0
sF0.038
F0.02
sF0.006
I0
sF0.034999999999999996
I0
sF0.024
I0
sF0.023
F0.05
sF0.9999999999999999
I0
sa(dp1372
F0.0
F0.91
sF0.034
I0
sF0.066
F0.01
sF0.011
I0
sF0.020999999999999998
I0
sF0.007
I0
sF0.03
I0
sF0.013999999999999999
I0
sF0.054
I0
sF0.04
I0
sF0.051
I0
sF0.031
I0
sF0.026
I0
sF0.033
I0
sF0.024
I0
sF0.065
I0
sF0.038
I0
sF0.003
I0
sF0.087
I0
sF0.049
I0
sF0.015
I0
sF0.022
I0
sF0.013000000000000001
I0
sF0.009000000000000001
I0
sF0.166
F0.04
sF0.047
I0
sF0.028999999999999998
I0
sF0.049999999999999996
I0
sF0.032
I0
sF0.018
I0
sF0.016999999999999998
I0
sF0.045
I0
sF0.008
I0
sF0.028
I0
sF0.016
I0
sF0.004
I0
sF0.043
I0
sF0.027
I0
sF0.009999999999999998
I0
sF0.057999999999999996
I0
sF0.041
I0
sF0.052
I0
sF0.036
I0
sF0.064
I0
sF0.005
I0
sF0.039
I0
sF0.024999999999999998
I0
sF0.1
F0.02
sF0.02
I0
sF0.046
I0
sF0.333
F0.02
sF0.012
I0
sF0.041999999999999996
I0
sF0.133
I0
sF0.044
I0
sF0.019
I0
sF0.034999999999999996
I0
sF0.006
I0
sF0.023
I0
sF0.9999999999999999
I0
sa(dp1373
I0
I0
sI1
I0
sI2
I0
sI3
I0
sI4
I0
sI5
I0
sI6
I0
sI7
I0
sI8
I0
sI9
I0
sI10
I0
sI11
I0
sI12
F0.01
sI13
F0.03
sI14
F0.01
sI15
F0.02
sI16
F0.04
sI17
F0.06
sI18
F0.06
sI19
F0.06
sI20
F0.09
sI21
F0.09
sI22
F0.11
sI23
F0.08
sI24
F0.08
sI25
F0.05
sI26
F0.05
sI27
F0.06
sI28
F0.03
sI29
F0.02
sI30
I0
sI31
F0.03
sI32
F0.01
sI34
I0
sI35
F0.01
sa(dp1374
I0
I0
sI1
F0.08
sI2
F0.27
sI3
F0.24
sI4
F0.28
sI5
F0.1
sI6
F0.02
sI7
I0
sI8
F0.01
sI9
I0
sI10
I0
sI11
I0
sI12
I0
sI13
I0
sI14
I0
sI15
I0
sI16
I0
sI17
I0
sI18
I0
sI19
I0
sI20
I0
sI21
I0
sI22
I0
sI23
I0
sI24
I0
sI25
I0
sI26
I0
sI27
I0
sI28
I0
sI29
I0
sI30
I0
sI31
I0
sI32
I0
sI34
I0
sI35
I0
sa(dp1375
I0
I0
sI1
F0.03191919191919192
sI2
F0.3622222222222222
sI3
F0.6046464646464647
sI4
F0.0012121212121212121
sI5
I0
sI6
I0
sI7
I0
sI8
I0
sI9
I0
sI10
I0
sI11
I0
sI12
I0
sI13
I0
sI14
I0
sI15
I0
sI16
I0
sI17
I0
sI18
I0
sI19
I0
sI20
I0
sI21
I0
sI22
I0
sI23
I0
sI24
I0
sI25
I0
sI26
I0
sI27
I0
sI28
I0
sI29
I0
sI30
I0
sI31
I0
sI32
I0
sI33
I0
sI34
I0
sI35
I0
sI36
I0
sI37
I0
sI38
I0
sI39
I0
sI40
I0
sI41
I0
sI42
I0
sI43
I0
sI44
I0
sI45
I0
sI46
I0
sI47
I0
sI48
I0
sI49
I0
sI50
I0
sI51
I0
sI52
I0
sI53
I0
sI54
I0
sI55
I0
sI56
I0
sI57
I0
sI58
I0
sI59
I0
sI60
I0
sI61
I0
sI62
I0
sI63
I0
sI64
I0
sI65
I0
sa(dp1376
I0
I0
sI1
F0.03191919191919192
sI2
F0.08
sI3
F0.16707070707070706
sI4
F0.26282828282828286
sI5
F0.26181818181818184
sI6
F0.14545454545454545
sI7
F0.043838383838383836
sI8
F0.006666666666666667
sI9
F0.00040404040404040404
sI10
I0
sI11
I0
sI12
I0
sI13
I0
sI14
I0
sI15
I0
sI16
I0
sI17
I0
sI18
I0
sI19
I0
sI20
I0
sI21
I0
sI22
I0
sI23
I0
sI24
I0
sI25
I0
sI26
I0
sI27
I0
sI28
I0
sI29
I0
sI30
I0
sI31
I0
sI32
I0
sI33
I0
sI34
I0
sI35
I0
sI36
I0
sI37
I0
sI38
I0
sI39
I0
sI40
I0
sI41
I0
sI42
I0
sI43
I0
sI44
I0
sI45
I0
sI46
I0
sI47
I0
sI48
I0
sI49
I0
sI50
I0
sI51
I0
sI52
I0
sI53
I0
sI54
I0
sI55
I0
sI56
I0
sI57
I0
sI58
I0
sI59
I0
sI60
I0
sI61
I0
sI62
I0
sI63
I0
sI64
I0
sI65
I0
satp1377
ba(lp1378
g12
(g13
(I0
tp1379
g15
tp1380
Rp1381
((I1
(I3
tp1382
g22
I00
(lp1383
g26
ag27
ag28
atp1384
(Ntp1385
tp1386
ba(dp1387
g66
(dp1388
g68
g1348
sg69
(lp1389
(dp1390
g72
g73
(I0
I3
I1
tp1391
Rp1392
sg76
g1368
sasstp1393
bbssS'Original'
p1394
(dp1395
I0
g3
(g4
g5
Ntp1396
Rp1397
g3
(g8
g5
Ntp1398
Rp1399
((lp1400
g12
(g13
(I0
tp1401
g15
tp1402
Rp1403
((I1
(I3
tp1404
g22
I00
(lp1405
g26
ag27
ag28
atp1406
(Ntp1407
tp1408
bag12
(g13
(I0
tp1409
g15
tp1410
Rp1411
((I1
(I2
tp1412
g22
I00
(lp1413
g37
ag38
atp1414
(Ntp1415
tp1416
ba(lp1417
g12
(g43
(I0
tp1418
g15
tp1419
Rp1420
(I1
(I3
I2
tp1421
g22
I00
(lp1422
(dp1423
F0.0
F0.03
sF0.034
F0.012
sF0.1
I0
sF0.066
F0.001
sF0.011
F0.029
sF0.052
F0.001
sF0.012
F0.031
sF0.020999999999999998
F0.06
sF0.007
F0.026
sF0.03
F0.016
sF0.013999999999999999
F0.042
sF0.04
F0.007
sF0.051
F0.002
sF0.031
F0.013
sF0.013000000000000001
F0.02
sF0.033
F0.011
sF0.024
F0.008
sF0.065
F0.001
sF0.038
F0.015
sF0.087
F0.001
sF0.049
F0.001
sF0.015
F0.046
sF0.022
F0.032
sF0.034999999999999996
F0.012
sF0.009999999999999998
F0.036
sF0.166
I0
sF0.047
F0.008
sF0.333
I0
sF0.028999999999999998
F0.032
sF0.032
F0.017
sF0.018
F0.018
sF0.016999999999999998
F0.037
sF0.045
F0.004
sF0.008
F0.028
sF0.028
F0.035
sF0.016
F0.02
sF0.064
F0.001
sF0.043
F0.005
sF0.054
F0.002
sF0.057999999999999996
F0.001
sF0.041
F0.002
sF0.026
F0.033
sF0.036
F0.014
sF0.004
F0.01
sF0.005
F0.026
sF0.039
F0.008
sF0.049999999999999996
F0.001
sF0.024999999999999998
F0.039
sF0.02
F0.004
sF0.046
F0.002
sF0.009000000000000001
F0.033
sF0.003
F0.005
sF0.041999999999999996
F0.008
sF0.133
I0
sF0.044
F0.007
sF0.019
F0.076
sF0.027
F0.016
sF0.006
F0.018
sF0.023
F0.037
sF0.9999999999999999
I0
sag1423
a(dp1424
I0
I0
sI1
I0
sI2
I0
sI3
I0
sI4
I0
sI5
I0
sI6
I0
sI7
I0
sI8
F0.002
sI9
F0.001
sI10
F0.006
sI11
F0.009
sI12
F0.015
sI13
F0.027
sI14
F0.032
sI15
F0.057
sI16
F0.06
sI17
F0.075
sI18
F0.088
sI19
F0.089
sI20
F0.096
sI21
F0.088
sI22
F0.077
sI23
F0.076
sI24
F0.057
sI25
F0.037
sI26
F0.035
sI27
F0.025
sI28
F0.02
sI29
F0.015
sI30
F0.006
sI31
F0.004
sI32
F0.001
sI34
F0.001
sI35
F0.001
sag1424
a(dp1425
I0
I0
sI1
F0.020036036036036035
sI2
F0.3228768768768769
sI3
F0.655093093093093
sI4
F0.0019939939939939938
sI5
I0
sI6
I0
sI7
I0
sI8
I0
sI9
I0
sI10
I0
sI11
I0
sI12
I0
sI13
I0
sI14
I0
sI15
I0
sI16
I0
sI17
I0
sI18
I0
sI19
I0
sI20
I0
sI21
I0
sI22
I0
sI23
I0
sI24
I0
sI25
I0
sI26
I0
sI27
I0
sI28
I0
sI29
I0
sI30
I0
sI31
I0
sI32
I0
sI33
I0
sI34
I0
sI35
I0
sI36
I0
sI37
I0
sI38
I0
sI39
I0
sI40
I0
sI41
I0
sI42
I0
sI43
I0
sI44
I0
sI45
I0
sI46
I0
sI47
I0
sI48
I0
sI49
I0
sI50
I0
sI51
I0
sI52
I0
sI53
I0
sI54
I0
sI55
I0
sI56
I0
sI57
I0
sI58
I0
sI59
I0
sI60
I0
sI61
I0
sI62
I0
sI63
I0
sI64
I0
sI65
I0
sag1425
atp1426
ba(lp1427
g12
(g13
(I0
tp1428
g15
tp1429
Rp1430
((I1
(I3
tp1431
g22
I00
(lp1432
g26
ag27
ag28
atp1433
(Ntp1434
tp1435
ba(dp1436
g66
(dp1437
g68
g1400
sg69
(lp1438
(dp1439
g72
g73
(I0
I3
I1
tp1440
Rp1441
sg76
g1420
sasstp1442
bbsI1
g3
(g4
g5
Ntp1443
Rp1444
g3
(g8
g5
Ntp1445
Rp1446
((lp1447
g12
(g13
(I0
tp1448
g15
tp1449
Rp1450
((I1
(I3
tp1451
g22
I00
(lp1452
g26
ag27
ag28
atp1453
(Ntp1454
tp1455
bag12
(g13
(I0
tp1456
g15
tp1457
Rp1458
((I1
(I2
tp1459
g22
I00
(lp1460
g37
ag38
atp1461
(Ntp1462
tp1463
ba(lp1464
g12
(g43
(I0
tp1465
g15
tp1466
Rp1467
(I1
(I3
I2
tp1468
g22
I00
(lp1469
g1423
ag1423
ag1424
ag1424
ag1425
ag1425
atp1470
ba(lp1471
g12
(g13
(I0
tp1472
g15
tp1473
Rp1474
((I1
(I3
tp1475
g22
I00
(lp1476
g26
ag27
ag28
atp1477
(Ntp1478
tp1479
ba(dp1480
g66
(dp1481
g68
g1447
sg69
(lp1482
(dp1483
g72
g73
(I0
I3
I1
tp1484
Rp1485
sg76
g1467
sasstp1486
bbsI2
g3
(g4
g5
Ntp1487
Rp1488
g3
(g8
g5
Ntp1489
Rp1490
((lp1491
g12
(g13
(I0
tp1492
g15
tp1493
Rp1494
((I1
(I3
tp1495
g22
I00
(lp1496
g26
ag27
ag28
atp1497
(Ntp1498
tp1499
bag12
(g13
(I0
tp1500
g15
tp1501
Rp1502
((I1
(I2
tp1503
g22
I00
(lp1504
g37
ag38
atp1505
(Ntp1506
tp1507
ba(lp1508
g12
(g43
(I0
tp1509
g15
tp1510
Rp1511
(I1
(I3
I2
tp1512
g22
I00
(lp1513
g1423
ag1423
ag1424
ag1424
ag1425
ag1425
atp1514
ba(lp1515
g12
(g13
(I0
tp1516
g15
tp1517
Rp1518
((I1
(I3
tp1519
g22
I00
(lp1520
g26
ag27
ag28
atp1521
(Ntp1522
tp1523
ba(dp1524
g66
(dp1525
g68
g1491
sg69
(lp1526
(dp1527
g72
g73
(I0
I3
I1
tp1528
Rp1529
sg76
g1511
sasstp1530
bbss.