(dp0
I0
(dp1
S'clustering coefficient'
p2
(dp3
S'Backend Query'
p4
(dp5
F0.191
F0.02
sF0.132
F0.01
sF0.154
F0.01
sF0.088
F0.02
sF0.099
F0.01
sF0.055
F0.01
sF0.121
F0.01
sF0.139
F0.02
sF0.09
F0.01
sF0.183
F0.02
sF0.146
F0.01
sF0.19
F0.01
sF0.106
F0.01
sF0.11699999999999999
F0.01
sF0.131
F0.01
sF0.175
F0.01
sF0.082
F0.01
sF0.069
F0.01
sF0.04
F0.01
sF0.091
F0.02
sF0.102
F0.02
sF0.052
F0.01
sF0.066
F0.02
sF0.13
F0.01
sF0.076
F0.02
sF0.087
F0.01
sF0.098
F0.02
sF0.03
F0.01
sF0.137
F0.01
sF0.159
F0.01
sF0.181
F0.01
sF0.036
F0.02
sF0.094
F0.01
sF0.105
F0.04
sF0.057999999999999996
F0.01
sF0.11
F0.02
sF0.198
F0.01
sF0.158
F0.01
sF0.054
F0.01
sF0.10099999999999999
F0.01
sF0.112
F0.01
sF0.123
F0.02
sF0.032
F0.01
sF0.016
F0.01
sF0.15
F0.02
sF0.108
F0.02
sF0.063
F0.02
sF0.134
F0.01
sF0.116
F0.02
sF0.039
F0.01
sF0.104
F0.03
sF0.115
F0.01
sF0.064
F0.01
sF0.17099999999999999
F0.01
sF0.047
F0.01
sF0.067
F0.01
sF0.078
F0.01
sF0.089
F0.01
sF0.1
F0.03
sF0.111
F0.02
sF0.163
F0.01
sF0.222
F0.01
sF0.073
F0.01
sF0.126
F0.01
sF0.08499999999999999
F0.01
sF0.065
F0.01
sF0.236
F0.01
sF0.152
F0.03
sF0.095
F0.02
sF0.034999999999999996
F0.01
sF0.046
F0.01
sF0.057
F0.02
ssS'Frontend Query'
p6
(dp7
F0.0
F1.0
sssS'path length'
p8
(dp9
g4
(dp10
I1
F0.020404040404040404
sI2
F0.258989898989899
sI3
F0.7145454545454546
sI4
F0.006060606060606061
ssg6
(dp11
I0
I1
sssS'degree'
p12
(dp13
g4
(dp14
I15
F0.02
sI16
F0.09
sI17
F0.1
sI18
F0.14
sI19
F0.17
sI20
F0.15
sI21
F0.11
sI22
F0.1
sI23
F0.05
sI24
F0.03
sI26
F0.01
sI27
F0.01
sI28
F0.02
ssg6
(dp15
I0
F1.0
ssssI1
(dp16
g2
(dp17
g4
(dp18
F0.125
F0.01
sF0.147
F0.01
sF0.169
F0.02
sF0.132
F0.01
sF0.176
F0.01
sF0.099
F0.02
sF0.11
F0.03
sF0.121
F0.01
sF0.139
F0.01
sF0.183
F0.01
sF0.152
F0.01
sF0.073
F0.03
sF0.041999999999999996
F0.01
sF0.095
F0.05
sF0.11699999999999999
F0.01
sF0.082
F0.01
sF0.153
F0.01
sF0.08
F0.01
sF0.091
F0.01
sF0.051
F0.01
sF0.031
F0.01
sF0.104
F0.01
sF0.066
F0.04
sF0.13
F0.01
sF0.076
F0.03
sF0.087
F0.02
sF0.098
F0.02
sF0.109
F0.01
sF0.06
F0.02
sF0.137
F0.01
sF0.166
F0.01
sF0.094
F0.03
sF0.105
F0.03
sF0.116
F0.01
sF0.129
F0.01
sF0.155
F0.01
sF0.068
F0.02
sF0.102
F0.01
sF0.112
F0.01
sF0.123
F0.01
sF0.143
F0.01
sF0.064
F0.01
sF0.086
F0.01
sF0.108
F0.01
sF0.067
F0.01
sF0.057999999999999996
F0.02
sF0.142
F0.02
sF0.039
F0.01
sF0.093
F0.01
sF0.124
F0.01
sF0.115
F0.01
sF0.06999999999999999
F0.01
sF0.134
F0.02
sF0.078
F0.01
sF0.1
F0.05
sF0.141
F0.01
sF0.163
F0.01
sF0.063
F0.01
sF0.08499999999999999
F0.01
sF0.192
F0.01
sF0.114
F0.03
sF0.019
F0.01
sF0.19
F0.02
sF0.034999999999999996
F0.01
sF0.081
F0.01
sF0.046
F0.01
sF0.057
F0.01
ssg6
(dp19
F0.0
F1.0
sssg8
(dp20
g4
(dp21
I1
F0.021414141414141413
sI2
F0.26666666666666666
sI3
F0.7076767676767677
sI4
F0.004242424242424243
ssg6
(dp22
I0
I1
sssg12
(dp23
g4
(dp24
I14
F0.02
sI15
F0.04
sI16
F0.05
sI17
F0.1
sI18
F0.12
sI19
F0.13
sI20
F0.13
sI21
F0.14
sI22
F0.13
sI23
F0.05
sI24
F0.05
sI25
F0.02
sI26
F0.01
sI31
F0.01
ssg6
(dp25
I0
F1.0
ssssI2
(dp26
g2
(dp27
g4
(dp28
F0.125
F0.02
sF0.136
F0.01
sF0.169
F0.02
sF0.066
F0.01
sF0.079
F0.01
sF0.044
F0.01
sF0.11
F0.05
sF0.161
F0.02
sF0.183
F0.01
sF0.073
F0.06
sF0.084
F0.01
sF0.095
F0.03
sF0.131
F0.03
sF0.069
F0.01
sF0.08
F0.04
sF0.091
F0.02
sF0.132
F0.02
sF0.065
F0.01
sF0.152
F0.01
sF0.098
F0.02
sF0.109
F0.01
sF0.137
F0.02
sF0.181
F0.01
sF0.094
F0.02
sF0.057999999999999996
F0.03
sF0.129
F0.01
sF0.173
F0.01
sF0.068
F0.03
sF0.158
F0.01
sF0.10099999999999999
F0.01
sF0.123
F0.03
sF0.143
F0.01
sF0.064
F0.02
sF0.15
F0.03
sF0.086
F0.01
sF0.108
F0.01
sF0.157
F0.02
sF0.142
F0.01
sF0.1
F0.02
sF0.093
F0.01
sF0.104
F0.02
sF0.17099999999999999
F0.01
sF0.047
F0.01
sF0.134
F0.02
sF0.039
F0.01
sF0.089
F0.03
sF0.024999999999999998
F0.01
sF0.111
F0.01
sF0.061
F0.01
sF0.141
F0.01
sF0.146
F0.01
sF0.063
F0.01
sF0.08499999999999999
F0.01
sF0.059
F0.01
sF0.011
F0.01
sF0.076
F0.01
sF0.081
F0.01
sF0.103
F0.02
sF0.057
F0.02
ssg6
(dp29
F0.0
F1.0
sssg8
(dp30
g4
(dp31
I1
F0.021616161616161617
sI2
F0.26585858585858585
sI3
F0.7072727272727273
sI4
F0.0052525252525252525
ssg6
(dp32
I0
I1
sssg12
(dp33
g4
(dp34
I15
F0.03
sI16
F0.06
sI17
F0.07
sI18
F0.13
sI19
F0.07
sI20
F0.22
sI21
F0.15
sI22
F0.11
sI23
F0.06
sI24
F0.01
sI25
F0.06
sI26
F0.02
sI28
F0.01
ssg6
(dp35
I0
F1.0
ssss.