(dp0
I0
(dp1
S'clustering coefficient'
p2
(dp3
S'Backend Query'
p4
(dp5
F0.0
F0.67
sF0.066
F0.02
sF0.095
F0.02
sF0.106
F0.01
sF0.051
F0.02
sF0.29
F0.01
sF0.038
F0.01
sF0.087
F0.01
sF0.109
F0.01
sF0.009000000000000001
F0.01
sF0.166
F0.02
sF0.047
F0.01
sF0.016999999999999998
F0.01
sF0.045
F0.01
sF0.008
F0.01
sF0.007
F0.01
sF0.004
F0.01
sF0.3
F0.01
sF0.06999999999999999
F0.01
sF0.2
F0.01
sF0.1
F0.05
sF0.333
F0.04
sF0.034999999999999996
F0.01
ssS'Frontend Query'
p6
(dp7
F0.0
F1.0
sssS'path length'
p8
(dp9
g4
(dp10
I1
F0.023636363636363636
sI2
F0.05696969696969697
sI3
F0.12383838383838384
sI4
F0.201010101010101
sI5
F0.22565656565656567
sI6
F0.17575757575757575
sI7
F0.09919191919191919
sI8
F0.046464646464646465
sI9
F0.02282828282828283
sI10
F0.013737373737373737
sI11
F0.006868686868686869
sI12
F0.0032323232323232323
sI13
F0.0008080808080808081
ssg6
(dp11
I1
F0.020404040404040404
sI2
F0.03434343434343434
sI3
F0.05070707070707071
sI4
F0.0707070707070707
sI5
F0.08868686868686869
sI6
F0.09595959595959595
sI7
F0.09676767676767677
sI8
F0.09373737373737374
sI9
F0.09090909090909091
sI10
F0.08444444444444445
sI11
F0.07454545454545454
sI12
F0.06202020202020202
sI13
F0.04606060606060606
sI14
F0.03272727272727273
sI15
F0.023434343434343436
sI16
F0.015353535353535354
sI17
F0.010101010101010102
sI18
F0.005454545454545455
sI19
F0.0024242424242424242
sI20
F0.00101010101010101
sI21
F0.00020202020202020202
sssS'degree'
p12
(dp13
g4
(dp14
I1
F0.14
sI2
F0.13
sI3
F0.14
sI4
F0.1
sI5
F0.13
sI6
F0.07
sI7
F0.05
sI8
F0.01
sI11
F0.03
sI12
F0.01
sI13
F0.03
sI15
F0.01
sI16
F0.01
sI18
F0.02
sI19
F0.01
sI20
F0.01
sI21
F0.02
sI23
F0.01
sI25
F0.01
sI27
F0.01
sI29
F0.02
sI30
F0.01
sI38
F0.01
sI56
F0.01
ssg6
(dp15
I1
F0.27
sI2
F0.6
sI3
F0.07
sI4
F0.02
sI5
F0.02
sI7
F0.01
sI9
F0.01
ssssI1
(dp16
g2
(dp17
g4
(dp18
F0.0
F0.6764705882352942
sF0.066
F0.00980392156862745
sF0.055
F0.00980392156862745
sF0.666
F0.00980392156862745
sF0.051
F0.00980392156862745
sF0.29
F0.00980392156862745
sF0.038
F0.0196078431372549
sF0.06
F0.00980392156862745
sF0.018
F0.00980392156862745
sF0.166
F0.0196078431372549
sF0.047
F0.0196078431372549
sF0.008
F0.00980392156862745
sF0.007
F0.00980392156862745
sF0.004
F0.00980392156862745
sF0.1
F0.0196078431372549
sF0.054
F0.00980392156862745
sF0.238
F0.00980392156862745
sF0.2
F0.029411764705882353
sF0.4
F0.00980392156862745
sF0.333
F0.029411764705882353
sF0.266
F0.00980392156862745
sF0.177
F0.00980392156862745
sF0.034999999999999996
F0.0196078431372549
sF0.9999999999999999
F0.0196078431372549
ssg6
(dp19
F0.0
F1.0
sssg8
(dp20
g4
(dp21
I1
F0.020966802562609202
sI2
F0.0401863715783343
sI3
F0.09299165210638712
sI4
F0.1712288875946418
sI5
F0.20442632498543972
sI6
F0.1850126189089497
sI7
F0.1347311201708406
sI8
F0.07979033197437391
sI9
F0.041933605125218404
sI10
F0.018831294894195303
sI11
F0.007183071248301301
sI12
F0.0025237817899437004
sI13
F0.00019413706076490002
ssg6
(dp22
I1
F0.05186385737439222
sI2
F0.06050783360345759
sI3
F0.07023230686115613
sI4
F0.07995678011885467
sI5
F0.09076175040518639
sI6
F0.0940032414910859
sI7
F0.097784981091302
sI8
F0.09724473257698542
sI9
F0.08914100486223663
sI10
F0.07725553754727174
sI11
F0.06266882766072393
sI12
F0.045921123716909776
sI13
F0.03457590491626148
sI14
F0.02377093462992977
sI15
F0.012965964343598054
sI16
F0.007023230686115613
sI17
F0.0032414910858995136
sI18
F0.0010804970286331713
sssg12
(dp23
g4
(dp24
I1
F0.10784313725490197
sI2
F0.13725490196078433
sI3
F0.19607843137254902
sI4
F0.0784313725490196
sI5
F0.09803921568627451
sI6
F0.10784313725490197
sI7
F0.0392156862745098
sI8
F0.029411764705882353
sI9
F0.0196078431372549
sI10
F0.00980392156862745
sI11
F0.058823529411764705
sI12
F0.0196078431372549
sI13
F0.0196078431372549
sI38
F0.00980392156862745
sI15
F0.00980392156862745
sI21
F0.00980392156862745
sI23
F0.00980392156862745
sI25
F0.00980392156862745
sI27
F0.00980392156862745
sI29
F0.00980392156862745
sI30
F0.00980392156862745
ssg6
(dp25
I1
F0.2549019607843137
sI2
F0.6568627450980392
sI3
F0.058823529411764705
sI4
F0.0196078431372549
sI6
F0.00980392156862745
ssssI2
(dp26
g2
(dp27
g4
(dp28
F0.0
F0.6952380952380952
sF0.066
F0.009523809523809525
sF0.020999999999999998
F0.009523809523809525
sF0.095
F0.01904761904761905
sF0.106
F0.009523809523809525
sF0.051
F0.009523809523809525
sF0.29
F0.009523809523809525
sF0.038
F0.009523809523809525
sF0.087
F0.009523809523809525
sF0.109
F0.009523809523809525
sF0.181
F0.009523809523809525
sF0.009000000000000001
F0.009523809523809525
sF0.166
F0.01904761904761905
sF0.047
F0.009523809523809525
sF0.133
F0.009523809523809525
sF0.016999999999999998
F0.009523809523809525
sF0.045
F0.009523809523809525
sF0.008
F0.009523809523809525
sF0.007
F0.009523809523809525
sF0.004
F0.009523809523809525
sF0.3
F0.009523809523809525
sF0.4
F0.009523809523809525
sF0.1
F0.009523809523809525
sF0.2
F0.01904761904761905
sF0.141
F0.009523809523809525
sF0.333
F0.02857142857142857
sF0.266
F0.009523809523809525
sF0.9999999999999999
F0.009523809523809525
ssg6
(dp29
F0.0
F1.0
sssg8
(dp30
g4
(dp31
I1
F0.023076923076923078
sI2
F0.05036630036630037
sI3
F0.10567765567765568
sI4
F0.18205128205128204
sI5
F0.21208791208791208
sI6
F0.16703296703296702
sI7
F0.09963369963369964
sI8
F0.05989010989010989
sI9
F0.039377289377289376
sI10
F0.028205128205128206
sI11
F0.018131868131868133
sI12
F0.008791208791208791
sI13
F0.0032967032967032967
sI14
F0.001098901098901099
sI15
F0.0007326007326007326
sI16
F0.0003663003663003663
sI17
F0.00018315018315018315
ssg6
(dp32
I1
F0.04450261780104712
sI2
F0.058900523560209424
sI3
F0.06893542757417102
sI4
F0.08726003490401396
sI5
F0.09467713787085515
sI6
F0.09816753926701571
sI7
F0.09205933682373472
sI8
F0.0780977312390925
sI9
F0.062390924956369984
sI10
F0.054537521815008726
sI11
F0.04712041884816754
sI12
F0.04144851657940663
sI13
F0.03795811518324607
sI14
F0.031413612565445025
sI15
F0.027050610820244327
sI16
F0.02268760907504363
sI17
F0.017452006980802792
sI18
F0.012216404886561954
sI19
F0.008289703315881327
sI20
F0.005671902268760907
sI21
F0.003926701570680628
sI22
F0.002617801047120419
sI23
F0.0013089005235602095
sI24
F0.0008726003490401396
sI25
F0.0004363001745200698
sssg12
(dp33
g4
(dp34
I1
F0.1619047619047619
sI2
F0.1523809523809524
sI3
F0.08571428571428572
sI4
F0.09523809523809523
sI5
F0.0761904761904762
sI6
F0.08571428571428572
sI7
F0.06666666666666667
sI9
F0.01904761904761905
sI10
F0.009523809523809525
sI11
F0.047619047619047616
sI12
F0.01904761904761905
sI13
F0.02857142857142857
sI14
F0.01904761904761905
sI15
F0.009523809523809525
sI16
F0.009523809523809525
sI19
F0.009523809523809525
sI20
F0.009523809523809525
sI21
F0.01904761904761905
sI23
F0.009523809523809525
sI25
F0.009523809523809525
sI27
F0.009523809523809525
sI29
F0.01904761904761905
sI30
F0.009523809523809525
sI38
F0.009523809523809525
sI56
F0.009523809523809525
ssg6
(dp35
I1
F0.24761904761904763
sI2
F0.6571428571428571
sI3
F0.047619047619047616
sI4
F0.009523809523809525
sI5
F0.02857142857142857
sI6
F0.009523809523809525
ssss.