(dp0
I0
(dp1
S'clustering coefficient'
p2
(dp3
S'Backend Query'
p4
(dp5
F0.147
F0.019801980198019802
sF0.169
F0.019801980198019802
sF0.191
F0.009900990099009901
sF0.132
F0.009900990099009901
sF0.077
F0.009900990099009901
sF0.176
F0.009900990099009901
sF0.099
F0.019801980198019802
sF0.121
F0.0297029702970297
sF0.09
F0.009900990099009901
sF0.142
F0.019801980198019802
sF0.073
F0.009900990099009901
sF0.041999999999999996
F0.009900990099009901
sF0.095
F0.039603960396039604
sF0.106
F0.009900990099009901
sF0.131
F0.009900990099009901
sF0.219
F0.009900990099009901
sF0.138
F0.009900990099009901
sF0.091
F0.009900990099009901
sF0.051
F0.009900990099009901
sF0.113
F0.009900990099009901
sF0.104
F0.009900990099009901
sF0.066
F0.039603960396039604
sF0.076
F0.039603960396039604
sF0.13
F0.009900990099009901
sF0.038
F0.009900990099009901
sF0.087
F0.0297029702970297
sF0.098
F0.0297029702970297
sF0.109
F0.009900990099009901
sF0.12
F0.009900990099009901
sF0.181
F0.009900990099009901
sF0.094
F0.019801980198019802
sF0.105
F0.019801980198019802
sF0.057999999999999996
F0.019801980198019802
sF0.173
F0.009900990099009901
sF0.068
F0.009900990099009901
sF0.102
F0.009900990099009901
sF0.045
F0.009900990099009901
sF0.128
F0.009900990099009901
sF0.112
F0.019801980198019802
sF0.064
F0.019801980198019802
sF0.075
F0.009900990099009901
sF0.086
F0.019801980198019802
sF0.108
F0.019801980198019802
sF0.089
F0.009900990099009901
sF0.065
F0.019801980198019802
sF0.071
F0.019801980198019802
sF0.082
F0.009900990099009901
sF0.052
F0.019801980198019802
sF0.115
F0.009900990099009901
sF0.17099999999999999
F0.019801980198019802
sF0.047
F0.009900990099009901
sF0.134
F0.009900990099009901
sF0.078
F0.019801980198019802
sF0.049999999999999996
F0.009900990099009901
sF0.1
F0.0297029702970297
sF0.222
F0.009900990099009901
sF0.122
F0.019801980198019802
sF0.126
F0.019801980198019802
sF0.061
F0.009900990099009901
sF0.057
F0.019801980198019802
sF0.152
F0.009900990099009901
sF0.081
F0.019801980198019802
sF0.046
F0.009900990099009901
sF0.114
F0.009900990099009901
ssS'Frontend Query'
p6
(dp7
F0.0
F1.0
sssS'path length'
p8
(dp9
g4
(dp10
I1
F0.03188118811881188
sI2
F0.2803960396039604
sI3
F0.6833663366336634
sI4
F0.004356435643564357
ssg6
(dp11
I1
F0.39086294416243655
sI2
F0.30456852791878175
sI3
F0.17766497461928935
sI4
F0.07614213197969544
sI5
F0.04060913705583756
sI6
F0.01015228426395939
sssS'degree'
p12
(dp13
g4
(dp14
I13
F0.009900990099009901
sI15
F0.019801980198019802
sI16
F0.039603960396039604
sI17
F0.019801980198019802
sI18
F0.0891089108910891
sI19
F0.1485148514851485
sI20
F0.09900990099009901
sI21
F0.1782178217821782
sI22
F0.12871287128712872
sI23
F0.10891089108910891
sI24
F0.07920792079207921
sI25
F0.019801980198019802
sI26
F0.0297029702970297
sI27
F0.019801980198019802
sI28
F0.009900990099009901
ssg6
(dp15
I1
F0.5346534653465347
sI2
F0.4158415841584158
sI3
F0.039603960396039604
sI4
F0.009900990099009901
ssssI1
(dp16
g2
(dp17
g4
(dp18
F0.147
F0.03
sF0.066
F0.02
sF0.099
F0.02
sF0.11
F0.02
sF0.121
F0.02
sF0.161
F0.01
sF0.142
F0.02
sF0.146
F0.01
sF0.084
F0.01
sF0.095
F0.02
sF0.11699999999999999
F0.01
sF0.131
F0.02
sF0.08
F0.02
sF0.091
F0.01
sF0.051
F0.04
sF0.228
F0.01
sF0.124
F0.02
sF0.132
F0.02
sF0.192
F0.01
sF0.13
F0.03
sF0.076
F0.03
sF0.087
F0.02
sF0.098
F0.01
sF0.109
F0.01
sF0.137
F0.01
sF0.036
F0.01
sF0.166
F0.01
sF0.047
F0.02
sF0.105
F0.01
sF0.057999999999999996
F0.03
sF0.049999999999999996
F0.01
sF0.068
F0.01
sF0.09
F0.01
sF0.016
F0.01
sF0.123
F0.02
sF0.078
F0.01
sF0.128
F0.02
sF0.075
F0.02
sF0.062
F0.01
sF0.216
F0.01
sF0.116
F0.01
sF0.071
F0.01
sF0.041
F0.01
sF0.104
F0.03
sF0.115
F0.01
sF0.089
F0.02
sF0.094
F0.02
sF0.067
F0.01
sF0.156
F0.01
sF0.024999999999999998
F0.01
sF0.1
F0.03
sF0.111
F0.01
sF0.061
F0.02
sF0.163
F0.01
sF0.126
F0.02
sF0.122
F0.04
sF0.118
F0.01
sF0.114
F0.01
sF0.019
F0.01
sF0.19
F0.01
sF0.06999999999999999
F0.01
sF0.046
F0.01
sF0.057
F0.01
ssg6
(dp19
F0.0
F1.0
sssg8
(dp20
g4
(dp21
I1
F0.032525252525252527
sI2
F0.2781818181818182
sI3
F0.6856565656565656
sI4
F0.0036363636363636364
ssg6
(dp22
I1
F0.4601226993865031
sI2
F0.3128834355828221
sI3
F0.1656441717791411
sI4
F0.03680981595092025
sI5
F0.018404907975460124
sI6
F0.006134969325153374
sssg12
(dp23
g4
(dp24
I14
F0.02
sI15
F0.02
sI16
F0.07
sI17
F0.06
sI18
F0.14
sI19
F0.18
sI20
F0.17
sI21
F0.12
sI22
F0.08
sI23
F0.09
sI24
F0.02
sI25
F0.02
sI27
F0.01
ssg6
(dp25
I1
F0.51
sI2
F0.48
sI3
F0.01
ssssI2
(dp26
g2
(dp27
g4
(dp28
F0.147
F0.02
sF0.176
F0.01
sF0.099
F0.02
sF0.11
F0.05
sF0.139
F0.01
sF0.161
F0.01
sF0.026
F0.01
sF0.09
F0.01
sF0.073
F0.09
sF0.095
F0.03
sF0.131
F0.01
sF0.138
F0.02
sF0.08
F0.02
sF0.051
F0.02
sF0.124
F0.01
sF0.052
F0.03
sF0.065
F0.01
sF0.038
F0.01
sF0.087
F0.01
sF0.098
F0.01
sF0.057
F0.01
sF0.06
F0.01
sF0.137
F0.01
sF0.072
F0.01
sF0.094
F0.01
sF0.105
F0.02
sF0.057999999999999996
F0.02
sF0.216
F0.01
sF0.173
F0.02
sF0.055
F0.02
sF0.068
F0.01
sF0.079
F0.01
sF0.18
F0.01
sF0.123
F0.02
sF0.143
F0.01
sF0.128
F0.03
sF0.108
F0.01
sF0.119
F0.01
sF0.157
F0.01
sF0.116
F0.01
sF0.142
F0.03
sF0.082
F0.02
sF0.093
F0.02
sF0.104
F0.01
sF0.047
F0.01
sF0.134
F0.01
sF0.078
F0.03
sF0.089
F0.01
sF0.1
F0.02
sF0.222
F0.01
sF0.122
F0.01
sF0.163
F0.01
sF0.111
F0.01
sF0.146
F0.01
sF0.063
F0.01
sF0.061
F0.02
sF0.118
F0.01
sF0.133
F0.01
sF0.155
F0.01
sF0.152
F0.01
sF0.027
F0.01
sF0.081
F0.01
sF0.114
F0.02
ssg6
(dp29
F0.0
F1.0
sssg8
(dp30
g4
(dp31
I1
F0.03313131313131313
sI2
F0.2705050505050505
sI3
F0.6915151515151515
sI4
F0.0048484848484848485
ssg6
(dp32
I1
F0.41304347826086957
sI2
F0.30434782608695654
sI3
F0.17391304347826086
sI4
F0.059782608695652176
sI5
F0.03260869565217391
sI6
F0.010869565217391304
sI7
F0.005434782608695652
sssg12
(dp33
g4
(dp34
I13
F0.01
sI14
F0.01
sI15
F0.01
sI16
F0.02
sI17
F0.08
sI18
F0.08
sI19
F0.13
sI20
F0.19
sI21
F0.13
sI22
F0.17
sI23
F0.08
sI24
F0.05
sI25
F0.02
sI26
F0.01
sI28
F0.01
ssg6
(dp35
I1
F0.52
sI2
F0.44
sI3
F0.04
ssss.