(dp0
I0
(dp1
S'clustering coefficient'
p2
(dp3
S'Backend Query'
p4
(dp5
F0.0
F0.019801980198019802
sF0.033
F0.009900990099009901
sF0.022
F0.0297029702970297
sF0.020999999999999998
F0.09900990099009901
sF0.007
F0.039603960396039604
sF0.015
F0.0297029702970297
sF0.028
F0.0594059405940594
sF0.005
F0.009900990099009901
sF0.026
F0.0297029702970297
sF0.003
F0.009900990099009901
sF0.019
F0.0891089108910891
sF0.03
F0.019801980198019802
sF0.011
F0.039603960396039604
sF0.018
F0.019801980198019802
sF0.028999999999999998
F0.019801980198019802
sF0.036
F0.009900990099009901
sF0.016999999999999998
F0.019801980198019802
sF0.064
F0.009900990099009901
sF0.013999999999999999
F0.07920792079207921
sF0.008
F0.039603960396039604
sF0.016
F0.009900990099009901
sF0.027
F0.009900990099009901
sF0.009999999999999998
F0.06930693069306931
sF0.041
F0.009900990099009901
sF0.013000000000000001
F0.019801980198019802
sF0.004
F0.009900990099009901
sF0.02
F0.009900990099009901
sF0.049999999999999996
F0.009900990099009901
sF0.024999999999999998
F0.019801980198019802
sF0.009000000000000001
F0.0297029702970297
sF0.006
F0.009900990099009901
sF0.038
F0.009900990099009901
sF0.034999999999999996
F0.019801980198019802
sF0.012
F0.019801980198019802
sF0.023
F0.0594059405940594
ssS'Frontend Query'
p6
(dp7
F0.0
F1.0
sssS'path length'
p8
(dp9
g4
(dp10
I1
F0.029504950495049503
sI2
F0.3211881188118812
sI3
F0.6483168316831683
sI4
F0.0009900990099009901
ssg6
(dp11
I1
F0.206266318537859
sI2
F0.1906005221932115
sI3
F0.15926892950391644
sI4
F0.13577023498694518
sI5
F0.13315926892950392
sI6
F0.08877284595300261
sI7
F0.05483028720626632
sI8
F0.02610966057441253
sI9
F0.005221932114882507
sssS'degree'
p12
(dp13
g4
(dp14
I10
F0.019801980198019802
sI12
F0.009900990099009901
sI13
F0.0297029702970297
sI14
F0.019801980198019802
sI15
F0.06930693069306931
sI16
F0.04950495049504951
sI17
F0.07920792079207921
sI18
F0.0594059405940594
sI19
F0.07920792079207921
sI20
F0.09900990099009901
sI21
F0.06930693069306931
sI22
F0.0891089108910891
sI23
F0.07920792079207921
sI24
F0.09900990099009901
sI25
F0.039603960396039604
sI26
F0.019801980198019802
sI27
F0.0297029702970297
sI28
F0.039603960396039604
sI29
F0.009900990099009901
sI30
F0.009900990099009901
ssg6
(dp15
I1
F0.5247524752475248
sI2
F0.42574257425742573
sI3
F0.0297029702970297
sI4
F0.009900990099009901
sI6
F0.009900990099009901
ssssI1
(dp16
g2
(dp17
g4
(dp18
F0.0
F0.058823529411764705
sF0.034
F0.029411764705882353
sF0.011
F0.0392156862745098
sF0.020999999999999998
F0.09803921568627451
sF0.03
F0.029411764705882353
sF0.028
F0.0392156862745098
sF0.009999999999999998
F0.0392156862745098
sF0.031
F0.00980392156862745
sF0.026
F0.0196078431372549
sF0.006
F0.00980392156862745
sF0.019
F0.10784313725490197
sF0.015
F0.049019607843137254
sF0.022
F0.058823529411764705
sF0.04
F0.00980392156862745
sF0.047
F0.00980392156862745
sF0.028999999999999998
F0.00980392156862745
sF0.036
F0.00980392156862745
sF0.016999999999999998
F0.0196078431372549
sF0.016
F0.0196078431372549
sF0.007
F0.0392156862745098
sF0.004
F0.0196078431372549
sF0.032
F0.029411764705882353
sF0.041
F0.00980392156862745
sF0.013000000000000001
F0.00980392156862745
sF0.018
F0.00980392156862745
sF0.005
F0.0196078431372549
sF0.024999999999999998
F0.0196078431372549
sF0.009000000000000001
F0.049019607843137254
sF0.012
F0.0392156862745098
sF0.044
F0.0196078431372549
sF0.034999999999999996
F0.00980392156862745
sF0.023
F0.049019607843137254
sF0.008
F0.00980392156862745
ssg6
(dp19
F0.0
F1.0
sssg8
(dp20
g4
(dp21
I1
F0.0328091632692681
sI2
F0.32906231799650554
sI3
F0.6359930110658125
sI4
F0.0021355076684139
ssg6
(dp22
I1
F0.25483870967741934
sI2
F0.2064516129032258
sI3
F0.13870967741935483
sI4
F0.07419354838709677
sI5
F0.06451612903225806
sI6
F0.06129032258064516
sI7
F0.04838709677419355
sI8
F0.03870967741935484
sI9
F0.035483870967741936
sI10
F0.035483870967741936
sI11
F0.025806451612903226
sI12
F0.012903225806451613
sI13
F0.0032258064516129032
sssg12
(dp23
g4
(dp24
I10
F0.00980392156862745
sI12
F0.029411764705882353
sI13
F0.029411764705882353
sI14
F0.0392156862745098
sI15
F0.049019607843137254
sI16
F0.0392156862745098
sI17
F0.0784313725490196
sI18
F0.058823529411764705
sI19
F0.09803921568627451
sI20
F0.09803921568627451
sI21
F0.09803921568627451
sI22
F0.08823529411764706
sI23
F0.0784313725490196
sI24
F0.0196078431372549
sI25
F0.0392156862745098
sI26
F0.049019607843137254
sI27
F0.0196078431372549
sI28
F0.0196078431372549
sI29
F0.049019607843137254
sI30
F0.00980392156862745
ssg6
(dp25
I1
F0.5196078431372549
sI2
F0.4215686274509804
sI3
F0.049019607843137254
sI4
F0.00980392156862745
ssssI2
(dp26
g2
(dp27
g4
(dp28
F0.0
F0.02
sF0.034
F0.02
sF0.033
F0.03
sF0.011
F0.04
sF0.020999999999999998
F0.05
sF0.028
F0.01
sF0.03
F0.01
sF0.007
F0.02
sF0.04
F0.02
sF0.013000000000000001
F0.02
sF0.012
F0.05
sF0.019
F0.08
sF0.015
F0.06
sF0.022
F0.04
sF0.009000000000000001
F0.03
sF0.047
F0.02
sF0.028999999999999998
F0.02
sF0.036
F0.01
sF0.016999999999999998
F0.07
sF0.008
F0.01
sF0.013999999999999999
F0.04
sF0.016
F0.05
sF0.032
F0.03
sF0.043
F0.01
sF0.027
F0.01
sF0.009999999999999998
F0.06
sF0.026
F0.02
sF0.018
F0.01
sF0.004
F0.01
sF0.02
F0.01
sF0.039
F0.01
sF0.049999999999999996
F0.01
sF0.024999999999999998
F0.02
sF0.005
F0.01
sF0.024
F0.03
sF0.041999999999999996
F0.01
sF0.006
F0.01
sF0.023
F0.02
ssg6
(dp29
F0.0
F1.0
sssg8
(dp30
g4
(dp31
I1
F0.03393939393939394
sI2
F0.34363636363636363
sI3
F0.621010101010101
sI4
F0.0014141414141414141
ssg6
(dp32
I1
F0.4805194805194805
sI2
F0.3246753246753247
sI3
F0.15584415584415584
sI4
F0.032467532467532464
sI5
F0.006493506493506494
sssg12
(dp33
g4
(dp34
I35
F0.01
sI8
F0.01
sI12
F0.01
sI13
F0.01
sI14
F0.02
sI15
F0.03
sI16
F0.07
sI17
F0.07
sI18
F0.08
sI19
F0.12
sI20
F0.11
sI21
F0.05
sI22
F0.05
sI23
F0.04
sI24
F0.11
sI25
F0.06
sI26
F0.05
sI27
F0.02
sI28
F0.03
sI29
F0.02
sI30
F0.03
ssg6
(dp35
I1
F0.54
sI2
F0.44
sI3
F0.02
ssss.