(dp0
I0
(dp1
S'clustering coefficient'
p2
(dp3
S'Backend Query'
p4
(dp5
F0.0
F0.6
sF0.051
F0.01
sF0.045
F0.01
sF0.181
F0.01
sF0.2
F0.05
sF0.111
F0.01
sF0.038
F0.01
sF0.004
F0.01
sF0.3
F0.01
sF0.666
F0.04
sF0.194
F0.01
sF0.333
F0.06
sF0.071
F0.01
sF0.095
F0.01
sF0.06
F0.01
sF0.166
F0.01
sF0.142
F0.02
sF0.133
F0.01
sF0.06999999999999999
F0.01
sF0.9999999999999999
F0.08
sF0.009000000000000001
F0.01
ssS'Frontend Query'
p6
(dp7
F0.0
F0.85
sF0.5
F0.01
sF0.083
F0.01
sF0.2
F0.01
sF0.3
F0.01
sF0.333
F0.02
sF0.166
F0.01
sF0.034999999999999996
F0.01
sF0.9999999999999999
F0.07
sssS'path length'
p8
(dp9
g4
(dp10
I1
F0.02808080808080808
sI2
F0.06727272727272728
sI3
F0.09414141414141414
sI4
F0.11656565656565657
sI5
F0.1412121212121212
sI6
F0.15696969696969698
sI7
F0.14909090909090908
sI8
F0.08787878787878788
sI9
F0.04787878787878788
sI10
F0.037575757575757575
sI11
F0.039191919191919194
sI12
F0.026868686868686868
sI13
F0.006464646464646465
sI14
F0.0008080808080808081
ssg6
(dp11
I1
F0.02282828282828283
sI2
F0.046464646464646465
sI3
F0.05131313131313131
sI4
F0.055757575757575756
sI5
F0.05292929292929293
sI6
F0.047474747474747475
sI7
F0.049494949494949494
sI8
F0.0503030303030303
sI9
F0.043838383838383836
sI10
F0.0496969696969697
sI11
F0.05858585858585859
sI12
F0.06303030303030303
sI13
F0.06565656565656566
sI14
F0.05757575757575758
sI15
F0.04626262626262626
sI16
F0.03494949494949495
sI17
F0.030505050505050504
sI18
F0.025656565656565655
sI19
F0.02909090909090909
sI20
F0.026868686868686868
sI21
F0.021414141414141413
sI22
F0.022222222222222223
sI23
F0.022222222222222223
sI24
F0.01595959595959596
sI25
F0.007272727272727273
sI26
F0.0022222222222222222
sI27
F0.00040404040404040404
sssS'degree'
p12
(dp13
g4
(dp14
I1
F0.24
sI2
F0.13
sI3
F0.17
sI4
F0.08
sI5
F0.1
sI6
F0.02
sI7
F0.06
sI8
F0.03
sI9
F0.03
sI10
F0.02
sI11
F0.03
sI12
F0.01
sI13
F0.01
sI14
F0.01
sI18
F0.01
sI21
F0.02
sI23
F0.01
sI27
F0.01
sI30
F0.01
ssg6
(dp15
I1
F0.33
sI2
F0.41
sI3
F0.13
sI4
F0.06
sI5
F0.02
sI6
F0.01
sI7
F0.01
sI8
F0.02
sI9
F0.01
ssssI1
(dp16
g2
(dp17
g4
(dp18
F0.0
F0.52
sF0.5
F0.01
sF0.066
F0.01
sF0.866
F0.02
sF0.19
F0.01
sF0.106
F0.01
sF0.051
F0.02
sF0.29
F0.01
sF0.038
F0.01
sF0.087
F0.01
sF0.109
F0.01
sF0.06
F0.01
sF0.009000000000000001
F0.01
sF0.166
F0.03
sF0.266
F0.01
sF0.045
F0.01
sF0.007
F0.01
sF0.083
F0.01
sF0.008
F0.01
sF0.3
F0.01
sF0.4
F0.02
sF0.054
F0.01
sF0.142
F0.01
sF0.619
F0.02
sF0.2
F0.01
sF0.1
F0.01
sF0.141
F0.01
sF0.333
F0.03
sF0.107
F0.01
sF0.133
F0.01
sF0.177
F0.01
sF0.034999999999999996
F0.01
sF0.9999999999999999
F0.09
ssg6
(dp19
F0.0
F0.79
sF0.5
F0.02
sF0.1
F0.02
sF0.4
F0.01
sF0.6
F0.01
sF0.333
F0.01
sF0.666
F0.02
sF0.266
F0.02
sF0.036
F0.01
sF0.166
F0.01
sF0.285
F0.01
sF0.699
F0.03
sF0.9999999999999999
F0.04
sssg8
(dp20
g4
(dp21
I1
F0.0301010101010101
sI2
F0.07151515151515152
sI3
F0.10828282828282829
sI4
F0.19414141414141414
sI5
F0.23515151515151514
sI6
F0.1987878787878788
sI7
F0.10565656565656566
sI8
F0.03939393939393939
sI9
F0.014747474747474747
sI10
F0.0018181818181818182
sI11
F0.00040404040404040404
ssg6
(dp22
I1
F0.024646464646464646
sI2
F0.05191919191919192
sI3
F0.04909090909090909
sI4
F0.0698989898989899
sI5
F0.08303030303030302
sI6
F0.08383838383838384
sI7
F0.08848484848484849
sI8
F0.08727272727272728
sI9
F0.0692929292929293
sI10
F0.06
sI11
F0.05656565656565657
sI12
F0.05494949494949495
sI13
F0.04363636363636364
sI14
F0.038585858585858585
sI15
F0.03333333333333333
sI16
F0.029696969696969697
sI17
F0.026464646464646465
sI18
F0.025050505050505052
sI19
F0.014141414141414142
sI20
F0.006868686868686869
sI21
F0.0024242424242424242
sI22
F0.0008080808080808081
sssg12
(dp23
g4
(dp24
I1
F0.25
sI2
F0.15
sI3
F0.09
sI4
F0.07
sI5
F0.09
sI6
F0.08
sI7
F0.03
sI8
F0.03
sI9
F0.03
sI10
F0.01
sI11
F0.03
sI12
F0.02
sI13
F0.03
sI38
F0.01
sI15
F0.02
sI16
F0.01
sI18
F0.01
sI21
F0.01
sI27
F0.01
sI29
F0.02
ssg6
(dp25
I1
F0.39
sI2
F0.27
sI3
F0.14
sI4
F0.06
sI5
F0.09
sI6
F0.02
sI7
F0.01
sI10
F0.01
sI11
F0.01
ssssI2
(dp26
g2
(dp27
g4
(dp28
F0.0
F0.73
sF0.045
F0.01
sF0.087
F0.01
sF0.1
F0.01
sF0.2
F0.04
sF0.111
F0.01
sF0.004
F0.01
sF0.4
F0.01
sF0.06
F0.01
sF0.054
F0.01
sF0.238
F0.01
sF0.071
F0.01
sF0.009000000000000001
F0.01
sF0.166
F0.01
sF0.047
F0.01
sF0.142
F0.01
sF0.034999999999999996
F0.01
sF0.9999999999999999
F0.01
sF0.333
F0.06
sF0.178
F0.01
ssg6
(dp29
F0.0
F0.97
sF0.1
F0.02
sF0.9999999999999999
F0.01
sssg8
(dp30
g4
(dp31
I1
F0.026060606060606062
sI2
F0.06606060606060606
sI3
F0.13070707070707072
sI4
F0.24141414141414141
sI5
F0.2634343434343434
sI6
F0.18262626262626264
sI7
F0.07191919191919192
sI8
F0.015353535353535354
sI9
F0.0024242424242424242
ssg6
(dp32
I1
F0.021616161616161617
sI2
F0.041212121212121214
sI3
F0.04505050505050505
sI4
F0.06161616161616162
sI5
F0.058383838383838385
sI6
F0.06686868686868687
sI7
F0.07191919191919192
sI8
F0.07151515151515152
sI9
F0.06727272727272728
sI10
F0.06727272727272728
sI11
F0.05656565656565657
sI12
F0.05595959595959596
sI13
F0.047474747474747475
sI14
F0.03676767676767677
sI15
F0.031313131313131314
sI16
F0.026262626262626262
sI17
F0.02282828282828283
sI18
F0.021414141414141413
sI19
F0.02181818181818182
sI20
F0.021414141414141413
sI21
F0.021212121212121213
sI22
F0.019797979797979797
sI23
F0.01696969696969697
sI24
F0.011717171717171718
sI25
F0.007474747474747475
sI26
F0.0048484848484848485
sI27
F0.0026262626262626263
sI28
F0.0006060606060606061
sI29
F0.00020202020202020202
sssg12
(dp33
g4
(dp34
I1
F0.23
sI2
F0.16
sI3
F0.15
sI4
F0.06
sI5
F0.1
sI6
F0.07
sI7
F0.04
sI8
F0.03
sI9
F0.01
sI10
F0.02
sI11
F0.02
sI12
F0.02
sI15
F0.01
sI16
F0.01
sI18
F0.01
sI21
F0.02
sI23
F0.01
sI25
F0.01
sI29
F0.01
sI30
F0.01
ssg6
(dp35
I1
F0.35
sI2
F0.41
sI3
F0.13
sI4
F0.04
sI5
F0.04
sI7
F0.02
sI8
F0.01
ssss.