(dp0
I0
(dp1
S'clustering coefficient'
p2
(dp3
S'Backend Query'
p4
(dp5
F0.125
F0.02
sF0.169
F0.02
sF0.066
F0.04
sF0.198
F0.01
sF0.11
F0.02
sF0.121
F0.02
sF0.161
F0.01
sF0.183
F0.01
sF0.038
F0.01
sF0.073
F0.02
sF0.041999999999999996
F0.01
sF0.19
F0.01
sF0.11699999999999999
F0.01
sF0.131
F0.02
sF0.153
F0.01
sF0.069
F0.02
sF0.04
F0.02
sF0.091
F0.02
sF0.051
F0.01
sF0.113
F0.01
sF0.124
F0.01
sF0.065
F0.02
sF0.076
F0.02
sF0.087
F0.01
sF0.098
F0.04
sF0.03
F0.01
sF0.137
F0.01
sF0.181
F0.01
sF0.047
F0.02
sF0.028999999999999998
F0.01
sF0.116
F0.02
sF0.068
F0.02
sF0.079
F0.02
sF0.09
F0.02
sF0.016
F0.01
sF0.056
F0.02
sF0.123
F0.02
sF0.15
F0.01
sF0.128
F0.02
sF0.075
F0.01
sF0.086
F0.01
sF0.134
F0.01
sF0.057999999999999996
F0.01
sF0.071
F0.01
sF0.082
F0.02
sF0.104
F0.01
sF0.094
F0.01
sF0.067
F0.01
sF0.078
F0.01
sF0.089
F0.02
sF0.1
F0.03
sF0.061
F0.02
sF0.141
F0.01
sF0.08499999999999999
F0.01
sF0.122
F0.01
sF0.084
F0.02
sF0.133
F0.01
sF0.155
F0.01
sF0.019
F0.01
sF0.095
F0.03
sF0.06999999999999999
F0.02
sF0.102
F0.01
sF0.057
F0.04
ssS'Frontend Query'
p6
(dp7
F0.0
F1.0
sssS'path length'
p8
(dp9
g4
(dp10
I1
F0.04040404040404041
sI2
F0.28888888888888886
sI3
F0.664040404040404
sI4
F0.006666666666666667
ssg6
(dp11
I1
F0.021414141414141413
sI2
F0.027474747474747475
sI3
F0.03191919191919192
sI4
F0.03636363636363636
sI5
F0.039595959595959594
sI6
F0.04101010101010101
sI7
F0.04080808080808081
sI8
F0.03636363636363636
sI9
F0.03414141414141414
sI10
F0.03313131313131313
sI11
F0.03232323232323232
sI12
F0.03212121212121212
sI13
F0.026868686868686868
sI14
F0.025454545454545455
sI15
F0.023636363636363636
sI16
F0.02181818181818182
sI17
F0.02
sI18
F0.01818181818181818
sI19
F0.01717171717171717
sI20
F0.01616161616161616
sI21
F0.01595959595959596
sI22
F0.01575757575757576
sI23
F0.015555555555555555
sI24
F0.015353535353535354
sI25
F0.015151515151515152
sI26
F0.01494949494949495
sI27
F0.014747474747474747
sI28
F0.014545454545454545
sI29
F0.014343434343434344
sI30
F0.014545454545454545
sI31
F0.015353535353535354
sI32
F0.01575757575757576
sI33
F0.01696969696969697
sI34
F0.019393939393939394
sI35
F0.021212121212121213
sI36
F0.021616161616161617
sI37
F0.02303030303030303
sI38
F0.023434343434343436
sI39
F0.02181818181818182
sI40
F0.019595959595959597
sI41
F0.01696969696969697
sI42
F0.014343434343434344
sI43
F0.012121212121212121
sI44
F0.009696969696969697
sI45
F0.007272727272727273
sI46
F0.0056565656565656566
sI47
F0.0044444444444444444
sI48
F0.0032323232323232323
sI49
F0.0012121212121212121
sssS'degree'
p12
(dp13
g4
(dp14
I14
F0.03
sI15
F0.03
sI16
F0.09
sI17
F0.06
sI18
F0.1
sI19
F0.12
sI20
F0.14
sI21
F0.14
sI22
F0.12
sI23
F0.07
sI24
F0.06
sI25
F0.03
sI27
F0.01
ssg6
(dp15
I1
F0.05
sI2
F0.85
sI3
F0.06
sI4
F0.02
sI5
F0.01
sI6
F0.01
ssssI1
(dp16
g2
(dp17
g4
(dp18
F0.125
F0.01
sF0.147
F0.01
sF0.169
F0.03
sF0.066
F0.04
sF0.088
F0.02
sF0.198
F0.01
sF0.11
F0.01
sF0.121
F0.03
sF0.139
F0.03
sF0.18
F0.01
sF0.045
F0.01
sF0.071
F0.01
sF0.146
F0.01
sF0.041999999999999996
F0.03
sF0.11699999999999999
F0.01
sF0.137
F0.01
sF0.068
F0.01
sF0.069
F0.02
sF0.091
F0.01
sF0.051
F0.02
sF0.124
F0.01
sF0.065
F0.02
sF0.076
F0.01
sF0.087
F0.02
sF0.098
F0.02
sF0.109
F0.02
sF0.138
F0.01
sF0.13
F0.01
sF0.036
F0.01
sF0.094
F0.03
sF0.105
F0.01
sF0.057999999999999996
F0.04
sF0.108
F0.02
sF0.055
F0.01
sF0.072
F0.01
sF0.034
F0.01
sF0.079
F0.01
sF0.09
F0.01
sF0.161
F0.01
sF0.112
F0.01
sF0.128
F0.02
sF0.062
F0.01
sF0.054
F0.01
sF0.116
F0.01
sF0.142
F0.04
sF0.082
F0.01
sF0.093
F0.01
sF0.104
F0.03
sF0.115
F0.02
sF0.047
F0.01
sF0.078
F0.02
sF0.049999999999999996
F0.01
sF0.1
F0.04
sF0.222
F0.01
sF0.061
F0.01
sF0.163
F0.01
sF0.111
F0.01
sF0.126
F0.01
sF0.122
F0.01
sF0.133
F0.02
sF0.06999999999999999
F0.01
sF0.046
F0.01
sF0.057
F0.02
ssg6
(dp19
F0.0
F0.97
sF0.166
F0.01
sF0.9999999999999999
F0.02
sssg8
(dp20
g4
(dp21
I1
F0.03515151515151515
sI2
F0.2737373737373737
sI3
F0.687070707070707
sI4
F0.00404040404040404
ssg6
(dp22
I1
F0.021414141414141413
sI2
F0.02707070707070707
sI3
F0.03212121212121212
sI4
F0.03777777777777778
sI5
F0.04424242424242424
sI6
F0.0503030303030303
sI7
F0.055353535353535356
sI8
F0.05757575757575758
sI9
F0.06181818181818182
sI10
F0.06686868686868687
sI11
F0.06747474747474748
sI12
F0.06888888888888889
sI13
F0.06626262626262626
sI14
F0.06363636363636363
sI15
F0.06060606060606061
sI16
F0.05555555555555555
sI17
F0.04363636363636364
sI18
F0.035555555555555556
sI19
F0.0298989898989899
sI20
F0.022424242424242423
sI21
F0.015353535353535354
sI22
F0.010707070707070707
sI23
F0.00404040404040404
sI24
F0.0014141414141414141
sssg12
(dp23
g4
(dp24
I13
F0.01
sI15
F0.01
sI16
F0.07
sI17
F0.09
sI18
F0.11
sI19
F0.14
sI20
F0.13
sI21
F0.15
sI22
F0.11
sI23
F0.06
sI24
F0.06
sI25
F0.02
sI26
F0.02
sI27
F0.02
ssg6
(dp25
I1
F0.07
sI2
F0.81
sI3
F0.06
sI4
F0.05
sI5
F0.01
ssssI2
(dp26
g2
(dp27
g4
(dp28
F0.125
F0.04
sF0.169
F0.01
sF0.066
F0.05
sF0.154
F0.01
sF0.088
F0.02
sF0.099
F0.01
sF0.11
F0.03
sF0.142
F0.01
sF0.073
F0.02
sF0.19
F0.01
sF0.106
F0.01
sF0.11699999999999999
F0.03
sF0.08
F0.04
sF0.091
F0.02
sF0.204
F0.01
sF0.113
F0.01
sF0.13
F0.01
sF0.076
F0.03
sF0.098
F0.01
sF0.109
F0.02
sF0.03
F0.01
sF0.176
F0.01
sF0.057
F0.01
sF0.094
F0.01
sF0.105
F0.02
sF0.116
F0.01
sF0.129
F0.02
sF0.049999999999999996
F0.01
sF0.272
F0.01
sF0.051
F0.01
sF0.09
F0.02
sF0.10099999999999999
F0.01
sF0.112
F0.01
sF0.123
F0.01
sF0.128
F0.01
sF0.086
F0.03
sF0.054
F0.01
sF0.119
F0.01
sF0.071
F0.02
sF0.082
F0.01
sF0.104
F0.03
sF0.06999999999999999
F0.02
sF0.108
F0.02
sF0.089
F0.01
sF0.047
F0.02
sF0.067
F0.01
sF0.078
F0.03
sF0.1
F0.04
sF0.024999999999999998
F0.01
sF0.222
F0.01
sF0.061
F0.01
sF0.111
F0.01
sF0.063
F0.01
sF0.08499999999999999
F0.01
sF0.133
F0.01
sF0.228
F0.02
sF0.152
F0.01
sF0.095
F0.01
sF0.13999999999999999
F0.02
sF0.081
F0.02
sF0.114
F0.01
ssg6
(dp29
F0.0
F1.0
sssg8
(dp30
g4
(dp31
I1
F0.04202020202020202
sI2
F0.28505050505050505
sI3
F0.6694949494949495
sI4
F0.0034343434343434343
ssg6
(dp32
I1
F0.02101010101010101
sI2
F0.02666666666666667
sI3
F0.03333333333333333
sI4
F0.038585858585858585
sI5
F0.04363636363636364
sI6
F0.04686868686868687
sI7
F0.046464646464646465
sI8
F0.0496969696969697
sI9
F0.05272727272727273
sI10
F0.05191919191919192
sI11
F0.05313131313131313
sI12
F0.055353535353535356
sI13
F0.057373737373737375
sI14
F0.05757575757575758
sI15
F0.0602020202020202
sI16
F0.052525252525252523
sI17
F0.04707070707070707
sI18
F0.04
sI19
F0.03393939393939394
sI20
F0.029696969696969697
sI21
F0.02585858585858586
sI22
F0.021616161616161617
sI23
F0.018383838383838384
sI24
F0.014747474747474747
sI25
F0.009898989898989899
sI26
F0.006060606060606061
sI27
F0.0030303030303030303
sI28
F0.0016161616161616162
sI29
F0.0008080808080808081
sI30
F0.00020202020202020202
sssg12
(dp33
g4
(dp34
I14
F0.01
sI16
F0.05
sI17
F0.11
sI18
F0.14
sI19
F0.12
sI20
F0.08
sI21
F0.2
sI22
F0.11
sI23
F0.05
sI24
F0.05
sI25
F0.04
sI27
F0.03
sI28
F0.01
ssg6
(dp35
I1
F0.11
sI2
F0.74
sI3
F0.12
sI4
F0.02
sI5
F0.01
ssss.