(dp0
S'clustering coefficient'
p1
(dp2
F0.125
F0.001
sF0.0
F0.029
sF0.044
F0.035
sF0.049
F0.006
sF0.071
F0.006
sF0.095
F0.007
sF0.12
F0.003
sF0.153
F0.002
sF0.051
F0.019
sF0.066
F0.048
sF0.015
F0.009
sF0.13
F0.001
sF0.092
F0.001
sF0.109
F0.015
sF0.128
F0.003
sF0.181
F0.003
sF0.036
F0.036
sF0.057999999999999996
F0.015
sF0.166
F0.003
sF0.079
F0.002
sF0.123
F0.001
sF0.016
F0.008
sF0.086
F0.001
sF0.078
F0.004
sF0.093
F0.001
sF0.124
F0.001
sF0.049999999999999996
F0.015
sF0.024999999999999998
F0.018
sF0.163
F0.001
sF0.063
F0.007
sF0.018
F0.02
sF0.177
F0.001
sF0.034999999999999996
F0.004
sF0.012
F0.004
sF0.114
F0.002
sF0.068
F0.011
sF0.077
F0.003
sF0.121
F0.002
sF0.016999999999999998
F0.003
sF0.045
F0.023
sF0.084
F0.001
sF0.126
F0.001
sF0.131
F0.001
sF0.013999999999999999
F0.003
sF0.219
F0.001
sF0.136
F0.006
sF0.091
F0.003
sF0.145
F0.005
sF0.098
F0.004
sF0.057
F0.013
sF0.009999999999999998
F0.004
sF0.034
F0.003
sF0.102
F0.005
sF0.028
F0.008
sF0.15
F0.001
sF0.075
F0.025
sF0.062
F0.006
sF0.041
F0.006
sF0.127
F0.008
sF0.089
F0.007
sF0.046
F0.006
sF0.024
F0.002
sF0.155
F0.008
sF0.033
F0.008
sF0.055
F0.001
sF0.104
F0.003
sF0.038
F0.021
sF0.073
F0.007
sF0.11699999999999999
F0.001
sF0.082
F0.004
sF0.08
F0.008
sF0.031
F0.003
sF0.052
F0.022
sF0.087
F0.004
sF0.047
F0.02
sF0.151
F0.003
sF0.009000000000000001
F0.002
sF0.027
F0.003
sF0.10099999999999999
F0.001
sF0.064
F0.011
sF0.054
F0.038
sF0.028999999999999998
F0.009
sF0.142
F0.001
sF0.115
F0.002
sF0.094
F0.002
sF0.02
F0.001
sF0.039
F0.009
sF0.061
F0.007
sF0.111
F0.016
sF0.022
F0.036
sF0.08499999999999999
F0.002
sF0.020999999999999998
F0.008
sF0.133
F0.008
sF0.023
F0.003
sF0.053
F0.001
sF0.147
F0.001
sF0.099
F0.001
sF0.161
F0.001
sF0.056
F0.003
sF0.106
F0.002
sF0.069
F0.001
sF0.113
F0.001
sF0.041999999999999996
F0.005
sF0.06999999999999999
F0.004
sF0.048
F0.005
sF0.076
F0.023
sF0.06
F0.017
sF0.072
F0.014
sF0.236
F0.001
sF0.083
F0.007
sF0.09
F0.028
sF0.032
F0.014
sF0.043
F0.018
sF0.03
F0.014
sF0.04
F0.002
sF0.065
F0.011
sF0.026
F0.008
sF0.067
F0.004
sF0.222
F0.004
sF0.037
F0.001
sF0.059
F0.007
sF0.088
F0.024
sF0.019
F0.007
sF0.2
F0.005
sF0.008
F0.001
ssS'path length'
p3
(dp4
I1
F0.01981981981981982
sI2
F0.4083723723723724
sI3
F0.571057057057057
sI4
F0.0007507507507507507
ssS'degree'
p5
(dp6
I132
F0.001
sI159
F0.001
sI136
F0.001
sI10
F0.165
sI11
F0.138
sI12
F0.098
sI13
F0.07
sI14
F0.064
sI15
F0.053
sI16
F0.048
sI17
F0.037
sI18
F0.032
sI19
F0.018
sI20
F0.021
sI21
F0.017
sI22
F0.02
sI23
F0.021
sI24
F0.017
sI25
F0.011
sI26
F0.01
sI27
F0.009
sI28
F0.008
sI29
F0.002
sI30
F0.012
sI31
F0.01
sI32
F0.004
sI33
F0.009
sI34
F0.003
sI35
F0.012
sI36
F0.004
sI37
F0.006
sI38
F0.003
sI39
F0.005
sI40
F0.002
sI41
F0.007
sI170
F0.001
sI43
F0.001
sI44
F0.004
sI46
F0.005
sI47
F0.004
sI48
F0.001
sI50
F0.001
sI51
F0.003
sI52
F0.002
sI53
F0.001
sI55
F0.001
sI56
F0.001
sI57
F0.001
sI58
F0.001
sI59
F0.002
sI60
F0.001
sI61
F0.003
sI63
F0.001
sI64
F0.001
sI65
F0.003
sI67
F0.001
sI68
F0.001
sI72
F0.001
sI76
F0.001
sI78
F0.002
sI79
F0.001
sI81
F0.002
sI82
F0.001
sI163
F0.001
sI85
F0.001
sI86
F0.002
sI87
F0.001
sI93
F0.001
sI95
F0.001
sI96
F0.001
sI142
F0.001
sI107
F0.001
sI111
F0.001
sI124
F0.001
sI125
F0.001
ss.