(dp0
S'clustering coefficient'
p1
(dp2
F0.0
F0.03
sF0.034
F0.012
sF0.066
F0.001
sF0.011
F0.029
sF0.052
F0.001
sF0.012
F0.031
sF0.020999999999999998
F0.06
sF0.007
F0.026
sF0.03
F0.016
sF0.013999999999999999
F0.042
sF0.04
F0.007
sF0.051
F0.002
sF0.031
F0.013
sF0.013000000000000001
F0.02
sF0.033
F0.011
sF0.024
F0.008
sF0.065
F0.001
sF0.038
F0.015
sF0.087
F0.001
sF0.049
F0.001
sF0.015
F0.046
sF0.022
F0.032
sF0.034999999999999996
F0.012
sF0.009999999999999998
F0.036
sF0.047
F0.008
sF0.028999999999999998
F0.032
sF0.032
F0.017
sF0.018
F0.018
sF0.016999999999999998
F0.037
sF0.045
F0.004
sF0.008
F0.028
sF0.028
F0.035
sF0.016
F0.02
sF0.064
F0.001
sF0.043
F0.005
sF0.054
F0.002
sF0.057999999999999996
F0.001
sF0.041
F0.002
sF0.026
F0.033
sF0.036
F0.014
sF0.004
F0.01
sF0.005
F0.026
sF0.039
F0.008
sF0.049999999999999996
F0.001
sF0.024999999999999998
F0.039
sF0.02
F0.004
sF0.046
F0.002
sF0.009000000000000001
F0.033
sF0.003
F0.005
sF0.041999999999999996
F0.008
sF0.044
F0.007
sF0.019
F0.076
sF0.027
F0.016
sF0.006
F0.018
sF0.023
F0.037
ssS'path length'
p3
(dp4
I1
F0.020036036036036035
sI2
F0.3228768768768769
sI3
F0.655093093093093
sI4
F0.0019939939939939938
ssS'degree'
p5
(dp6
I8
F0.002
sI9
F0.001
sI10
F0.006
sI11
F0.009
sI12
F0.015
sI13
F0.027
sI14
F0.032
sI15
F0.057
sI16
F0.06
sI17
F0.075
sI18
F0.088
sI19
F0.089
sI20
F0.096
sI21
F0.088
sI22
F0.077
sI23
F0.076
sI24
F0.057
sI25
F0.037
sI26
F0.035
sI27
F0.025
sI28
F0.02
sI29
F0.015
sI30
F0.006
sI31
F0.004
sI32
F0.001
sI34
F0.001
sI35
F0.001
ss.