(dp0
I0
(dp1
S'clustering coefficient'
p2
(dp3
S'Backend Query'
p4
(dp5
F0.0
F0.02
sF0.034
F0.01
sF0.066
F0.08
sF0.077
F0.01
sF0.044
F0.06
sF0.055
F0.01
sF0.09
F0.01
sF0.041999999999999996
F0.01
sF0.095
F0.01
sF0.03
F0.02
sF0.131
F0.01
sF0.082
F0.02
sF0.08
F0.03
sF0.091
F0.01
sF0.051
F0.01
sF0.026
F0.01
sF0.033
F0.02
sF0.015
F0.01
sF0.065
F0.01
sF0.076
F0.02
sF0.087
F0.01
sF0.109
F0.02
sF0.06
F0.01
sF0.022
F0.02
sF0.236
F0.01
sF0.018
F0.02
sF0.047
F0.01
sF0.057999999999999996
F0.02
sF0.049999999999999996
F0.01
sF0.036
F0.04
sF0.068
F0.01
sF0.079
F0.01
sF0.045
F0.01
sF0.056
F0.02
sF0.064
F0.01
sF0.075
F0.03
sF0.043
F0.02
sF0.054
F0.05
sF0.028999999999999998
F0.01
sF0.071
F0.02
sF0.041
F0.01
sF0.052
F0.03
sF0.072
F0.03
sF0.04
F0.01
sF0.067
F0.01
sF0.039
F0.03
sF0.089
F0.01
sF0.024999999999999998
F0.02
sF0.111
F0.02
sF0.061
F0.02
sF0.059
F0.01
sF0.038
F0.01
sF0.06999999999999999
F0.02
sF0.046
F0.01
sF0.057
F0.01
ssS'Frontend Query'
p6
(dp7
F0.0
F1.0
sssS'path length'
p8
(dp9
g4
(dp10
I1
F0.05090909090909091
sI2
F0.5139393939393939
sI3
F0.43414141414141416
sI4
F0.00101010101010101
ssg6
(dp11
I1
F0.1626984126984127
sI2
F0.2222222222222222
sI3
F0.1984126984126984
sI4
F0.12896825396825398
sI5
F0.14087301587301587
sI6
F0.10317460317460317
sI7
F0.037698412698412696
sI8
F0.005952380952380952
sssS'degree'
p12
(dp13
g4
(dp14
I132
F0.01
sI136
F0.01
sI10
F0.14
sI11
F0.15
sI12
F0.03
sI13
F0.05
sI14
F0.05
sI15
F0.02
sI16
F0.07
sI17
F0.04
sI18
F0.04
sI20
F0.01
sI21
F0.02
sI22
F0.01
sI23
F0.01
sI25
F0.01
sI26
F0.01
sI28
F0.03
sI29
F0.01
sI30
F0.02
sI31
F0.01
sI32
F0.02
sI33
F0.01
sI35
F0.03
sI36
F0.01
sI39
F0.01
sI170
F0.01
sI46
F0.02
sI47
F0.01
sI48
F0.01
sI52
F0.01
sI67
F0.01
sI68
F0.01
sI72
F0.01
sI81
F0.02
sI86
F0.01
sI95
F0.01
sI96
F0.01
sI107
F0.01
sI124
F0.01
sI125
F0.01
ssg6
(dp15
I1
F0.55
sI2
F0.38
sI3
F0.03
sI4
F0.01
sI5
F0.01
sI7
F0.01
sI8
F0.01
ssssI1
(dp16
g2
(dp17
g4
(dp18
F0.0
F0.039603960396039604
sF0.136
F0.009900990099009901
sF0.013999999999999999
F0.009900990099009901
sF0.066
F0.019801980198019802
sF0.088
F0.009900990099009901
sF0.055
F0.009900990099009901
sF0.045
F0.019801980198019802
sF0.026
F0.009900990099009901
sF0.020999999999999998
F0.009900990099009901
sF0.03
F0.009900990099009901
sF0.028
F0.009900990099009901
sF0.054
F0.019801980198019802
sF0.04
F0.009900990099009901
sF0.051
F0.009900990099009901
sF0.062
F0.0297029702970297
sF0.145
F0.009900990099009901
sF0.033
F0.009900990099009901
sF0.048
F0.019801980198019802
sF0.2
F0.009900990099009901
sF0.038
F0.019801980198019802
sF0.049
F0.009900990099009901
sF0.109
F0.009900990099009901
sF0.06
F0.04950495049504951
sF0.181
F0.009900990099009901
sF0.084
F0.009900990099009901
sF0.036
F0.019801980198019802
sF0.083
F0.009900990099009901
sF0.047
F0.019801980198019802
sF0.057999999999999996
F0.009900990099009901
sF0.068
F0.019801980198019802
sF0.079
F0.009900990099009901
sF0.09
F0.039603960396039604
sF0.064
F0.009900990099009901
sF0.056
F0.019801980198019802
sF0.027
F0.009900990099009901
sF0.032
F0.0297029702970297
sF0.016
F0.019801980198019802
sF0.075
F0.009900990099009901
sF0.086
F0.009900990099009901
sF0.043
F0.039603960396039604
sF0.044
F0.019801980198019802
sF0.052
F0.039603960396039604
sF0.034999999999999996
F0.009900990099009901
sF0.039
F0.009900990099009901
sF0.049999999999999996
F0.019801980198019802
sF0.024999999999999998
F0.009900990099009901
sF0.111
F0.009900990099009901
sF0.061
F0.019801980198019802
sF0.023
F0.009900990099009901
sF0.063
F0.039603960396039604
sF0.08499999999999999
F0.009900990099009901
sF0.012
F0.009900990099009901
sF0.059
F0.009900990099009901
sF0.133
F0.009900990099009901
sF0.155
F0.019801980198019802
sF0.022
F0.039603960396039604
sF0.076
F0.019801980198019802
sF0.06999999999999999
F0.009900990099009901
sF0.046
F0.019801980198019802
ssg6
(dp19
F0.0
F1.0
sssg8
(dp20
g4
(dp21
I1
F0.05861386138613861
sI2
F0.5320792079207921
sI3
F0.4079207920792079
sI4
F0.001386138613861386
ssg6
(dp22
I1
F0.1457975986277873
sI2
F0.2367066895368782
sI3
F0.2538593481989708
sI4
F0.1783876500857633
sI5
F0.1097770154373928
sI6
F0.0548885077186964
sI7
F0.017152658662092625
sI8
F0.003430531732418525
sssg12
(dp23
g4
(dp24
I10
F0.12871287128712872
sI11
F0.0891089108910891
sI12
F0.0891089108910891
sI13
F0.04950495049504951
sI142
F0.009900990099009901
sI15
F0.019801980198019802
sI16
F0.019801980198019802
sI17
F0.009900990099009901
sI18
F0.019801980198019802
sI19
F0.009900990099009901
sI20
F0.009900990099009901
sI21
F0.009900990099009901
sI23
F0.039603960396039604
sI24
F0.039603960396039604
sI25
F0.039603960396039604
sI26
F0.019801980198019802
sI27
F0.019801980198019802
sI28
F0.009900990099009901
sI30
F0.009900990099009901
sI31
F0.009900990099009901
sI32
F0.009900990099009901
sI33
F0.019801980198019802
sI163
F0.009900990099009901
sI38
F0.019801980198019802
sI39
F0.009900990099009901
sI40
F0.009900990099009901
sI41
F0.019801980198019802
sI170
F0.009900990099009901
sI44
F0.009900990099009901
sI46
F0.009900990099009901
sI59
F0.009900990099009901
sI61
F0.009900990099009901
sI63
F0.009900990099009901
sI64
F0.009900990099009901
sI65
F0.009900990099009901
sI68
F0.009900990099009901
sI72
F0.009900990099009901
sI14
F0.07920792079207921
sI86
F0.019801980198019802
sI95
F0.009900990099009901
sI107
F0.009900990099009901
sI111
F0.009900990099009901
sI124
F0.009900990099009901
sI125
F0.009900990099009901
ssg6
(dp25
I1
F0.594059405940594
sI2
F0.3069306930693069
sI3
F0.039603960396039604
sI4
F0.009900990099009901
sI5
F0.009900990099009901
sI6
F0.019801980198019802
sI7
F0.009900990099009901
sI8
F0.009900990099009901
ssssI2
(dp26
g2
(dp27
g4
(dp28
F0.0
F0.009900990099009901
sF0.034
F0.009900990099009901
sF0.066
F0.039603960396039604
sF0.044
F0.019801980198019802
sF0.055
F0.009900990099009901
sF0.016999999999999998
F0.009900990099009901
sF0.045
F0.009900990099009901
sF0.073
F0.009900990099009901
sF0.041999999999999996
F0.009900990099009901
sF0.095
F0.009900990099009901
sF0.06
F0.019801980198019802
sF0.028
F0.009900990099009901
sF0.08
F0.019801980198019802
sF0.102
F0.009900990099009901
sF0.124
F0.009900990099009901
sF0.026
F0.019801980198019802
sF0.033
F0.009900990099009901
sF0.015
F0.009900990099009901
sF0.13
F0.009900990099009901
sF0.076
F0.0297029702970297
sF0.087
F0.009900990099009901
sF0.098
F0.009900990099009901
sF0.03
F0.019801980198019802
sF0.022
F0.019801980198019802
sF0.034999999999999996
F0.019801980198019802
sF0.036
F0.04950495049504951
sF0.047
F0.019801980198019802
sF0.057999999999999996
F0.0297029702970297
sF0.043
F0.04950495049504951
sF0.072
F0.009900990099009901
sF0.136
F0.009900990099009901
sF0.051
F0.039603960396039604
sF0.09
F0.0297029702970297
sF0.016
F0.019801980198019802
sF0.056
F0.0297029702970297
sF0.128
F0.009900990099009901
sF0.008
F0.009900990099009901
sF0.15
F0.009900990099009901
sF0.062
F0.019801980198019802
sF0.054
F0.0297029702970297
sF0.028999999999999998
F0.009900990099009901
sF0.093
F0.009900990099009901
sF0.052
F0.0297029702970297
sF0.127
F0.009900990099009901
sF0.04
F0.009900990099009901
sF0.039
F0.019801980198019802
sF0.089
F0.009900990099009901
sF0.049999999999999996
F0.009900990099009901
sF0.018
F0.019801980198019802
sF0.061
F0.009900990099009901
sF0.046
F0.009900990099009901
sF0.111
F0.009900990099009901
sF0.009000000000000001
F0.009900990099009901
sF0.063
F0.009900990099009901
sF0.048
F0.009900990099009901
sF0.059
F0.009900990099009901
sF0.088
F0.009900990099009901
sF0.06999999999999999
F0.009900990099009901
sF0.092
F0.009900990099009901
sF0.057
F0.039603960396039604
ssg6
(dp29
F0.0
F1.0
sssg8
(dp30
g4
(dp31
I1
F0.06910891089108911
sI2
F0.5732673267326732
sI3
F0.3574257425742574
sI4
F0.00019801980198019803
ssg6
(dp32
I1
F0.27796610169491526
sI2
F0.376271186440678
sI3
F0.2745762711864407
sI4
F0.061016949152542375
sI5
F0.010169491525423728
sssg12
(dp33
g4
(dp34
I132
F0.009900990099009901
sI136
F0.009900990099009901
sI10
F0.0594059405940594
sI11
F0.0891089108910891
sI12
F0.06930693069306931
sI13
F0.039603960396039604
sI142
F0.009900990099009901
sI15
F0.07920792079207921
sI16
F0.039603960396039604
sI17
F0.039603960396039604
sI18
F0.04950495049504951
sI19
F0.019801980198019802
sI20
F0.009900990099009901
sI21
F0.009900990099009901
sI22
F0.009900990099009901
sI23
F0.0297029702970297
sI24
F0.019801980198019802
sI26
F0.009900990099009901
sI27
F0.009900990099009901
sI28
F0.009900990099009901
sI30
F0.019801980198019802
sI159
F0.009900990099009901
sI32
F0.009900990099009901
sI33
F0.009900990099009901
sI35
F0.04950495049504951
sI38
F0.019801980198019802
sI39
F0.019801980198019802
sI40
F0.009900990099009901
sI41
F0.009900990099009901
sI170
F0.009900990099009901
sI47
F0.009900990099009901
sI53
F0.009900990099009901
sI59
F0.019801980198019802
sI63
F0.009900990099009901
sI65
F0.019801980198019802
sI67
F0.009900990099009901
sI68
F0.009900990099009901
sI72
F0.009900990099009901
sI31
F0.009900990099009901
sI78
F0.009900990099009901
sI14
F0.0297029702970297
sI86
F0.009900990099009901
sI93
F0.009900990099009901
sI107
F0.009900990099009901
sI111
F0.009900990099009901
sI124
F0.009900990099009901
sI125
F0.009900990099009901
ssg6
(dp35
I1
F0.594059405940594
sI2
F0.31683168316831684
sI3
F0.019801980198019802
sI4
F0.04950495049504951
sI6
F0.009900990099009901
sI8
F0.009900990099009901
ssss.