(dp0
I0
(dp1
S'clustering coefficient'
p2
(dp3
S'Backend Query'
p4
(dp5
F0.125
F0.009708737864077669
sF0.147
F0.009708737864077669
sF0.169
F0.019417475728155338
sF0.132
F0.009708737864077669
sF0.176
F0.009708737864077669
sF0.099
F0.009708737864077669
sF0.11
F0.019417475728155338
sF0.121
F0.019417475728155338
sF0.071
F0.019417475728155338
sF0.041999999999999996
F0.019417475728155338
sF0.095
F0.04854368932038835
sF0.219
F0.009708737864077669
sF0.138
F0.009708737864077669
sF0.08
F0.019417475728155338
sF0.102
F0.009708737864077669
sF0.066
F0.02912621359223301
sF0.13
F0.009708737864077669
sF0.076
F0.038834951456310676
sF0.087
F0.019417475728155338
sF0.098
F0.038834951456310676
sF0.109
F0.009708737864077669
sF0.12
F0.019417475728155338
sF0.181
F0.009708737864077669
sF0.083
F0.009708737864077669
sF0.094
F0.02912621359223301
sF0.105
F0.019417475728155338
sF0.057999999999999996
F0.02912621359223301
sF0.173
F0.009708737864077669
sF0.068
F0.009708737864077669
sF0.09
F0.009708737864077669
sF0.032
F0.009708737864077669
sF0.112
F0.009708737864077669
sF0.123
F0.009708737864077669
sF0.143
F0.009708737864077669
sF0.128
F0.009708737864077669
sF0.064
F0.038834951456310676
sF0.086
F0.019417475728155338
sF0.108
F0.038834951456310676
sF0.116
F0.019417475728155338
sF0.142
F0.019417475728155338
sF0.164
F0.009708737864077669
sF0.093
F0.019417475728155338
sF0.052
F0.009708737864077669
sF0.17099999999999999
F0.009708737864077669
sF0.134
F0.009708737864077669
sF0.078
F0.038834951456310676
sF0.1
F0.009708737864077669
sF0.222
F0.009708737864077669
sF0.122
F0.019417475728155338
sF0.111
F0.009708737864077669
sF0.08499999999999999
F0.009708737864077669
sF0.061
F0.009708737864077669
sF0.084
F0.019417475728155338
sF0.133
F0.009708737864077669
sF0.057
F0.019417475728155338
sF0.088
F0.009708737864077669
sF0.06999999999999999
F0.009708737864077669
sF0.081
F0.009708737864077669
sF0.046
F0.009708737864077669
sF0.065
F0.019417475728155338
sF0.114
F0.009708737864077669
ssS'Frontend Query'
p6
(dp7
F0.0
F1.0
sssS'path length'
p8
(dp9
g4
(dp10
I1
F0.03712164477441462
sI2
F0.2855511136493432
sI3
F0.6731391585760518
sI4
F0.004188083000190367
ssg6
(dp11
I1
F0.021000617665225447
sI2
F0.024500720609429687
sI3
F0.028618488779081738
sI4
F0.032736256948733784
sI5
F0.033971587399629403
sI6
F0.03500102944204241
sI7
F0.03829524397776405
sI8
F0.04056001647107268
sI9
F0.0422071237389335
sI10
F0.042824788964381306
sI11
F0.04364834259831171
sI12
F0.04303067737286391
sI13
F0.04117768169652049
sI14
F0.03850113238624665
sI15
F0.03726580193535104
sI16
F0.03644224830142063
sI17
F0.035206917850525016
sI18
F0.03417747580811201
sI19
F0.032736256948733784
sI20
F0.032324480131768585
sI21
F0.03253036854025118
sI22
F0.03129503808935557
sI23
F0.030265596046942556
sI24
F0.029030265596046944
sI25
F0.027589046736668725
sI26
F0.025736051060325303
sI27
F0.022647724933086266
sI28
F0.01955939880584723
sI29
F0.016471072678608194
sI30
F0.013382746551369158
sI31
F0.010500308832612723
sI32
F0.008029647930821495
sI33
F0.006176652254478073
sI34
F0.004529544986617253
sI35
F0.0030883261272390363
sI36
F0.0022647724933086266
sI37
F0.001441218859378217
sI38
F0.0006176652254478073
sI39
F0.00041177681696520483
sI40
F0.00020588840848260242
sssS'degree'
p12
(dp13
g4
(dp14
I13
F0.009708737864077669
sI14
F0.009708737864077669
sI15
F0.009708737864077669
sI16
F0.05825242718446602
sI17
F0.038834951456310676
sI18
F0.11650485436893204
sI19
F0.1650485436893204
sI20
F0.0970873786407767
sI21
F0.1650485436893204
sI22
F0.0970873786407767
sI23
F0.06796116504854369
sI24
F0.06796116504854369
sI25
F0.04854368932038835
sI26
F0.02912621359223301
sI28
F0.009708737864077669
sI31
F0.009708737864077669
ssg6
(dp15
I1
F0.1553398058252427
sI2
F0.7378640776699029
sI3
F0.08737864077669903
sI4
F0.009708737864077669
sI5
F0.009708737864077669
ssssI1
(dp16
g2
(dp17
g4
(dp18
F0.125
F0.009900990099009901
sF0.169
F0.009900990099009901
sF0.191
F0.009900990099009901
sF0.066
F0.0594059405940594
sF0.176
F0.009900990099009901
sF0.198
F0.009900990099009901
sF0.11
F0.009900990099009901
sF0.121
F0.0297029702970297
sF0.139
F0.009900990099009901
sF0.183
F0.009900990099009901
sF0.071
F0.019801980198019802
sF0.073
F0.019801980198019802
sF0.084
F0.009900990099009901
sF0.095
F0.0297029702970297
sF0.131
F0.009900990099009901
sF0.175
F0.009900990099009901
sF0.138
F0.019801980198019802
sF0.04
F0.019801980198019802
sF0.091
F0.019801980198019802
sF0.051
F0.019801980198019802
sF0.189
F0.019801980198019802
sF0.13
F0.019801980198019802
sF0.076
F0.009900990099009901
sF0.087
F0.009900990099009901
sF0.098
F0.019801980198019802
sF0.12
F0.009900990099009901
sF0.137
F0.019801980198019802
sF0.088
F0.009900990099009901
sF0.036
F0.009900990099009901
sF0.099
F0.009900990099009901
sF0.105
F0.039603960396039604
sF0.057999999999999996
F0.039603960396039604
sF0.079
F0.009900990099009901
sF0.18
F0.009900990099009901
sF0.10099999999999999
F0.009900990099009901
sF0.056
F0.019801980198019802
sF0.032
F0.009900990099009901
sF0.128
F0.009900990099009901
sF0.15
F0.009900990099009901
sF0.108
F0.019801980198019802
sF0.119
F0.009900990099009901
sF0.21
F0.009900990099009901
sF0.134
F0.019801980198019802
sF0.116
F0.019801980198019802
sF0.142
F0.019801980198019802
sF0.082
F0.009900990099009901
sF0.093
F0.009900990099009901
sF0.104
F0.009900990099009901
sF0.115
F0.009900990099009901
sF0.067
F0.019801980198019802
sF0.078
F0.0297029702970297
sF0.089
F0.009900990099009901
sF0.1
F0.009900990099009901
sF0.061
F0.009900990099009901
sF0.163
F0.009900990099009901
sF0.063
F0.019801980198019802
sF0.192
F0.009900990099009901
sF0.059
F0.009900990099009901
sF0.133
F0.009900990099009901
sF0.06999999999999999
F0.019801980198019802
sF0.081
F0.009900990099009901
sF0.065
F0.009900990099009901
sF0.057
F0.039603960396039604
ssg6
(dp19
F0.0
F0.9702970297029703
sF0.166
F0.019801980198019802
sF0.9999999999999999
F0.009900990099009901
sssg8
(dp20
g4
(dp21
I1
F0.03584158415841584
sI2
F0.28475247524752473
sI3
F0.6770297029702971
sI4
F0.002376237623762376
ssg6
(dp22
I1
F0.025407925407925407
sI2
F0.03752913752913753
sI3
F0.05384615384615385
sI4
F0.07249417249417249
sI5
F0.09160839160839161
sI6
F0.10442890442890443
sI7
F0.10909090909090909
sI8
F0.11585081585081584
sI9
F0.11445221445221446
sI10
F0.1006993006993007
sI11
F0.07622377622377623
sI12
F0.05128205128205128
sI13
F0.028671328671328673
sI14
F0.01282051282051282
sI15
F0.004662004662004662
sI16
F0.0009324009324009324
sssg12
(dp23
g4
(dp24
I14
F0.009900990099009901
sI15
F0.009900990099009901
sI16
F0.04950495049504951
sI17
F0.0594059405940594
sI18
F0.15841584158415842
sI19
F0.1782178217821782
sI20
F0.1485148514851485
sI21
F0.0891089108910891
sI22
F0.1485148514851485
sI23
F0.039603960396039604
sI24
F0.04950495049504951
sI25
F0.019801980198019802
sI26
F0.0297029702970297
sI28
F0.009900990099009901
ssg6
(dp25
I1
F0.16831683168316833
sI2
F0.6039603960396039
sI3
F0.15841584158415842
sI4
F0.04950495049504951
sI5
F0.009900990099009901
sI6
F0.009900990099009901
ssssI2
(dp26
g2
(dp27
g4
(dp28
F0.125
F0.019417475728155338
sF0.147
F0.019417475728155338
sF0.169
F0.009708737864077669
sF0.132
F0.009708737864077669
sF0.044
F0.009708737864077669
sF0.11
F0.009708737864077669
sF0.121
F0.02912621359223301
sF0.09
F0.009708737864077669
sF0.227
F0.009708737864077669
sF0.071
F0.009708737864077669
sF0.073
F0.009708737864077669
sF0.041999999999999996
F0.009708737864077669
sF0.095
F0.009708737864077669
sF0.126
F0.019417475728155338
sF0.11699999999999999
F0.009708737864077669
sF0.175
F0.009708737864077669
sF0.197
F0.009708737864077669
sF0.219
F0.009708737864077669
sF0.069
F0.009708737864077669
sF0.04
F0.009708737864077669
sF0.091
F0.019417475728155338
sF0.051
F0.04854368932038835
sF0.113
F0.009708737864077669
sF0.124
F0.019417475728155338
sF0.066
F0.009708737864077669
sF0.138
F0.009708737864077669
sF0.13
F0.009708737864077669
sF0.076
F0.019417475728155338
sF0.12
F0.019417475728155338
sF0.137
F0.019417475728155338
sF0.08
F0.04854368932038835
sF0.083
F0.009708737864077669
sF0.047
F0.019417475728155338
sF0.21
F0.009708737864077669
sF0.116
F0.019417475728155338
sF0.129
F0.009708737864077669
sF0.068
F0.019417475728155338
sF0.18
F0.009708737864077669
sF0.10099999999999999
F0.009708737864077669
sF0.166
F0.009708737864077669
sF0.128
F0.009708737864077669
sF0.016
F0.009708737864077669
sF0.086
F0.019417475728155338
sF0.123
F0.009708737864077669
sF0.108
F0.02912621359223301
sF0.105
F0.009708737864077669
sF0.065
F0.009708737864077669
sF0.142
F0.02912621359223301
sF0.041
F0.009708737864077669
sF0.052
F0.009708737864077669
sF0.115
F0.019417475728155338
sF0.064
F0.019417475728155338
sF0.17099999999999999
F0.009708737864077669
sF0.094
F0.009708737864077669
sF0.067
F0.009708737864077669
sF0.078
F0.038834951456310676
sF0.1
F0.009708737864077669
sF0.111
F0.009708737864077669
sF0.061
F0.009708737864077669
sF0.141
F0.009708737864077669
sF0.063
F0.009708737864077669
sF0.08499999999999999
F0.009708737864077669
sF0.122
F0.019417475728155338
sF0.084
F0.009708737864077669
sF0.152
F0.009708737864077669
sF0.06999999999999999
F0.009708737864077669
sF0.081
F0.02912621359223301
sF0.114
F0.019417475728155338
ssg6
(dp29
F0.0
F1.0
sssg8
(dp30
g4
(dp31
I1
F0.036550542547115934
sI2
F0.2811726632400533
sI3
F0.6784694460308395
sI4
F0.003807348181991243
ssg6
(dp32
I1
F0.02341869117968921
sI2
F0.029765813088203107
sI3
F0.037207266360253885
sI4
F0.04421098708688991
sI5
F0.052965637995184944
sI6
F0.06347121908513897
sI7
F0.07200700372072663
sI8
F0.08076165462902167
sI9
F0.08557671262858393
sI10
F0.08623331144670607
sI11
F0.08798424162836507
sI12
F0.08054278835631429
sI13
F0.06806741081199387
sI14
F0.054497701904136574
sI15
F0.04180345808710877
sI16
F0.02867148172466623
sI17
F0.018822499452834318
sI18
F0.013350842635149924
sI19
F0.009630115999124535
sI20
F0.007441453272050777
sI21
F0.005471656817684395
sI22
F0.003282994090610637
sI23
F0.002188662727073758
sI24
F0.0013131976362442547
sI25
F0.0006565988181221273
sI26
F0.0004377325454147516
sI27
F0.0002188662727073758
sssg12
(dp33
g4
(dp34
I15
F0.009708737864077669
sI16
F0.06796116504854369
sI17
F0.06796116504854369
sI18
F0.08737864077669903
sI19
F0.1262135922330097
sI20
F0.1262135922330097
sI21
F0.1553398058252427
sI22
F0.11650485436893204
sI23
F0.07766990291262135
sI24
F0.07766990291262135
sI25
F0.02912621359223301
sI26
F0.038834951456310676
sI27
F0.009708737864077669
sI28
F0.009708737864077669
ssg6
(dp35
I1
F0.11650485436893204
sI2
F0.7281553398058253
sI3
F0.1262135922330097
sI4
F0.019417475728155338
sI5
F0.009708737864077669
ssss.