(dp0
S'clustering coefficient'
p1
(dp2
F0.0
F0.8381344307270233
sF0.5
F0.00205761316872428
sF0.066
F0.0054869684499314125
sF0.866
F0.0006858710562414266
sF0.055
F0.0006858710562414266
sF0.666
F0.010973936899862825
sF0.071
F0.0013717421124828531
sF0.020999999999999998
F0.0006858710562414266
sF0.095
F0.0013717421124828531
sF0.03
F0.0006858710562414266
sF0.007
F0.0006858710562414266
sF0.051
F0.0013717421124828531
sF0.29
F0.0006858710562414266
sF0.019
F0.0006858710562414266
sF0.109
F0.00205761316872428
sF0.06
F0.0006858710562414266
sF0.181
F0.0006858710562414266
sF0.018
F0.0013717421124828531
sF0.083
F0.0006858710562414266
sF0.047
F0.0027434842249657062
sF0.464
F0.0006858710562414266
sF0.217
F0.0006858710562414266
sF0.009000000000000001
F0.0006858710562414266
sF0.016999999999999998
F0.0006858710562414266
sF0.045
F0.0006858710562414266
sF0.004
F0.0006858710562414266
sF0.028
F0.0006858710562414266
sF0.166
F0.00823045267489712
sF0.4
F0.0027434842249657062
sF0.032
F0.0006858710562414266
sF0.008
F0.0006858710562414266
sF0.3
F0.0013717421124828531
sF0.1
F0.0075445816186556925
sF0.194
F0.0006858710562414266
sF0.054
F0.0006858710562414266
sF0.238
F0.0006858710562414266
sF0.266
F0.0013717421124828531
sF0.142
F0.0027434842249657062
sF0.027
F0.00205761316872428
sF0.178
F0.0006858710562414266
sF0.476
F0.0006858710562414266
sF0.2
F0.009602194787379973
sF0.024999999999999998
F0.0006858710562414266
sF0.111
F0.0006858710562414266
sF0.141
F0.0006858710562414266
sF0.333
F0.029492455418381344
sF0.19
F0.0006858710562414266
sF0.107
F0.00205761316872428
sF0.133
F0.00205761316872428
sF0.177
F0.0006858710562414266
sF0.038
F0.0013717421124828531
sF0.361
F0.0013717421124828531
sF0.034999999999999996
F0.0013717421124828531
sF0.9999999999999999
F0.038408779149519894
sF0.057
F0.0006858710562414266
sF0.106
F0.0006858710562414266
ssS'path length'
p3
(dp4
I1
F0.0018340107310340413
sI2
F0.010294185489284501
sI3
F0.024675352797572478
sI4
F0.07425201454027809
sI5
F0.1438201464384133
sI6
F0.21016463729801638
sI7
F0.20478876395396897
sI8
F0.14686678849468957
sI9
F0.08702418578114453
sI10
F0.047906469218653054
sI11
F0.026403917326411543
sI12
F0.01283619214934195
sI13
F0.005762823246745054
sI14
F0.0022878059940517046
sI15
F0.0007682509017062514
sI16
F0.00023254653519784815
sI17
F6.213794057918209e-05
sI18
F1.6946711067049663e-05
sI19
F2.824451844508277e-06
ssS'degree'
p5
(dp6
I1
F0.4869684499314129
sI2
F0.19135802469135801
sI3
F0.11248285322359397
sI4
F0.05761316872427984
sI5
F0.04458161865569273
sI6
F0.03635116598079561
sI7
F0.017146776406035666
sI8
F0.00823045267489712
sI9
F0.008916323731138546
sI10
F0.00411522633744856
sI11
F0.008916323731138546
sI12
F0.003429355281207133
sI13
F0.00411522633744856
sI14
F0.0013717421124828531
sI15
F0.00205761316872428
sI16
F0.0013717421124828531
sI18
F0.00205761316872428
sI19
F0.0006858710562414266
sI20
F0.0006858710562414266
sI21
F0.00205761316872428
sI23
F0.0006858710562414266
sI25
F0.0006858710562414266
sI27
F0.0006858710562414266
sI29
F0.0013717421124828531
sI30
F0.0006858710562414266
sI38
F0.0006858710562414266
sI56
F0.0006858710562414266
ss.