(dp0
I0
(dp1
S'clustering coefficient'
p2
(dp3
S'Backend Query'
p4
(dp5
F0.0
F0.02
sF0.033
F0.02
sF0.044
F0.08
sF0.098
F0.01
sF0.09
F0.04
sF0.019
F0.01
sF0.084
F0.01
sF0.015
F0.01
sF0.11699999999999999
F0.01
sF0.013999999999999999
F0.01
sF0.009999999999999998
F0.01
sF0.102
F0.01
sF0.026
F0.02
sF0.066
F0.04
sF0.06
F0.02
sF0.065
F0.01
sF0.038
F0.02
sF0.087
F0.01
sF0.049
F0.02
sF0.109
F0.01
sF0.12
F0.01
sF0.088
F0.05
sF0.072
F0.02
sF0.083
F0.03
sF0.099
F0.01
sF0.036
F0.05
sF0.068
F0.01
sF0.051
F0.01
sF0.045
F0.05
sF0.028
F0.01
sF0.047
F0.01
sF0.075
F0.01
sF0.043
F0.03
sF0.054
F0.03
sF0.071
F0.01
sF0.041
F0.01
sF0.052
F0.02
sF0.018
F0.01
sF0.08
F0.01
sF0.067
F0.01
sF0.039
F0.01
sF0.2
F0.01
sF0.024999999999999998
F0.02
sF0.222
F0.01
sF0.02
F0.01
sF0.111
F0.03
sF0.126
F0.01
sF0.041999999999999996
F0.01
sF0.133
F0.02
sF0.022
F0.05
sF0.076
F0.01
sF0.027
F0.01
sF0.057
F0.01
ssS'Frontend Query'
p6
(dp7
F0.0
F1.0
sssS'path length'
p8
(dp9
g4
(dp10
I1
F0.015151515151515152
sI2
F0.37777777777777777
sI3
F0.6050505050505051
sI4
F0.00202020202020202
ssg6
(dp11
I0
I1
sssS'degree'
p12
(dp13
g4
(dp14
I10
F0.27
sI11
F0.13
sI12
F0.08
sI13
F0.03
sI14
F0.08
sI15
F0.05
sI16
F0.06
sI17
F0.02
sI18
F0.04
sI20
F0.04
sI21
F0.04
sI22
F0.01
sI23
F0.02
sI24
F0.01
sI25
F0.01
sI26
F0.01
sI30
F0.02
sI35
F0.01
sI36
F0.01
sI39
F0.01
sI44
F0.01
sI47
F0.01
sI72
F0.01
sI81
F0.01
sI87
F0.01
ssg6
(dp15
I0
F1.0
ssssI1
(dp16
g2
(dp17
g4
(dp18
F0.0
F0.06
sF0.147
F0.01
sF0.066
F0.05
sF0.077
F0.02
sF0.044
F0.04
sF0.016999999999999998
F0.01
sF0.09
F0.03
sF0.019
F0.01
sF0.073
F0.01
sF0.056
F0.01
sF0.04
F0.01
sF0.051
F0.02
sF0.062
F0.01
sF0.026
F0.01
sF0.038
F0.03
sF0.087
F0.01
sF0.098
F0.01
sF0.03
F0.02
sF0.127
F0.01
sF0.022
F0.04
sF0.072
F0.01
sF0.047
F0.02
sF0.057999999999999996
F0.01
sF0.036
F0.02
sF0.068
F0.01
sF0.045
F0.03
sF0.064
F0.01
sF0.028
F0.02
sF0.078
F0.01
sF0.032
F0.02
sF0.075
F0.01
sF0.043
F0.02
sF0.054
F0.04
sF0.009999999999999998
F0.01
sF0.041
F0.01
sF0.052
F0.07
sF0.115
F0.01
sF0.018
F0.02
sF0.094
F0.01
sF0.039
F0.02
sF0.089
F0.03
sF0.024999999999999998
F0.01
sF0.111
F0.01
sF0.061
F0.01
sF0.063
F0.01
sF0.048
F0.02
sF0.059
F0.01
sF0.133
F0.01
sF0.155
F0.01
sF0.088
F0.04
sF0.076
F0.01
sF0.06999999999999999
F0.01
sF0.092
F0.01
sF0.057
F0.01
ssg6
(dp19
F0.0
F1.0
sssg8
(dp20
g4
(dp21
I1
F0.030505050505050504
sI2
F0.4632323232323232
sI3
F0.5054545454545455
sI4
F0.0008080808080808081
ssg6
(dp22
I0
I1
sssg12
(dp23
g4
(dp24
I10
F0.17
sI11
F0.1
sI12
F0.06
sI13
F0.05
sI14
F0.08
sI15
F0.06
sI16
F0.03
sI17
F0.01
sI18
F0.02
sI19
F0.02
sI20
F0.04
sI21
F0.02
sI22
F0.03
sI23
F0.04
sI24
F0.02
sI25
F0.02
sI26
F0.01
sI30
F0.04
sI32
F0.01
sI33
F0.02
sI35
F0.01
sI36
F0.02
sI37
F0.01
sI170
F0.01
sI44
F0.02
sI47
F0.01
sI51
F0.01
sI59
F0.01
sI63
F0.01
sI72
F0.01
sI86
F0.01
sI93
F0.01
sI95
F0.01
ssg6
(dp25
I0
F1.0
ssssI2
(dp26
g2
(dp27
g4
(dp28
F0.136
F0.01
sF0.033
F0.01
sF0.077
F0.02
sF0.088
F0.02
sF0.09
F0.02
sF0.044
F0.01
sF0.041999999999999996
F0.01
sF0.12
F0.01
sF0.028
F0.01
sF0.069
F0.01
sF0.08
F0.02
sF0.091
F0.01
sF0.051
F0.03
sF0.031
F0.01
sF0.026
F0.01
sF0.066
F0.04
sF0.06
F0.03
sF0.065
F0.03
sF0.076
F0.01
sF0.049
F0.01
sF0.109
F0.01
sF0.03
F0.02
sF0.181
F0.01
sF0.072
F0.02
sF0.083
F0.01
sF0.047
F0.02
sF0.057999999999999996
F0.01
sF0.049999999999999996
F0.01
sF0.018
F0.01
sF0.068
F0.02
sF0.045
F0.03
sF0.128
F0.02
sF0.056
F0.01
sF0.166
F0.02
sF0.064
F0.02
sF0.032
F0.02
sF0.075
F0.07
sF0.054
F0.05
sF0.028999999999999998
F0.01
sF0.048
F0.01
sF0.052
F0.01
sF0.016
F0.01
sF0.127
F0.01
sF0.067
F0.01
sF0.078
F0.01
sF0.089
F0.01
sF0.024999999999999998
F0.04
sF0.111
F0.01
sF0.063
F0.01
sF0.012
F0.01
sF0.020999999999999998
F0.02
sF0.133
F0.02
sF0.155
F0.01
sF0.022
F0.06
sF0.06999999999999999
F0.01
sF0.024
F0.01
sF0.057
F0.01
ssg6
(dp29
F0.0
F1.0
sssg8
(dp30
g4
(dp31
I1
F0.022222222222222223
sI2
F0.4260606060606061
sI3
F0.5513131313131313
sI4
F0.00040404040404040404
ssg6
(dp32
I0
I1
sssg12
(dp33
g4
(dp34
I136
F0.01
sI10
F0.14
sI11
F0.1
sI12
F0.14
sI13
F0.11
sI14
F0.05
sI15
F0.04
sI16
F0.05
sI17
F0.04
sI18
F0.03
sI19
F0.02
sI20
F0.03
sI21
F0.01
sI22
F0.02
sI23
F0.01
sI24
F0.02
sI25
F0.02
sI26
F0.01
sI29
F0.01
sI30
F0.01
sI31
F0.03
sI33
F0.03
sI35
F0.01
sI40
F0.01
sI44
F0.01
sI47
F0.01
sI81
F0.01
sI87
F0.01
sI111
F0.01
ssg6
(dp35
I0
F1.0
ssss.