(dp0
I0
(dp1
S'clustering coefficient'
p2
(dp3
S'Backend Query'
p4
(dp5
F0.0
F0.02
sF0.034
F0.01
sF0.022
F0.03
sF0.020999999999999998
F0.05
sF0.028
F0.02
sF0.03
F0.01
sF0.007
F0.02
sF0.04
F0.01
sF0.031
F0.01
sF0.026
F0.04
sF0.006
F0.02
sF0.019
F0.12
sF0.015
F0.02
sF0.011
F0.03
sF0.018
F0.02
sF0.028999999999999998
F0.03
sF0.036
F0.02
sF0.016999999999999998
F0.07
sF0.016
F0.02
sF0.013999999999999999
F0.04
sF0.008
F0.04
sF0.032
F0.05
sF0.027
F0.02
sF0.009999999999999998
F0.03
sF0.013000000000000001
F0.05
sF0.004
F0.01
sF0.039
F0.01
sF0.024999999999999998
F0.02
sF0.023
F0.04
sF0.009000000000000001
F0.03
sF0.003
F0.02
sF0.041999999999999996
F0.01
sF0.044
F0.02
sF0.038
F0.01
sF0.034999999999999996
F0.01
sF0.024
F0.01
sF0.046
F0.01
ssS'Frontend Query'
p6
(dp7
F0.0
F1.0
sssS'path length'
p8
(dp9
g4
(dp10
I1
F0.04
sI2
F0.3511111111111111
sI3
F0.6082828282828283
sI4
F0.0006060606060606061
ssg6
(dp11
I1
F0.020606060606060607
sI2
F0.02484848484848485
sI3
F0.026868686868686868
sI4
F0.029696969696969697
sI5
F0.03111111111111111
sI6
F0.03333333333333333
sI7
F0.03616161616161616
sI8
F0.03878787878787879
sI9
F0.042828282828282827
sI10
F0.04363636363636364
sI11
F0.04424242424242424
sI12
F0.044848484848484846
sI13
F0.04666666666666667
sI14
F0.04626262626262626
sI15
F0.04323232323232323
sI16
F0.04323232323232323
sI17
F0.042828282828282827
sI18
F0.037171717171717175
sI19
F0.03111111111111111
sI20
F0.028484848484848484
sI21
F0.026060606060606062
sI22
F0.023434343434343436
sI23
F0.02202020202020202
sI24
F0.020606060606060607
sI25
F0.01919191919191919
sI26
F0.016565656565656565
sI27
F0.014545454545454545
sI28
F0.014545454545454545
sI29
F0.014141414141414142
sI30
F0.013131313131313131
sI31
F0.013535353535353536
sI32
F0.012323232323232323
sI33
F0.011111111111111112
sI34
F0.009292929292929294
sI35
F0.00787878787878788
sI36
F0.007474747474747475
sI37
F0.006060606060606061
sI38
F0.0044444444444444444
sI39
F0.0026262626262626263
sI40
F0.00202020202020202
sI41
F0.0016161616161616162
sI42
F0.00101010101010101
sI43
F0.00040404040404040404
sssS'degree'
p12
(dp13
g4
(dp14
I14
F0.01
sI15
F0.05
sI16
F0.06
sI17
F0.09
sI18
F0.08
sI19
F0.12
sI20
F0.1
sI21
F0.13
sI22
F0.07
sI23
F0.06
sI24
F0.04
sI25
F0.05
sI26
F0.07
sI27
F0.03
sI28
F0.03
sI30
F0.01
ssg6
(dp15
I1
F0.1
sI2
F0.8
sI3
F0.07
sI4
F0.02
sI5
F0.01
ssssI1
(dp16
g2
(dp17
g4
(dp18
F0.0
F0.04
sF0.034
F0.01
sF0.011
F0.06
sF0.052
F0.01
sF0.020999999999999998
F0.05
sF0.028
F0.02
sF0.03
F0.02
sF0.007
F0.03
sF0.009999999999999998
F0.03
sF0.031
F0.01
sF0.026
F0.03
sF0.006
F0.01
sF0.019
F0.05
sF0.015
F0.1
sF0.022
F0.03
sF0.018
F0.02
sF0.047
F0.01
sF0.028999999999999998
F0.02
sF0.036
F0.04
sF0.016999999999999998
F0.04
sF0.004
F0.02
sF0.013999999999999999
F0.05
sF0.016
F0.02
sF0.032
F0.03
sF0.013000000000000001
F0.01
sF0.005
F0.02
sF0.024999999999999998
F0.08
sF0.009000000000000001
F0.03
sF0.012
F0.03
sF0.038
F0.01
sF0.034999999999999996
F0.01
sF0.024
F0.01
sF0.023
F0.01
sF0.008
F0.04
ssg6
(dp19
F0.0
F1.0
sssg8
(dp20
g4
(dp21
I1
F0.03898989898989899
sI2
F0.3335353535353535
sI3
F0.6254545454545455
sI4
F0.00202020202020202
ssg6
(dp22
I1
F0.021212121212121213
sI2
F0.02666666666666667
sI3
F0.03272727272727273
sI4
F0.03737373737373737
sI5
F0.04181818181818182
sI6
F0.04626262626262626
sI7
F0.05090909090909091
sI8
F0.055353535353535356
sI9
F0.06060606060606061
sI10
F0.06282828282828283
sI11
F0.060404040404040404
sI12
F0.06222222222222222
sI13
F0.0595959595959596
sI14
F0.05333333333333334
sI15
F0.04242424242424243
sI16
F0.03575757575757576
sI17
F0.03212121212121212
sI18
F0.026262626262626262
sI19
F0.02404040404040404
sI20
F0.023232323232323233
sI21
F0.022222222222222223
sI22
F0.020202020202020204
sI23
F0.017777777777777778
sI24
F0.015555555555555555
sI25
F0.013131313131313131
sI26
F0.011111111111111112
sI27
F0.009494949494949495
sI28
F0.00787878787878788
sI29
F0.007070707070707071
sI30
F0.006262626262626263
sI31
F0.005050505050505051
sI32
F0.0036363636363636364
sI33
F0.0026262626262626263
sI34
F0.0016161616161616162
sI35
F0.0008080808080808081
sI36
F0.00040404040404040404
sssg12
(dp23
g4
(dp24
I8
F0.01
sI10
F0.01
sI11
F0.01
sI12
F0.02
sI13
F0.03
sI14
F0.01
sI15
F0.03
sI16
F0.06
sI17
F0.09
sI18
F0.06
sI19
F0.09
sI20
F0.11
sI21
F0.07
sI22
F0.07
sI23
F0.08
sI24
F0.06
sI25
F0.05
sI26
F0.04
sI27
F0.03
sI28
F0.03
sI29
F0.02
sI30
F0.01
sI31
F0.01
ssg6
(dp25
I1
F0.06
sI2
F0.84
sI3
F0.04
sI4
F0.06
ssssI2
(dp26
g2
(dp27
g4
(dp28
F0.016999999999999998
F0.02
sF0.013999999999999999
F0.03
sF0.033
F0.02
sF0.022
F0.04
sF0.020999999999999998
F0.08
sF0.03
F0.01
sF0.007
F0.04
sF0.04
F0.02
sF0.031
F0.02
sF0.013000000000000001
F0.01
sF0.024
F0.01
sF0.038
F0.03
sF0.015
F0.06
sF0.011
F0.02
sF0.018
F0.03
sF0.028999999999999998
F0.05
sF0.036
F0.01
sF0.034
F0.02
sF0.016
F0.02
sF0.028
F0.04
sF0.008
F0.02
sF0.032
F0.01
sF0.009999999999999998
F0.03
sF0.041
F0.01
sF0.026
F0.05
sF0.005
F0.04
sF0.039
F0.01
sF0.024999999999999998
F0.03
sF0.02
F0.01
sF0.009000000000000001
F0.04
sF0.012
F0.03
sF0.041999999999999996
F0.02
sF0.019
F0.05
sF0.006
F0.04
sF0.023
F0.03
ssg6
(dp29
F0.0
F1.0
sssg8
(dp30
g4
(dp31
I1
F0.040202020202020204
sI2
F0.36262626262626263
sI3
F0.5963636363636363
sI4
F0.0008080808080808081
ssg6
(dp32
I1
F0.020202020202020204
sI2
F0.021414141414141413
sI3
F0.022424242424242423
sI4
F0.02303030303030303
sI5
F0.023636363636363636
sI6
F0.02383838383838384
sI7
F0.02383838383838384
sI8
F0.02404040404040404
sI9
F0.024242424242424242
sI10
F0.024444444444444446
sI11
F0.024646464646464646
sI12
F0.02484848484848485
sI13
F0.025050505050505052
sI14
F0.02484848484848485
sI15
F0.024444444444444446
sI16
F0.024242424242424242
sI17
F0.024444444444444446
sI18
F0.024646464646464646
sI19
F0.024444444444444446
sI20
F0.024646464646464646
sI21
F0.024646464646464646
sI22
F0.024646464646464646
sI23
F0.024646464646464646
sI24
F0.024646464646464646
sI25
F0.024444444444444446
sI26
F0.024444444444444446
sI27
F0.024444444444444446
sI28
F0.024444444444444446
sI29
F0.024242424242424242
sI30
F0.024242424242424242
sI31
F0.024242424242424242
sI32
F0.024242424242424242
sI33
F0.02404040404040404
sI34
F0.02404040404040404
sI35
F0.02404040404040404
sI36
F0.024242424242424242
sI37
F0.02404040404040404
sI38
F0.02404040404040404
sI39
F0.02404040404040404
sI40
F0.02404040404040404
sI41
F0.007676767676767677
sI42
F0.0056565656565656566
sI43
F0.0048484848484848485
sI44
F0.00404040404040404
sI45
F0.0032323232323232323
sI46
F0.0028282828282828283
sI47
F0.0024242424242424242
sI48
F0.00202020202020202
sI49
F0.0016161616161616162
sI50
F0.0012121212121212121
sI51
F0.0008080808080808081
sI52
F0.00040404040404040404
sssg12
(dp33
g4
(dp34
I13
F0.01
sI14
F0.01
sI15
F0.05
sI16
F0.05
sI17
F0.06
sI18
F0.09
sI19
F0.1
sI20
F0.15
sI21
F0.07
sI22
F0.06
sI23
F0.07
sI24
F0.1
sI25
F0.05
sI26
F0.02
sI27
F0.03
sI28
F0.01
sI29
F0.04
sI30
F0.03
ssg6
(dp35
I1
F0.05
sI2
F0.91
sI3
F0.03
sI4
F0.01
ssss.