(dp0
I0
(dp1
S'clustering coefficient'
p2
(dp3
S'Backend Query'
p4
(dp5
F0.0
F0.009900990099009901
sF0.033
F0.009900990099009901
sF0.022
F0.019801980198019802
sF0.020999999999999998
F0.07920792079207921
sF0.007
F0.0297029702970297
sF0.03
F0.009900990099009901
sF0.028
F0.0297029702970297
sF0.005
F0.0297029702970297
sF0.031
F0.019801980198019802
sF0.026
F0.06930693069306931
sF0.012
F0.0594059405940594
sF0.019
F0.0297029702970297
sF0.015
F0.039603960396039604
sF0.011
F0.06930693069306931
sF0.018
F0.019801980198019802
sF0.028999999999999998
F0.0297029702970297
sF0.009000000000000001
F0.04950495049504951
sF0.016999999999999998
F0.0297029702970297
sF0.045
F0.009900990099009901
sF0.016
F0.019801980198019802
sF0.013999999999999999
F0.039603960396039604
sF0.032
F0.009900990099009901
sF0.008
F0.0297029702970297
sF0.027
F0.0297029702970297
sF0.009999999999999998
F0.0594059405940594
sF0.041
F0.009900990099009901
sF0.013000000000000001
F0.0297029702970297
sF0.064
F0.009900990099009901
sF0.02
F0.009900990099009901
sF0.039
F0.009900990099009901
sF0.049999999999999996
F0.009900990099009901
sF0.024999999999999998
F0.019801980198019802
sF0.024
F0.009900990099009901
sF0.034999999999999996
F0.009900990099009901
sF0.006
F0.009900990099009901
sF0.023
F0.039603960396039604
ssS'Frontend Query'
p6
(dp7
F0.0
F1.0
sssS'path length'
p8
(dp9
g4
(dp10
I1
F0.03346534653465347
sI2
F0.3310891089108911
sI3
F0.6340594059405941
sI4
F0.001386138613861386
ssg6
(dp11
I1
F0.09627329192546584
sI2
F0.09834368530020704
sI3
F0.09834368530020704
sI4
F0.09316770186335403
sI5
F0.08592132505175984
sI6
F0.07763975155279502
sI7
F0.06832298136645963
sI8
F0.061076604554865424
sI9
F0.051759834368530024
sI10
F0.049689440993788817
sI11
F0.045548654244306416
sI12
F0.041407867494824016
sI13
F0.036231884057971016
sI14
F0.028985507246376812
sI15
F0.023809523809523808
sI16
F0.018633540372670808
sI17
F0.012422360248447204
sI18
F0.008281573498964804
sI19
F0.004140786749482402
sssS'degree'
p12
(dp13
g4
(dp14
I11
F0.009900990099009901
sI12
F0.009900990099009901
sI13
F0.0297029702970297
sI14
F0.0297029702970297
sI15
F0.06930693069306931
sI16
F0.06930693069306931
sI17
F0.07920792079207921
sI18
F0.04950495049504951
sI19
F0.10891089108910891
sI20
F0.1188118811881188
sI21
F0.039603960396039604
sI22
F0.09900990099009901
sI23
F0.10891089108910891
sI24
F0.009900990099009901
sI25
F0.04950495049504951
sI26
F0.0594059405940594
sI27
F0.019801980198019802
sI28
F0.019801980198019802
sI29
F0.009900990099009901
sI31
F0.009900990099009901
ssg6
(dp15
I1
F0.24752475247524752
sI2
F0.6732673267326733
sI3
F0.06930693069306931
sI4
F0.009900990099009901
ssssI1
(dp16
g2
(dp17
g4
(dp18
F0.0
F0.0297029702970297
sF0.016999999999999998
F0.009900990099009901
sF0.033
F0.009900990099009901
sF0.011
F0.039603960396039604
sF0.020999999999999998
F0.06930693069306931
sF0.007
F0.009900990099009901
sF0.03
F0.009900990099009901
sF0.028
F0.0297029702970297
sF0.009999999999999998
F0.0594059405940594
sF0.031
F0.009900990099009901
sF0.026
F0.04950495049504951
sF0.003
F0.009900990099009901
sF0.019
F0.07920792079207921
sF0.015
F0.04950495049504951
sF0.022
F0.009900990099009901
sF0.005
F0.04950495049504951
sF0.047
F0.019801980198019802
sF0.028999999999999998
F0.019801980198019802
sF0.009000000000000001
F0.0297029702970297
sF0.034
F0.019801980198019802
sF0.054
F0.009900990099009901
sF0.032
F0.009900990099009901
sF0.013999999999999999
F0.039603960396039604
sF0.016
F0.009900990099009901
sF0.064
F0.009900990099009901
sF0.027
F0.009900990099009901
sF0.013000000000000001
F0.039603960396039604
sF0.018
F0.009900990099009901
sF0.02
F0.009900990099009901
sF0.024999999999999998
F0.0297029702970297
sF0.023
F0.0594059405940594
sF0.012
F0.039603960396039604
sF0.041999999999999996
F0.009900990099009901
sF0.038
F0.0297029702970297
sF0.034999999999999996
F0.0297029702970297
sF0.006
F0.019801980198019802
sF0.046
F0.009900990099009901
sF0.008
F0.009900990099009901
ssg6
(dp19
F0.0
F1.0
sssg8
(dp20
g4
(dp21
I1
F0.034851485148514855
sI2
F0.33782178217821784
sI3
F0.6253465346534653
sI4
F0.0019801980198019802
ssg6
(dp22
I1
F0.07772020725388601
sI2
F0.08376511226252159
sI3
F0.08721934369602763
sI4
F0.0846286701208981
sI5
F0.07858376511226252
sI6
F0.06649395509499137
sI7
F0.05699481865284974
sI8
F0.05872193436960276
sI9
F0.05872193436960276
sI10
F0.05613126079447323
sI11
F0.05094991364421416
sI12
F0.046632124352331605
sI13
F0.037996545768566495
sI14
F0.03195164075993091
sI15
F0.02677029360967185
sI16
F0.02158894645941278
sI17
F0.018998272884283247
sI18
F0.017271157167530225
sI19
F0.01468048359240069
sI20
F0.011226252158894647
sI21
F0.007772020725388601
sI22
F0.004317789291882556
sI23
F0.0008635578583765112
sssg12
(dp23
g4
(dp24
I35
F0.009900990099009901
sI11
F0.019801980198019802
sI13
F0.0297029702970297
sI14
F0.009900990099009901
sI15
F0.04950495049504951
sI16
F0.039603960396039604
sI17
F0.039603960396039604
sI18
F0.10891089108910891
sI19
F0.07920792079207921
sI20
F0.15841584158415842
sI21
F0.06930693069306931
sI22
F0.10891089108910891
sI23
F0.0594059405940594
sI24
F0.019801980198019802
sI25
F0.0594059405940594
sI26
F0.07920792079207921
sI27
F0.019801980198019802
sI28
F0.0297029702970297
sI29
F0.009900990099009901
ssg6
(dp25
I1
F0.3465346534653465
sI2
F0.5742574257425742
sI3
F0.0297029702970297
sI4
F0.04950495049504951
ssssI2
(dp26
g2
(dp27
g4
(dp28
F0.0
F0.0392156862745098
sF0.016999999999999998
F0.00980392156862745
sF0.013999999999999999
F0.029411764705882353
sF0.033
F0.0196078431372549
sF0.022
F0.0392156862745098
sF0.012
F0.0392156862745098
sF0.020999999999999998
F0.0784313725490196
sF0.03
F0.0392156862745098
sF0.007
F0.00980392156862745
sF0.009999999999999998
F0.0196078431372549
sF0.031
F0.00980392156862745
sF0.052
F0.00980392156862745
sF0.003
F0.00980392156862745
sF0.038
F0.0196078431372549
sF0.015
F0.0392156862745098
sF0.011
F0.029411764705882353
sF0.018
F0.0392156862745098
sF0.028999999999999998
F0.0392156862745098
sF0.036
F0.0196078431372549
sF0.034
F0.029411764705882353
sF0.032
F0.0196078431372549
sF0.028
F0.0392156862745098
sF0.016
F0.0196078431372549
sF0.004
F0.00980392156862745
sF0.043
F0.00980392156862745
sF0.027
F0.0392156862745098
sF0.026
F0.00980392156862745
sF0.04
F0.00980392156862745
sF0.039
F0.00980392156862745
sF0.024999999999999998
F0.0196078431372549
sF0.02
F0.00980392156862745
sF0.009000000000000001
F0.029411764705882353
sF0.024
F0.0196078431372549
sF0.041999999999999996
F0.00980392156862745
sF0.019
F0.0392156862745098
sF0.034999999999999996
F0.0196078431372549
sF0.006
F0.029411764705882353
sF0.023
F0.049019607843137254
sF0.008
F0.0392156862745098
ssg6
(dp29
F0.0
F1.0
sssg8
(dp30
g4
(dp31
I1
F0.036886041545331004
sI2
F0.36090079596194913
sI3
F0.6002717918850708
sI4
F0.0019413706076490001
ssg6
(dp32
I1
F0.17054263565891473
sI2
F0.1686046511627907
sI3
F0.1511627906976744
sI4
F0.12015503875968993
sI5
F0.09689922480620156
sI6
F0.07364341085271318
sI7
F0.05232558139534884
sI8
F0.03682170542635659
sI9
F0.03488372093023256
sI10
F0.031007751937984496
sI11
F0.027131782945736434
sI12
F0.02131782945736434
sI13
F0.011627906976744186
sI14
F0.003875968992248062
sssg12
(dp33
g4
(dp34
I9
F0.00980392156862745
sI10
F0.00980392156862745
sI11
F0.00980392156862745
sI12
F0.00980392156862745
sI13
F0.0392156862745098
sI14
F0.0196078431372549
sI15
F0.029411764705882353
sI16
F0.0392156862745098
sI17
F0.09803921568627451
sI18
F0.0784313725490196
sI19
F0.049019607843137254
sI20
F0.09803921568627451
sI21
F0.0392156862745098
sI22
F0.09803921568627451
sI23
F0.08823529411764706
sI24
F0.06862745098039216
sI25
F0.049019607843137254
sI26
F0.08823529411764706
sI27
F0.029411764705882353
sI28
F0.00980392156862745
sI30
F0.0196078431372549
sI32
F0.00980392156862745
sI34
F0.00980392156862745
ssg6
(dp35
I1
F0.38235294117647056
sI2
F0.5294117647058824
sI3
F0.06862745098039216
sI4
F0.0196078431372549
ssss.