(dp0
I0
(dp1
S'clustering coefficient'
p2
(dp3
S'Backend Query'
p4
(dp5
F0.0
F0.6470588235294118
sF0.066
F0.0196078431372549
sF0.055
F0.00980392156862745
sF0.020999999999999998
F0.00980392156862745
sF0.095
F0.00980392156862745
sF0.051
F0.00980392156862745
sF0.009000000000000001
F0.00980392156862745
sF0.166
F0.00980392156862745
sF0.133
F0.00980392156862745
sF0.016999999999999998
F0.00980392156862745
sF0.045
F0.00980392156862745
sF0.008
F0.00980392156862745
sF0.007
F0.00980392156862745
sF0.004
F0.00980392156862745
sF0.054
F0.00980392156862745
sF0.027
F0.00980392156862745
sF0.2
F0.0392156862745098
sF0.1
F0.029411764705882353
sF0.111
F0.00980392156862745
sF0.333
F0.058823529411764705
sF0.107
F0.00980392156862745
sF0.266
F0.00980392156862745
sF0.177
F0.00980392156862745
sF0.06999999999999999
F0.00980392156862745
sF0.9999999999999999
F0.0196078431372549
ssS'Frontend Query'
p6
(dp7
F0.0
F1.0
sssS'path length'
p8
(dp9
g4
(dp10
I1
F0.0219374878664337
sI2
F0.044069112793632306
sI3
F0.0896913220733838
sI4
F0.15744515628033393
sI5
F0.1997670355270821
sI6
F0.18132401475441662
sI7
F0.12385944476800621
sI8
F0.07804309842748981
sI9
F0.048728402251989905
sI10
F0.030091244418559503
sI11
F0.015919238982721802
sI12
F0.006018248883711901
sI13
F0.0021355076684139
sI14
F0.0007765482430596001
sI15
F0.00019413706076490002
ssg6
(dp11
I1
F0.028968371268105232
sI2
F0.0381318356488324
sI3
F0.04936446940585279
sI4
F0.06296186816435116
sI5
F0.07478569317174105
sI6
F0.08690511380431569
sI7
F0.08867868755542418
sI8
F0.08690511380431569
sI9
F0.08454034880283771
sI10
F0.0756724800472953
sI11
F0.06650901566656814
sI12
F0.055867573159917236
sI13
F0.04906887378066804
sI14
F0.04020100502512563
sI15
F0.0319243275199527
sI16
F0.02453443689033402
sI17
F0.01744014188590009
sI18
F0.012415016257759386
sI19
F0.008276677505172924
sI20
F0.006207508128879693
sI21
F0.004433934377771209
sI22
F0.0026603606266627253
sI23
F0.0017735737511084836
sI24
F0.0008867868755542418
sI25
F0.0005911912503694946
sI26
F0.0002955956251847473
sssS'degree'
p12
(dp13
g4
(dp14
I1
F0.14705882352941177
sI2
F0.1568627450980392
sI3
F0.14705882352941177
sI4
F0.06862745098039216
sI5
F0.09803921568627451
sI6
F0.08823529411764706
sI7
F0.0196078431372549
sI8
F0.0392156862745098
sI9
F0.029411764705882353
sI10
F0.0196078431372549
sI11
F0.029411764705882353
sI12
F0.00980392156862745
sI13
F0.00980392156862745
sI14
F0.0196078431372549
sI15
F0.0196078431372549
sI18
F0.00980392156862745
sI19
F0.00980392156862745
sI20
F0.00980392156862745
sI21
F0.0196078431372549
sI23
F0.00980392156862745
sI29
F0.0196078431372549
sI30
F0.00980392156862745
sI38
F0.00980392156862745
ssg6
(dp15
I1
F0.2647058823529412
sI2
F0.6568627450980392
sI3
F0.00980392156862745
sI4
F0.0392156862745098
sI5
F0.0196078431372549
sI6
F0.00980392156862745
ssssI1
(dp16
g2
(dp17
g4
(dp18
F0.0
F0.6952380952380952
sF0.055
F0.009523809523809525
sF0.020999999999999998
F0.009523809523809525
sF0.095
F0.009523809523809525
sF0.29
F0.009523809523809525
sF0.038
F0.01904761904761905
sF0.109
F0.009523809523809525
sF0.018
F0.01904761904761905
sF0.166
F0.02857142857142857
sF0.047
F0.01904761904761905
sF0.045
F0.009523809523809525
sF0.008
F0.009523809523809525
sF0.028
F0.009523809523809525
sF0.004
F0.009523809523809525
sF0.3
F0.009523809523809525
sF0.027
F0.009523809523809525
sF0.2
F0.01904761904761905
sF0.1
F0.0380952380952381
sF0.333
F0.02857142857142857
sF0.177
F0.009523809523809525
sF0.034999999999999996
F0.009523809523809525
sF0.9999999999999999
F0.009523809523809525
ssg6
(dp19
F0.0
F1.0
sssg8
(dp20
g4
(dp21
I1
F0.02032967032967033
sI2
F0.03882783882783883
sI3
F0.09175824175824175
sI4
F0.18516483516483517
sI5
F0.22765567765567765
sI6
F0.20384615384615384
sI7
F0.13644688644688643
sI8
F0.06703296703296703
sI9
F0.022161172161172162
sI10
F0.005860805860805861
sI11
F0.0007326007326007326
sI12
F0.00018315018315018315
ssg6
(dp22
I1
F0.06504599211563732
sI2
F0.08935611038107753
sI3
F0.11300919842312747
sI4
F0.12680683311432325
sI5
F0.1360052562417871
sI6
F0.1287779237844941
sI7
F0.10183968462549277
sI8
F0.07752956636005257
sI9
F0.056504599211563734
sI10
F0.03942181340341656
sI11
F0.026938239159001315
sI12
F0.0164257555847569
sI13
F0.00985545335085414
sI14
F0.006570302233902759
sI15
F0.003942181340341655
sI16
F0.001314060446780552
sI17
F0.000657030223390276
sssg12
(dp23
g4
(dp24
I1
F0.1523809523809524
sI2
F0.10476190476190476
sI3
F0.1523809523809524
sI4
F0.08571428571428572
sI5
F0.11428571428571428
sI6
F0.10476190476190476
sI7
F0.02857142857142857
sI8
F0.009523809523809525
sI9
F0.0380952380952381
sI10
F0.009523809523809525
sI11
F0.05714285714285714
sI12
F0.01904761904761905
sI13
F0.02857142857142857
sI14
F0.01904761904761905
sI15
F0.009523809523809525
sI18
F0.009523809523809525
sI21
F0.009523809523809525
sI23
F0.009523809523809525
sI29
F0.009523809523809525
sI30
F0.009523809523809525
sI38
F0.009523809523809525
sI56
F0.009523809523809525
ssg6
(dp25
I1
F0.29523809523809524
sI2
F0.6285714285714286
sI3
F0.02857142857142857
sI4
F0.02857142857142857
sI6
F0.009523809523809525
sI8
F0.009523809523809525
ssssI2
(dp26
g2
(dp27
g4
(dp28
F0.0
F0.5588235294117647
sF0.5
F0.00980392156862745
sF0.066
F0.029411764705882353
sF0.055
F0.00980392156862745
sF0.666
F0.0196078431372549
sF0.106
F0.00980392156862745
sF0.007
F0.00980392156862745
sF0.051
F0.0196078431372549
sF0.29
F0.00980392156862745
sF0.038
F0.00980392156862745
sF0.087
F0.00980392156862745
sF0.009000000000000001
F0.00980392156862745
sF0.166
F0.0392156862745098
sF0.047
F0.00980392156862745
sF0.018
F0.00980392156862745
sF0.016999999999999998
F0.00980392156862745
sF0.045
F0.00980392156862745
sF0.008
F0.00980392156862745
sF0.028
F0.00980392156862745
sF0.004
F0.00980392156862745
sF0.054
F0.00980392156862745
sF0.142
F0.0196078431372549
sF0.027
F0.00980392156862745
sF0.2
F0.0392156862745098
sF0.1
F0.029411764705882353
sF0.333
F0.0392156862745098
sF0.266
F0.00980392156862745
sF0.9999999999999999
F0.029411764705882353
ssg6
(dp29
F0.0
F1.0
sssg8
(dp30
g4
(dp31
I1
F0.023296447291788
sI2
F0.0516404581634634
sI3
F0.1120170840613473
sI4
F0.19413706076490003
sI5
F0.22325761987963502
sI6
F0.18384779654436031
sI7
F0.11085226169675791
sI8
F0.05591147350029121
sI9
F0.0283440108716754
sI10
F0.011842360706658901
sI11
F0.0036886041545331006
sI12
F0.0009706853038245001
sI13
F0.00019413706076490002
ssg6
(dp32
I1
F0.04090909090909091
sI2
F0.05537190082644628
sI3
F0.07520661157024794
sI4
F0.10041322314049586
sI5
F0.12768595041322314
sI6
F0.1384297520661157
sI7
F0.13305785123966943
sI8
F0.11859504132231405
sI9
F0.0884297520661157
sI10
F0.05991735537190083
sI11
F0.03636363636363636
sI12
F0.01859504132231405
sI13
F0.005785123966942148
sI14
F0.0012396694214876034
sssg12
(dp33
g4
(dp34
I1
F0.09803921568627451
sI2
F0.13725490196078433
sI3
F0.09803921568627451
sI4
F0.10784313725490197
sI5
F0.12745098039215685
sI6
F0.09803921568627451
sI7
F0.06862745098039216
sI8
F0.0196078431372549
sI9
F0.0196078431372549
sI11
F0.049019607843137254
sI12
F0.00980392156862745
sI13
F0.029411764705882353
sI14
F0.00980392156862745
sI15
F0.00980392156862745
sI16
F0.00980392156862745
sI19
F0.00980392156862745
sI20
F0.00980392156862745
sI21
F0.00980392156862745
sI23
F0.00980392156862745
sI25
F0.00980392156862745
sI27
F0.00980392156862745
sI29
F0.0196078431372549
sI30
F0.00980392156862745
sI38
F0.00980392156862745
sI56
F0.00980392156862745
ssg6
(dp35
I1
F0.2647058823529412
sI2
F0.6372549019607843
sI3
F0.029411764705882353
sI4
F0.049019607843137254
sI6
F0.0196078431372549
ssss.