(dp0
I0
(dp1
S'clustering coefficient'
p2
(dp3
S'Backend Query'
p4
(dp5
F0.0
F0.7669902912621359
sF0.055
F0.009708737864077669
sF0.071
F0.009708737864077669
sF0.020999999999999998
F0.009708737864077669
sF0.095
F0.009708737864077669
sF0.007
F0.009708737864077669
sF0.29
F0.009708737864077669
sF0.009000000000000001
F0.009708737864077669
sF0.166
F0.019417475728155338
sF0.047
F0.009708737864077669
sF0.133
F0.009708737864077669
sF0.018
F0.009708737864077669
sF0.045
F0.009708737864077669
sF0.004
F0.009708737864077669
sF0.028
F0.009708737864077669
sF0.008
F0.009708737864077669
sF0.027
F0.009708737864077669
sF0.142
F0.009708737864077669
sF0.1
F0.009708737864077669
sF0.2
F0.019417475728155338
sF0.266
F0.009708737864077669
sF0.9999999999999999
F0.019417475728155338
ssS'Frontend Query'
p6
(dp7
F0.0
F1.0
sssS'path length'
p8
(dp9
g4
(dp10
I1
F0.02132114981915096
sI2
F0.045307443365695796
sI3
F0.10717685132305349
sI4
F0.18789263278126786
sI5
F0.21245002855511136
sI6
F0.17190177041690463
sI7
F0.10946126023224824
sI8
F0.06263087759375595
sI9
F0.03769274700171331
sI10
F0.024176660955644393
sI11
F0.012564249000571102
sI12
F0.004949552636588616
sI13
F0.0017133066818960593
sI14
F0.0005711022272986865
sI15
F0.00019036740909956216
ssg6
(dp11
I1
F0.019798210546354465
sI2
F0.03179135731962688
sI3
F0.052541404911479156
sI4
F0.07766990291262135
sI5
F0.10355987055016182
sI6
F0.12316771368741672
sI7
F0.1252617551875119
sI8
F0.11555301732343423
sI9
F0.09784884827717495
sI10
F0.07690843327622311
sI11
F0.058442794593565585
sI12
F0.04359413668379973
sI13
F0.02912621359223301
sI14
F0.018846373500856654
sI15
F0.011993146773272416
sI16
F0.006282124500285551
sI17
F0.003807348181991243
sI18
F0.0020940415000951836
sI19
F0.0009518370454978108
sI20
F0.0005711022272986865
sI21
F0.00019036740909956216
sssS'degree'
p12
(dp13
g4
(dp14
I1
F0.11650485436893204
sI2
F0.18446601941747573
sI3
F0.1262135922330097
sI4
F0.07766990291262135
sI5
F0.07766990291262135
sI6
F0.07766990291262135
sI7
F0.07766990291262135
sI8
F0.02912621359223301
sI9
F0.04854368932038835
sI11
F0.02912621359223301
sI12
F0.009708737864077669
sI14
F0.009708737864077669
sI15
F0.02912621359223301
sI18
F0.019417475728155338
sI20
F0.009708737864077669
sI21
F0.019417475728155338
sI23
F0.009708737864077669
sI25
F0.009708737864077669
sI29
F0.009708737864077669
sI30
F0.009708737864077669
sI38
F0.009708737864077669
sI56
F0.009708737864077669
ssg6
(dp15
I1
F0.27184466019417475
sI2
F0.6019417475728155
sI3
F0.038834951456310676
sI4
F0.04854368932038835
sI5
F0.019417475728155338
sI6
F0.009708737864077669
sI8
F0.009708737864077669
ssssI1
(dp16
g2
(dp17
g4
(dp18
F0.0
F0.696078431372549
sF0.066
F0.00980392156862745
sF0.095
F0.00980392156862745
sF0.106
F0.00980392156862745
sF0.007
F0.00980392156862745
sF0.051
F0.00980392156862745
sF0.038
F0.00980392156862745
sF0.018
F0.00980392156862745
sF0.166
F0.0392156862745098
sF0.047
F0.00980392156862745
sF0.009000000000000001
F0.00980392156862745
sF0.045
F0.00980392156862745
sF0.004
F0.00980392156862745
sF0.028
F0.00980392156862745
sF0.008
F0.00980392156862745
sF0.032
F0.00980392156862745
sF0.194
F0.00980392156862745
sF0.1
F0.00980392156862745
sF0.2
F0.0392156862745098
sF0.333
F0.029411764705882353
sF0.133
F0.00980392156862745
sF0.177
F0.00980392156862745
sF0.019
F0.00980392156862745
sF0.034999999999999996
F0.00980392156862745
ssg6
(dp19
F0.0
F1.0
sssg8
(dp20
g4
(dp21
I1
F0.022519899048728403
sI2
F0.043292564550572704
sI3
F0.09337992622791691
sI4
F0.1739468064453504
sI5
F0.20850320326150262
sI6
F0.17763541059988353
sI7
F0.12191807416035721
sI8
F0.0722189866045428
sI9
F0.0421277421859833
sI10
F0.022908173170258204
sI11
F0.011648223645894
sI12
F0.0062123859444768005
sI13
F0.0025237817899437004
sI14
F0.0011648223645894002
ssg6
(dp22
I1
F0.020190254319549603
sI2
F0.027955736750145604
sI3
F0.0357212191807416
sI4
F0.050475635798874006
sI5
F0.06775383420695011
sI6
F0.0844496214327315
sI7
F0.0964861192001553
sI8
F0.10172781984080762
sI9
F0.1019219569015725
sI10
F0.0945447485925063
sI11
F0.0823141137643176
sI12
F0.06988934187536401
sI13
F0.055134925257231605
sI14
F0.039992234517569406
sI15
F0.027955736750145604
sI16
F0.01941370607649
sI17
F0.0122306348281887
sI18
F0.006600660066006601
sI19
F0.0029120559114735
sI20
F0.0015530964861192001
sI21
F0.0005824111822947001
sI22
F0.00019413706076490002
sssg12
(dp23
g4
(dp24
I1
F0.09803921568627451
sI2
F0.1568627450980392
sI3
F0.10784313725490197
sI4
F0.10784313725490197
sI5
F0.10784313725490197
sI6
F0.13725490196078433
sI7
F0.058823529411764705
sI8
F0.00980392156862745
sI9
F0.00980392156862745
sI10
F0.00980392156862745
sI11
F0.058823529411764705
sI12
F0.00980392156862745
sI13
F0.00980392156862745
sI15
F0.00980392156862745
sI16
F0.00980392156862745
sI18
F0.0196078431372549
sI20
F0.00980392156862745
sI21
F0.00980392156862745
sI23
F0.00980392156862745
sI25
F0.00980392156862745
sI27
F0.00980392156862745
sI29
F0.00980392156862745
sI30
F0.00980392156862745
sI38
F0.00980392156862745
ssg6
(dp25
I1
F0.21568627450980393
sI2
F0.6176470588235294
sI3
F0.09803921568627451
sI4
F0.058823529411764705
sI6
F0.00980392156862745
ssssI2
(dp26
g2
(dp27
g4
(dp28
F0.0
F0.7184466019417476
sF0.5
F0.02912621359223301
sF0.066
F0.009708737864077669
sF0.020999999999999998
F0.009708737864077669
sF0.095
F0.009708737864077669
sF0.106
F0.009708737864077669
sF0.051
F0.009708737864077669
sF0.29
F0.009708737864077669
sF0.087
F0.009708737864077669
sF0.109
F0.009708737864077669
sF0.03
F0.009708737864077669
sF0.018
F0.009708737864077669
sF0.166
F0.038834951456310676
sF0.009000000000000001
F0.009708737864077669
sF0.008
F0.009708737864077669
sF0.007
F0.009708737864077669
sF0.004
F0.009708737864077669
sF0.194
F0.009708737864077669
sF0.2
F0.009708737864077669
sF0.4
F0.009708737864077669
sF0.333
F0.02912621359223301
sF0.177
F0.009708737864077669
sF0.9999999999999999
F0.009708737864077669
ssg6
(dp29
F0.0
F1.0
sssg8
(dp30
g4
(dp31
I1
F0.02474776318294308
sI2
F0.05901389682086427
sI3
F0.12754616409670663
sI4
F0.21549590710070435
sI5
F0.23681705691985533
sI6
F0.17513801637159718
sI7
F0.08756900818579859
sI8
F0.043784504092899294
sI9
F0.019417475728155338
sI10
F0.007805063773082048
sI11
F0.0019036740909956216
sI12
F0.0005711022272986865
sI13
F0.00019036740909956216
ssg6
(dp32
I1
F0.0211307824100514
sI2
F0.03826384922901199
sI3
F0.05672948791166952
sI4
F0.08890158004949553
sI5
F0.11593375214163336
sI6
F0.14049114791547687
sI7
F0.14258518941557205
sI8
F0.1323053493241957
sI9
F0.10013325718636969
sI10
F0.06719969541214545
sI11
F0.03978678850180849
sI12
F0.02303445650104702
sI13
F0.014277555682467162
sI14
F0.008947268227679422
sI15
F0.005139920045688178
sI16
F0.003236245954692557
sI17
F0.0015229392727964973
sI18
F0.0003807348181991243
sssg12
(dp33
g4
(dp34
I1
F0.11650485436893204
sI2
F0.1650485436893204
sI3
F0.10679611650485436
sI4
F0.10679611650485436
sI5
F0.07766990291262135
sI6
F0.0970873786407767
sI7
F0.04854368932038835
sI9
F0.02912621359223301
sI10
F0.02912621359223301
sI11
F0.05825242718446602
sI12
F0.019417475728155338
sI13
F0.009708737864077669
sI14
F0.009708737864077669
sI15
F0.019417475728155338
sI16
F0.009708737864077669
sI20
F0.009708737864077669
sI21
F0.009708737864077669
sI23
F0.009708737864077669
sI25
F0.009708737864077669
sI27
F0.009708737864077669
sI29
F0.019417475728155338
sI30
F0.009708737864077669
sI38
F0.009708737864077669
sI56
F0.009708737864077669
ssg6
(dp35
I1
F0.2524271844660194
sI2
F0.5436893203883495
sI3
F0.0970873786407767
sI4
F0.05825242718446602
sI5
F0.02912621359223301
sI7
F0.009708737864077669
sI8
F0.009708737864077669
ssss.